ARM GAS  C:\Users\Nathan\AppData\Local\Temp\ccL9QXWk.s 			page 1


   1              		.syntax unified
   2              		.cpu cortex-m3
   3              		.fpu softvfp
   4              		.eabi_attribute 20, 1
   5              		.eabi_attribute 21, 1
   6              		.eabi_attribute 23, 3
   7              		.eabi_attribute 24, 1
   8              		.eabi_attribute 25, 1
   9              		.eabi_attribute 26, 1
  10              		.eabi_attribute 30, 1
  11              		.eabi_attribute 34, 1
  12              		.eabi_attribute 18, 4
  13              		.thumb
  14              		.syntax unified
  15              		.file	"Adafruit_GPS.c"
  16              		.text
  17              	.Ltext0:
  18              		.cfi_sections	.debug_frame
  19              		.section	.text.GPS_Start,"ax",%progbits
  20              		.align	2
  21              		.global	GPS_Start
  22              		.thumb
  23              		.thumb_func
  24              		.type	GPS_Start, %function
  25              	GPS_Start:
  26              	.LFB63:
  27              		.file 1 "Adafruit_GPS.c"
   1:Adafruit_GPS.c **** /* ========================================
   2:Adafruit_GPS.c ****  *
   3:Adafruit_GPS.c ****  * Copyright YOUR COMPANY, THE YEAR
   4:Adafruit_GPS.c ****  * All Rights Reserved
   5:Adafruit_GPS.c ****  * UNPUBLISHED, LICENSED SOFTWARE.
   6:Adafruit_GPS.c ****  *
   7:Adafruit_GPS.c ****  * CONFIDENTIAL AND PROPRIETARY INFORMATION
   8:Adafruit_GPS.c ****  * WHICH IS THE PROPERTY OF your company.
   9:Adafruit_GPS.c ****  *
  10:Adafruit_GPS.c ****  * ========================================
  11:Adafruit_GPS.c **** */
  12:Adafruit_GPS.c **** 
  13:Adafruit_GPS.c **** #include "Adafruit_GPS.h"
  14:Adafruit_GPS.c **** 
  15:Adafruit_GPS.c **** uint8 NewGPSData = 0;
  16:Adafruit_GPS.c **** 
  17:Adafruit_GPS.c **** /*----------------------------- GPS FUNCTIONS  --------------------------------------- */
  18:Adafruit_GPS.c **** 
  19:Adafruit_GPS.c **** void GPS_Start(){
  28              		.loc 1 19 0
  29              		.cfi_startproc
  30              		@ args = 0, pretend = 0, frame = 0
  31              		@ frame_needed = 0, uses_anonymous_args = 0
  32 0000 08B5     		push	{r3, lr}
  33              		.cfi_def_cfa_offset 8
  34              		.cfi_offset 3, -8
  35              		.cfi_offset 14, -4
  20:Adafruit_GPS.c ****     
  21:Adafruit_GPS.c ****         UART_GPS_Start();
  36              		.loc 1 21 0
ARM GAS  C:\Users\Nathan\AppData\Local\Temp\ccL9QXWk.s 			page 2


  37 0002 FFF7FEFF 		bl	UART_GPS_Start
  38              	.LVL0:
  22:Adafruit_GPS.c ****         CyDelay(250);
  39              		.loc 1 22 0
  40 0006 FA20     		movs	r0, #250
  41 0008 FFF7FEFF 		bl	CyDelay
  42              	.LVL1:
  23:Adafruit_GPS.c ****         
  24:Adafruit_GPS.c ****         UART_GPS_PutString(PMTK_SET_NMEA_OUTPUT_RMCGGA);
  43              		.loc 1 24 0
  44 000c 0948     		ldr	r0, .L3
  45 000e FFF7FEFF 		bl	UART_GPS_PutString
  46              	.LVL2:
  25:Adafruit_GPS.c ****         //UART_GPS_PutString(PMTK_SET_NMEA_OUTPUT_RMCONLY);
  26:Adafruit_GPS.c ****         
  27:Adafruit_GPS.c ****         CyDelay(200);        
  47              		.loc 1 27 0
  48 0012 C820     		movs	r0, #200
  49 0014 FFF7FEFF 		bl	CyDelay
  50              	.LVL3:
  28:Adafruit_GPS.c ****         UART_GPS_PutString(PMTK_SET_BAUD_57600);
  51              		.loc 1 28 0
  52 0018 0748     		ldr	r0, .L3+4
  53 001a FFF7FEFF 		bl	UART_GPS_PutString
  54              	.LVL4:
  29:Adafruit_GPS.c ****         CyDelay(200);
  55              		.loc 1 29 0
  56 001e C820     		movs	r0, #200
  57 0020 FFF7FEFF 		bl	CyDelay
  58              	.LVL5:
  30:Adafruit_GPS.c ****         Clock_UART_GPS_SetDivider(52);
  59              		.loc 1 30 0
  60 0024 0121     		movs	r1, #1
  61 0026 3420     		movs	r0, #52
  62 0028 FFF7FEFF 		bl	Clock_UART_GPS_SetDividerRegister
  63              	.LVL6:
  31:Adafruit_GPS.c ****         UART_GPS_ClearRxBuffer();
  64              		.loc 1 31 0
  65 002c FFF7FEFF 		bl	UART_GPS_ClearRxBuffer
  66              	.LVL7:
  67 0030 08BD     		pop	{r3, pc}
  68              	.L4:
  69 0032 00BF     		.align	2
  70              	.L3:
  71 0034 00000000 		.word	.LC0
  72 0038 34000000 		.word	.LC1
  73              		.cfi_endproc
  74              	.LFE63:
  75              		.size	GPS_Start, .-GPS_Start
  76              		.section	.text.GPS_Refresh,"ax",%progbits
  77              		.align	2
  78              		.global	GPS_Refresh
  79              		.thumb
  80              		.thumb_func
  81              		.type	GPS_Refresh, %function
  82              	GPS_Refresh:
  83              	.LFB64:
ARM GAS  C:\Users\Nathan\AppData\Local\Temp\ccL9QXWk.s 			page 3


  32:Adafruit_GPS.c **** }
  33:Adafruit_GPS.c **** 
  34:Adafruit_GPS.c **** 
  35:Adafruit_GPS.c **** void GPS_Refresh(){
  84              		.loc 1 35 0
  85              		.cfi_startproc
  86              		@ args = 0, pretend = 0, frame = 0
  87              		@ frame_needed = 0, uses_anonymous_args = 0
  88 0000 10B5     		push	{r4, lr}
  89              		.cfi_def_cfa_offset 8
  90              		.cfi_offset 4, -8
  91              		.cfi_offset 14, -4
  92              	.LVL8:
  36:Adafruit_GPS.c ****     static uint8 temp = 0;    
  37:Adafruit_GPS.c ****     
  38:Adafruit_GPS.c **** //    UART_GPS_RX_STS_FIFO_NOTEMPTY //If set, indicates the FIFO has data available.
  39:Adafruit_GPS.c **** //    UART_GPS_RX_STS_PAR_ERROR  //If set, indicates a parity error was detected.
  40:Adafruit_GPS.c **** //    UART_GPS_RX_STS_STOP_ERROR //If set, indicates a framing error was detected. The framing erro
  41:Adafruit_GPS.c **** //    UART_GPS_RX_STS_BREAK      //If set, indicates a break was detected.
  42:Adafruit_GPS.c **** //    UART_GPS_RX_STS_OVERRUN    //If set, indicates the FIFO buffer was overrun.
  43:Adafruit_GPS.c **** //    UART_GPS_RX_STS_ADDR_MATCH //Indicates that the received byte matches one of the two addresse
  44:Adafruit_GPS.c **** //    UART_GPS_RX_STS_MRKSPC     //Status of the mark/space parity bit. This bit indicates whether 
  45:Adafruit_GPS.c **** //    UART_GPS_RX_STS_SOFT_BUFF_OVER   //If set, indicates the RX buffer was overrun.
  46:Adafruit_GPS.c ****     U8 i = 0;
  47:Adafruit_GPS.c ****     if( UART_GPS_GetRxBufferSize() >= 70)
  93              		.loc 1 47 0
  94 0002 FFF7FEFF 		bl	UART_GPS_GetRxBufferSize
  95              	.LVL9:
  96 0006 4528     		cmp	r0, #69
  97 0008 10D8     		bhi	.L16
  98 000a 10BD     		pop	{r4, pc}
  99              	.LVL10:
 100              	.L11:
  48:Adafruit_GPS.c ****     {
  49:Adafruit_GPS.c ****         
  50:Adafruit_GPS.c ****         while( UART_GPS_GetRxBufferSize() )
  51:Adafruit_GPS.c ****         {
  52:Adafruit_GPS.c ****             temp = UART_GPS_GetChar();
 101              		.loc 1 52 0
 102 000c FFF7FEFF 		bl	UART_GPS_GetChar
 103              	.LVL11:
  53:Adafruit_GPS.c ****             if (temp== '\n')
 104              		.loc 1 53 0
 105 0010 0A28     		cmp	r0, #10
 106 0012 10D0     		beq	.L8
  54:Adafruit_GPS.c ****             {
  55:Adafruit_GPS.c ****                 break;
  56:Adafruit_GPS.c ****             }
  57:Adafruit_GPS.c ****             
  58:Adafruit_GPS.c ****             
  59:Adafruit_GPS.c ****             if(NewGPSData ==0){
 107              		.loc 1 59 0
 108 0014 154B     		ldr	r3, .L18
 109 0016 1B78     		ldrb	r3, [r3]	@ zero_extendqisi2
 110 0018 0BB9     		cbnz	r3, .L9
  60:Adafruit_GPS.c ****                 GPS_RMC_Data[i] = temp;
 111              		.loc 1 60 0
ARM GAS  C:\Users\Nathan\AppData\Local\Temp\ccL9QXWk.s 			page 4


 112 001a 154A     		ldr	r2, .L18+4
 113 001c 1055     		strb	r0, [r2, r4]
 114              	.L9:
  61:Adafruit_GPS.c ****             }
  62:Adafruit_GPS.c ****             if(NewGPSData ==2){
 115              		.loc 1 62 0
 116 001e 022B     		cmp	r3, #2
 117 0020 01D1     		bne	.L10
  63:Adafruit_GPS.c ****                 GPS_GGA_Data[i] = temp;
 118              		.loc 1 63 0
 119 0022 144B     		ldr	r3, .L18+8
 120 0024 1855     		strb	r0, [r3, r4]
 121              	.L10:
  64:Adafruit_GPS.c ****             }
  65:Adafruit_GPS.c ****             i++;
 122              		.loc 1 65 0
 123 0026 0134     		adds	r4, r4, #1
 124              	.LVL12:
 125 0028 E4B2     		uxtb	r4, r4
 126              	.LVL13:
 127 002a 00E0     		b	.L6
 128              	.LVL14:
 129              	.L16:
 130 002c 0024     		movs	r4, #0
 131              	.LVL15:
 132              	.L6:
  50:Adafruit_GPS.c ****         {
 133              		.loc 1 50 0
 134 002e FFF7FEFF 		bl	UART_GPS_GetRxBufferSize
 135              	.LVL16:
 136 0032 0028     		cmp	r0, #0
 137 0034 EAD1     		bne	.L11
 138              	.L8:
  66:Adafruit_GPS.c ****         }
  67:Adafruit_GPS.c ****         
  68:Adafruit_GPS.c ****         //NewGPSData works as a state machine. Set to 0 initially, then 1 after RMC data is written
  69:Adafruit_GPS.c ****         //2 when  rmc data is sent, three when GGA data is written, and back to zero when GGA is se
  70:Adafruit_GPS.c ****         if(NewGPSData == 0)
 139              		.loc 1 70 0
 140 0036 0D4B     		ldr	r3, .L18
 141 0038 1B78     		ldrb	r3, [r3]	@ zero_extendqisi2
 142 003a 2BB1     		cbz	r3, .L12
 143 003c 0FE0     		b	.L13
 144              	.L14:
  71:Adafruit_GPS.c ****         {
  72:Adafruit_GPS.c ****             //Nullify the unused elements in the RMC array
  73:Adafruit_GPS.c ****             for (i = i;i<100; ++i)
  74:Adafruit_GPS.c ****             {
  75:Adafruit_GPS.c ****                 GPS_RMC_Data[i] = '\0';  
 145              		.loc 1 75 0 discriminator 3
 146 003e 0022     		movs	r2, #0
 147 0040 0B4B     		ldr	r3, .L18+4
 148 0042 1A55     		strb	r2, [r3, r4]
  73:Adafruit_GPS.c ****             {
 149              		.loc 1 73 0 discriminator 3
 150 0044 0134     		adds	r4, r4, #1
 151              	.LVL17:
ARM GAS  C:\Users\Nathan\AppData\Local\Temp\ccL9QXWk.s 			page 5


 152 0046 E4B2     		uxtb	r4, r4
 153              	.LVL18:
 154              	.L12:
  73:Adafruit_GPS.c ****             {
 155              		.loc 1 73 0 is_stmt 0 discriminator 1
 156 0048 632C     		cmp	r4, #99
 157 004a F8D9     		bls	.L14
  76:Adafruit_GPS.c ****             }
  77:Adafruit_GPS.c ****             //Prepares the state machine to write the RMC data
  78:Adafruit_GPS.c ****             NewGPSData = 1; 
 158              		.loc 1 78 0 is_stmt 1
 159 004c 0122     		movs	r2, #1
 160 004e 074B     		ldr	r3, .L18
 161 0050 1A70     		strb	r2, [r3]
 162 0052 10BD     		pop	{r4, pc}
 163              	.LVL19:
 164              	.L15:
  79:Adafruit_GPS.c ****         }
  80:Adafruit_GPS.c ****         
  81:Adafruit_GPS.c ****         else
  82:Adafruit_GPS.c ****         {
  83:Adafruit_GPS.c ****             //Nullify the unused elements in the GGA array
  84:Adafruit_GPS.c ****             for (i = i;i<100; ++i)
  85:Adafruit_GPS.c ****             {
  86:Adafruit_GPS.c ****                 GPS_GGA_Data[i] = '\0';  
 165              		.loc 1 86 0 discriminator 3
 166 0054 0022     		movs	r2, #0
 167 0056 074B     		ldr	r3, .L18+8
 168 0058 1A55     		strb	r2, [r3, r4]
  84:Adafruit_GPS.c ****             {
 169              		.loc 1 84 0 discriminator 3
 170 005a 0134     		adds	r4, r4, #1
 171              	.LVL20:
 172 005c E4B2     		uxtb	r4, r4
 173              	.LVL21:
 174              	.L13:
  84:Adafruit_GPS.c ****             {
 175              		.loc 1 84 0 is_stmt 0 discriminator 1
 176 005e 632C     		cmp	r4, #99
 177 0060 F8D9     		bls	.L15
  87:Adafruit_GPS.c ****             }
  88:Adafruit_GPS.c ****             //Prepares state machine to Write GGA data
  89:Adafruit_GPS.c ****             NewGPSData = 3;  
 178              		.loc 1 89 0 is_stmt 1
 179 0062 0322     		movs	r2, #3
 180 0064 014B     		ldr	r3, .L18
 181 0066 1A70     		strb	r2, [r3]
 182 0068 10BD     		pop	{r4, pc}
 183              	.LVL22:
 184              	.L19:
 185 006a 00BF     		.align	2
 186              	.L18:
 187 006c 00000000 		.word	.LANCHOR0
 188 0070 00000000 		.word	GPS_RMC_Data
 189 0074 00000000 		.word	GPS_GGA_Data
 190              		.cfi_endproc
 191              	.LFE64:
ARM GAS  C:\Users\Nathan\AppData\Local\Temp\ccL9QXWk.s 			page 6


 192              		.size	GPS_Refresh, .-GPS_Refresh
 193              		.global	NewGPSData
 194              		.comm	GPS_GGA_Data,100,4
 195              		.comm	GPS_RMC_Data,100,4
 196              		.section	.rodata.str1.4,"aMS",%progbits,1
 197              		.align	2
 198              	.LC0:
 199 0000 24504D54 		.ascii	"$PMTK314,0,1,0,1,0,0,0,0,0,0,0,0,0,0,0,0,0,0,0*28\015"
 199      4B333134 
 199      2C302C31 
 199      2C302C31 
 199      2C302C30 
 200 0032 0A00     		.ascii	"\012\000"
 201              	.LC1:
 202 0034 24504D54 		.ascii	"$PMTK251,57600*2C\015\012\000"
 202      4B323531 
 202      2C353736 
 202      30302A32 
 202      430D0A00 
 203              		.bss
 204              		.set	.LANCHOR0,. + 0
 205              		.type	NewGPSData, %object
 206              		.size	NewGPSData, 1
 207              	NewGPSData:
 208 0000 00       		.space	1
 209              		.text
 210              	.Letext0:
 211              		.file 2 "c:\\program files (x86)\\cypress\\psoc creator\\4.2\\psoc creator\\import\\gnu\\arm\\5.4.
 212              		.file 3 "c:\\program files (x86)\\cypress\\psoc creator\\4.2\\psoc creator\\import\\gnu\\arm\\5.4.
 213              		.file 4 "Generated_Source\\PSoC5/cytypes.h"
 214              		.file 5 "Generated_Source\\PSoC5/core_cm3.h"
 215              		.file 6 "Adafruit_GPS.h"
 216              		.file 7 "Generated_Source\\PSoC5/UART_GPS.h"
 217              		.file 8 "Generated_Source\\PSoC5/CyLib.h"
 218              		.file 9 "Generated_Source\\PSoC5/Clock_UART_GPS.h"