ARM GAS  C:\Users\Nathan\AppData\Local\Temp\ccXccka8.s 			page 1


   1              		.syntax unified
   2              		.cpu cortex-m3
   3              		.fpu softvfp
   4              		.eabi_attribute 20, 1
   5              		.eabi_attribute 21, 1
   6              		.eabi_attribute 23, 3
   7              		.eabi_attribute 24, 1
   8              		.eabi_attribute 25, 1
   9              		.eabi_attribute 26, 1
  10              		.eabi_attribute 30, 1
  11              		.eabi_attribute 34, 1
  12              		.eabi_attribute 18, 4
  13              		.thumb
  14              		.syntax unified
  15              		.file	"Adafruit_BNO055.c"
  16              		.text
  17              	.Ltext0:
  18              		.cfi_sections	.debug_frame
  19              		.section	.text.Write_AGM_Config,"ax",%progbits
  20              		.align	2
  21              		.global	Write_AGM_Config
  22              		.thumb
  23              		.thumb_func
  24              		.type	Write_AGM_Config, %function
  25              	Write_AGM_Config:
  26              	.LFB64:
  27              		.file 1 "Adafruit_BNO055.c"
   1:Adafruit_BNO055.c **** /* ========================================
   2:Adafruit_BNO055.c ****  *
   3:Adafruit_BNO055.c ****  * Copyright YOUR COMPANY, THE YEAR
   4:Adafruit_BNO055.c ****  * All Rights Reserved
   5:Adafruit_BNO055.c ****  * UNPUBLISHED, LICENSED SOFTWARE.
   6:Adafruit_BNO055.c ****  *
   7:Adafruit_BNO055.c ****  * CONFIDENTIAL AND PROPRIETARY INFORMATION
   8:Adafruit_BNO055.c ****  * WHICH IS THE PROPERTY OF your company.
   9:Adafruit_BNO055.c ****  *
  10:Adafruit_BNO055.c ****  * ========================================
  11:Adafruit_BNO055.c **** */
  12:Adafruit_BNO055.c **** 
  13:Adafruit_BNO055.c **** #include "Adafruit_BNO055.h"
  14:Adafruit_BNO055.c **** 
  15:Adafruit_BNO055.c **** 
  16:Adafruit_BNO055.c **** //-------------------Orientation (ACCEL/GYRO/MAG) Functions --------------------
  17:Adafruit_BNO055.c **** 
  18:Adafruit_BNO055.c **** 
  19:Adafruit_BNO055.c **** void AGM_Start(){
  20:Adafruit_BNO055.c ****     //Starts and configures the Accel/Gyro/Mag Sensor
  21:Adafruit_BNO055.c ****     
  22:Adafruit_BNO055.c ****     I2C_Orientation_Start();
  23:Adafruit_BNO055.c ****     CyDelay(300);
  24:Adafruit_BNO055.c ****    
  25:Adafruit_BNO055.c **** 
  26:Adafruit_BNO055.c ****     
  27:Adafruit_BNO055.c ****     /*while (I2C_Orientation_MSTAT_RD_CMPLT != I2C_Orientation_MasterStatus())
  28:Adafruit_BNO055.c ****     {
  29:Adafruit_BNO055.c ****     }*/
  30:Adafruit_BNO055.c ****     
ARM GAS  C:\Users\Nathan\AppData\Local\Temp\ccXccka8.s 			page 2


  31:Adafruit_BNO055.c ****     //BNO055_ADDRESS_A;
  32:Adafruit_BNO055.c ****     //adafruit_bno055_reg_t           Reg    = 2;
  33:Adafruit_BNO055.c ****     //adafruit_bno055_powermode_t     Power  = POWER_MODE_NORMAL;
  34:Adafruit_BNO055.c ****     //adafruit_bno055_opmode_t        OPMODE = OPERATION_MODE_CONFIG;
  35:Adafruit_BNO055.c ****     
  36:Adafruit_BNO055.c ****     //static uint8 DataWrite;
  37:Adafruit_BNO055.c ****     //uint8* DataAddr = &DataWrite;
  38:Adafruit_BNO055.c ****     
  39:Adafruit_BNO055.c ****     
  40:Adafruit_BNO055.c ****     
  41:Adafruit_BNO055.c ****     //Set to configuration mode
  42:Adafruit_BNO055.c ****     Write_AGM_Config(BNO055_OPR_MODE_ADDR , OPERATION_MODE_CONFIG);
  43:Adafruit_BNO055.c ****     
  44:Adafruit_BNO055.c ****     /* Set to normal power mode */
  45:Adafruit_BNO055.c ****     Write_AGM_Config(BNO055_PWR_MODE_ADDR, POWER_MODE_NORMAL);
  46:Adafruit_BNO055.c **** 
  47:Adafruit_BNO055.c ****     
  48:Adafruit_BNO055.c **** 
  49:Adafruit_BNO055.c **** 
  50:Adafruit_BNO055.c ****     Write_AGM_Config(BNO055_PAGE_ID_ADDR, 0);
  51:Adafruit_BNO055.c ****   
  52:Adafruit_BNO055.c ****     
  53:Adafruit_BNO055.c ****     /* Set the output units */
  54:Adafruit_BNO055.c ****     uint8_t unitsel = (0 << 7) | // Orientation:    0 = Android  1 = Windows
  55:Adafruit_BNO055.c ****                       (1 << 4) | // Temperature:    0 = Celcius  1 = Farenheit
  56:Adafruit_BNO055.c ****                       (1 << 2) | // Euler:          0 = Degrees  1 = Radians
  57:Adafruit_BNO055.c ****                       (1 << 1) | // Gyro:           0 = Dps      1 = Rad/s
  58:Adafruit_BNO055.c ****                       (0 << 0);  // Accelerometer   0 = m/s^2    1 = mg
  59:Adafruit_BNO055.c ****     
  60:Adafruit_BNO055.c ****     Write_AGM_Config(BNO055_UNIT_SEL_ADDR, unitsel); 
  61:Adafruit_BNO055.c ****   
  62:Adafruit_BNO055.c **** 
  63:Adafruit_BNO055.c **** 
  64:Adafruit_BNO055.c ****     // Configure axis mapping (see section 3.4)
  65:Adafruit_BNO055.c ****     Write_AGM_Config(BNO055_AXIS_MAP_CONFIG_ADDR, REMAP_CONFIG_P0); // P0-P7, Default is P1
  66:Adafruit_BNO055.c **** 
  67:Adafruit_BNO055.c **** 
  68:Adafruit_BNO055.c ****     Write_AGM_Config(BNO055_SYS_TRIGGER_ADDR, 0x0); //WHAT DOES THIS DO??
  69:Adafruit_BNO055.c ****     /* Set the requested operating mode (see section 3.3) */
  70:Adafruit_BNO055.c ****   
  71:Adafruit_BNO055.c ****       
  72:Adafruit_BNO055.c ****     //NDOF Fusion Mode. Check Euler registers or Quaternion 
  73:Adafruit_BNO055.c ****    Write_AGM_Config(BNO055_OPR_MODE_ADDR, OPERATION_MODE_NDOF);
  74:Adafruit_BNO055.c **** 
  75:Adafruit_BNO055.c ****     
  76:Adafruit_BNO055.c ****     /* -------------------- CALIBRATION -----------------------*/
  77:Adafruit_BNO055.c ****     uint8 CALIB=0  , temp = 0;
  78:Adafruit_BNO055.c ****     Timer_1_WritePeriod(500);
  79:Adafruit_BNO055.c ****     
  80:Adafruit_BNO055.c ****     while (CALIB <= 0b00010101){//FIX
  81:Adafruit_BNO055.c ****         //Send the module the address of the register to read from
  82:Adafruit_BNO055.c ****         I2C_Orientation_MasterSendStart(BNO055_ADDRESS_A, WRITE);
  83:Adafruit_BNO055.c ****         I2C_Orientation_MasterWriteByte(BNO055_CALIB_STAT_ADDR);
  84:Adafruit_BNO055.c ****         I2C_Orientation_MasterSendStop();
  85:Adafruit_BNO055.c ****         
  86:Adafruit_BNO055.c ****         //Read in data  from the next 6 registers (it will spit out until a NAck)
  87:Adafruit_BNO055.c ****         I2C_Orientation_MasterSendStart(BNO055_ADDRESS_A, READ);
ARM GAS  C:\Users\Nathan\AppData\Local\Temp\ccXccka8.s 			page 3


  88:Adafruit_BNO055.c ****         CALIB = I2C_Orientation_MasterReadByte(I2C_Orientation_NAK_DATA);
  89:Adafruit_BNO055.c ****         I2C_Orientation_MasterSendStop();
  90:Adafruit_BNO055.c ****     
  91:Adafruit_BNO055.c ****         temp = Timer_1_ReadCounter();
  92:Adafruit_BNO055.c ****         if (temp >= 250)
  93:Adafruit_BNO055.c ****         {
  94:Adafruit_BNO055.c ****             LED_Write(1);
  95:Adafruit_BNO055.c ****         }
  96:Adafruit_BNO055.c ****         else
  97:Adafruit_BNO055.c ****         {
  98:Adafruit_BNO055.c ****             LED_Write(0);
  99:Adafruit_BNO055.c ****         }
 100:Adafruit_BNO055.c ****     
 101:Adafruit_BNO055.c ****     }
 102:Adafruit_BNO055.c ****     LED_Write(0u);
 103:Adafruit_BNO055.c ****     Timer_1_WritePeriod(1000);
 104:Adafruit_BNO055.c ****     
 105:Adafruit_BNO055.c ****     //-----------------------------------------------------------------
 106:Adafruit_BNO055.c ****     
 107:Adafruit_BNO055.c ****     
 108:Adafruit_BNO055.c **** 
 109:Adafruit_BNO055.c ****    return;
 110:Adafruit_BNO055.c **** }
 111:Adafruit_BNO055.c ****     
 112:Adafruit_BNO055.c ****     
 113:Adafruit_BNO055.c ****     
 114:Adafruit_BNO055.c **** 
 115:Adafruit_BNO055.c **** 
 116:Adafruit_BNO055.c **** 
 117:Adafruit_BNO055.c **** 
 118:Adafruit_BNO055.c **** void Write_AGM_Config(uint8 RegisterAdrress, uint8 DataByte){
  28              		.loc 1 118 0
  29              		.cfi_startproc
  30              		@ args = 0, pretend = 0, frame = 0
  31              		@ frame_needed = 0, uses_anonymous_args = 0
  32              	.LVL0:
  33 0000 38B5     		push	{r3, r4, r5, lr}
  34              		.cfi_def_cfa_offset 16
  35              		.cfi_offset 3, -16
  36              		.cfi_offset 4, -12
  37              		.cfi_offset 5, -8
  38              		.cfi_offset 14, -4
  39 0002 0546     		mov	r5, r0
  40 0004 0C46     		mov	r4, r1
 119:Adafruit_BNO055.c ****     //Check if error by checking passed value from master write byte
 120:Adafruit_BNO055.c ****     //and master start send with defined value 'I2C_Orientation_MSTR_NO_ERROR'
 121:Adafruit_BNO055.c ****     
 122:Adafruit_BNO055.c ****     I2C_Orientation_MasterSendStart(BNO055_ADDRESS_A, WRITE);
  41              		.loc 1 122 0
  42 0006 0021     		movs	r1, #0
  43              	.LVL1:
  44 0008 2820     		movs	r0, #40
  45              	.LVL2:
  46 000a FFF7FEFF 		bl	I2C_Orientation_MasterSendStart
  47              	.LVL3:
 123:Adafruit_BNO055.c ****     I2C_Orientation_MasterWriteByte(RegisterAdrress);
  48              		.loc 1 123 0
ARM GAS  C:\Users\Nathan\AppData\Local\Temp\ccXccka8.s 			page 4


  49 000e 2846     		mov	r0, r5
  50 0010 FFF7FEFF 		bl	I2C_Orientation_MasterWriteByte
  51              	.LVL4:
 124:Adafruit_BNO055.c ****     I2C_Orientation_MasterWriteByte(DataByte);
  52              		.loc 1 124 0
  53 0014 2046     		mov	r0, r4
  54 0016 FFF7FEFF 		bl	I2C_Orientation_MasterWriteByte
  55              	.LVL5:
 125:Adafruit_BNO055.c ****     I2C_Orientation_MasterSendStop();
  56              		.loc 1 125 0
  57 001a FFF7FEFF 		bl	I2C_Orientation_MasterSendStop
  58              	.LVL6:
 126:Adafruit_BNO055.c ****     
 127:Adafruit_BNO055.c ****     CyDelay(50);
  59              		.loc 1 127 0
  60 001e 3220     		movs	r0, #50
  61 0020 FFF7FEFF 		bl	CyDelay
  62              	.LVL7:
  63 0024 38BD     		pop	{r3, r4, r5, pc}
  64              		.cfi_endproc
  65              	.LFE64:
  66              		.size	Write_AGM_Config, .-Write_AGM_Config
  67 0026 00BF     		.section	.text.AGM_Start,"ax",%progbits
  68              		.align	2
  69              		.global	AGM_Start
  70              		.thumb
  71              		.thumb_func
  72              		.type	AGM_Start, %function
  73              	AGM_Start:
  74              	.LFB63:
  19:Adafruit_BNO055.c ****     //Starts and configures the Accel/Gyro/Mag Sensor
  75              		.loc 1 19 0
  76              		.cfi_startproc
  77              		@ args = 0, pretend = 0, frame = 0
  78              		@ frame_needed = 0, uses_anonymous_args = 0
  79 0000 10B5     		push	{r4, lr}
  80              		.cfi_def_cfa_offset 8
  81              		.cfi_offset 4, -8
  82              		.cfi_offset 14, -4
  22:Adafruit_BNO055.c ****     CyDelay(300);
  83              		.loc 1 22 0
  84 0002 FFF7FEFF 		bl	I2C_Orientation_Start
  85              	.LVL8:
  23:Adafruit_BNO055.c ****    
  86              		.loc 1 23 0
  87 0006 4FF49670 		mov	r0, #300
  88 000a FFF7FEFF 		bl	CyDelay
  89              	.LVL9:
  42:Adafruit_BNO055.c ****     
  90              		.loc 1 42 0
  91 000e 0021     		movs	r1, #0
  92 0010 3D20     		movs	r0, #61
  93 0012 FFF7FEFF 		bl	Write_AGM_Config
  94              	.LVL10:
  45:Adafruit_BNO055.c **** 
  95              		.loc 1 45 0
  96 0016 0021     		movs	r1, #0
ARM GAS  C:\Users\Nathan\AppData\Local\Temp\ccXccka8.s 			page 5


  97 0018 3E20     		movs	r0, #62
  98 001a FFF7FEFF 		bl	Write_AGM_Config
  99              	.LVL11:
  50:Adafruit_BNO055.c ****   
 100              		.loc 1 50 0
 101 001e 0021     		movs	r1, #0
 102 0020 0720     		movs	r0, #7
 103 0022 FFF7FEFF 		bl	Write_AGM_Config
 104              	.LVL12:
  60:Adafruit_BNO055.c ****   
 105              		.loc 1 60 0
 106 0026 1621     		movs	r1, #22
 107 0028 3B20     		movs	r0, #59
 108 002a FFF7FEFF 		bl	Write_AGM_Config
 109              	.LVL13:
  65:Adafruit_BNO055.c **** 
 110              		.loc 1 65 0
 111 002e 2121     		movs	r1, #33
 112 0030 4120     		movs	r0, #65
 113 0032 FFF7FEFF 		bl	Write_AGM_Config
 114              	.LVL14:
  68:Adafruit_BNO055.c ****     /* Set the requested operating mode (see section 3.3) */
 115              		.loc 1 68 0
 116 0036 0021     		movs	r1, #0
 117 0038 3F20     		movs	r0, #63
 118 003a FFF7FEFF 		bl	Write_AGM_Config
 119              	.LVL15:
  73:Adafruit_BNO055.c **** 
 120              		.loc 1 73 0
 121 003e 0C21     		movs	r1, #12
 122 0040 3D20     		movs	r0, #61
 123 0042 FFF7FEFF 		bl	Write_AGM_Config
 124              	.LVL16:
  78:Adafruit_BNO055.c ****     
 125              		.loc 1 78 0
 126 0046 4FF4FA70 		mov	r0, #500
 127 004a FFF7FEFF 		bl	Timer_1_WritePeriod
 128              	.LVL17:
  77:Adafruit_BNO055.c ****     Timer_1_WritePeriod(500);
 129              		.loc 1 77 0
 130 004e 0024     		movs	r4, #0
  80:Adafruit_BNO055.c ****         //Send the module the address of the register to read from
 131              		.loc 1 80 0
 132 0050 1EE0     		b	.L4
 133              	.LVL18:
 134              	.L7:
  82:Adafruit_BNO055.c ****         I2C_Orientation_MasterWriteByte(BNO055_CALIB_STAT_ADDR);
 135              		.loc 1 82 0
 136 0052 0021     		movs	r1, #0
 137 0054 2820     		movs	r0, #40
 138 0056 FFF7FEFF 		bl	I2C_Orientation_MasterSendStart
 139              	.LVL19:
  83:Adafruit_BNO055.c ****         I2C_Orientation_MasterSendStop();
 140              		.loc 1 83 0
 141 005a 3520     		movs	r0, #53
 142 005c FFF7FEFF 		bl	I2C_Orientation_MasterWriteByte
 143              	.LVL20:
ARM GAS  C:\Users\Nathan\AppData\Local\Temp\ccXccka8.s 			page 6


  84:Adafruit_BNO055.c ****         
 144              		.loc 1 84 0
 145 0060 FFF7FEFF 		bl	I2C_Orientation_MasterSendStop
 146              	.LVL21:
  87:Adafruit_BNO055.c ****         CALIB = I2C_Orientation_MasterReadByte(I2C_Orientation_NAK_DATA);
 147              		.loc 1 87 0
 148 0064 0121     		movs	r1, #1
 149 0066 2820     		movs	r0, #40
 150 0068 FFF7FEFF 		bl	I2C_Orientation_MasterSendStart
 151              	.LVL22:
  88:Adafruit_BNO055.c ****         I2C_Orientation_MasterSendStop();
 152              		.loc 1 88 0
 153 006c 0020     		movs	r0, #0
 154 006e FFF7FEFF 		bl	I2C_Orientation_MasterReadByte
 155              	.LVL23:
 156 0072 0446     		mov	r4, r0
 157              	.LVL24:
  89:Adafruit_BNO055.c ****     
 158              		.loc 1 89 0
 159 0074 FFF7FEFF 		bl	I2C_Orientation_MasterSendStop
 160              	.LVL25:
  91:Adafruit_BNO055.c ****         if (temp >= 250)
 161              		.loc 1 91 0
 162 0078 FFF7FEFF 		bl	Timer_1_ReadCounter
 163              	.LVL26:
 164 007c C0B2     		uxtb	r0, r0
 165              	.LVL27:
  92:Adafruit_BNO055.c ****         {
 166              		.loc 1 92 0
 167 007e F928     		cmp	r0, #249
 168 0080 03D9     		bls	.L5
  94:Adafruit_BNO055.c ****         }
 169              		.loc 1 94 0
 170 0082 0120     		movs	r0, #1
 171              	.LVL28:
 172 0084 FFF7FEFF 		bl	LED_Write
 173              	.LVL29:
 174 0088 02E0     		b	.L4
 175              	.LVL30:
 176              	.L5:
  98:Adafruit_BNO055.c ****         }
 177              		.loc 1 98 0
 178 008a 0020     		movs	r0, #0
 179              	.LVL31:
 180 008c FFF7FEFF 		bl	LED_Write
 181              	.LVL32:
 182              	.L4:
  80:Adafruit_BNO055.c ****         //Send the module the address of the register to read from
 183              		.loc 1 80 0
 184 0090 152C     		cmp	r4, #21
 185 0092 DED9     		bls	.L7
 102:Adafruit_BNO055.c ****     Timer_1_WritePeriod(1000);
 186              		.loc 1 102 0
 187 0094 0020     		movs	r0, #0
 188 0096 FFF7FEFF 		bl	LED_Write
 189              	.LVL33:
 103:Adafruit_BNO055.c ****     
ARM GAS  C:\Users\Nathan\AppData\Local\Temp\ccXccka8.s 			page 7


 190              		.loc 1 103 0
 191 009a 4FF47A70 		mov	r0, #1000
 192 009e FFF7FEFF 		bl	Timer_1_WritePeriod
 193              	.LVL34:
 194 00a2 10BD     		pop	{r4, pc}
 195              		.cfi_endproc
 196              	.LFE63:
 197              		.size	AGM_Start, .-AGM_Start
 198              		.section	.text.AGM_EulersRefresh,"ax",%progbits
 199              		.align	2
 200              		.global	AGM_EulersRefresh
 201              		.thumb
 202              		.thumb_func
 203              		.type	AGM_EulersRefresh, %function
 204              	AGM_EulersRefresh:
 205              	.LFB65:
 128:Adafruit_BNO055.c ****     
 129:Adafruit_BNO055.c ****     return;
 130:Adafruit_BNO055.c **** }
 131:Adafruit_BNO055.c ****     
 132:Adafruit_BNO055.c **** 
 133:Adafruit_BNO055.c **** 
 134:Adafruit_BNO055.c **** 
 135:Adafruit_BNO055.c **** 
 136:Adafruit_BNO055.c **** 
 137:Adafruit_BNO055.c **** 
 138:Adafruit_BNO055.c **** 
 139:Adafruit_BNO055.c **** 
 140:Adafruit_BNO055.c ****  
 141:Adafruit_BNO055.c **** 
 142:Adafruit_BNO055.c **** 
 143:Adafruit_BNO055.c **** void AGM_EulersRefresh(){
 206              		.loc 1 143 0
 207              		.cfi_startproc
 208              		@ args = 0, pretend = 0, frame = 0
 209              		@ frame_needed = 0, uses_anonymous_args = 0
 210 0000 70B5     		push	{r4, r5, r6, lr}
 211              		.cfi_def_cfa_offset 16
 212              		.cfi_offset 4, -16
 213              		.cfi_offset 5, -12
 214              		.cfi_offset 6, -8
 215              		.cfi_offset 14, -4
 144:Adafruit_BNO055.c ****     //Get Eulers Angles from Registers of module
 145:Adafruit_BNO055.c ****        
 146:Adafruit_BNO055.c ****     /* --------------- Euler Angles ----------------------------- */
 147:Adafruit_BNO055.c ****     //Send the module the address of the register to read from
 148:Adafruit_BNO055.c ****     I2C_Orientation_MasterSendStart(BNO055_ADDRESS_A, WRITE);
 216              		.loc 1 148 0
 217 0002 0021     		movs	r1, #0
 218 0004 2820     		movs	r0, #40
 219 0006 FFF7FEFF 		bl	I2C_Orientation_MasterSendStart
 220              	.LVL35:
 149:Adafruit_BNO055.c ****     I2C_Orientation_MasterWriteByte(BNO055_EULER_H_LSB_ADDR);
 221              		.loc 1 149 0
 222 000a 1A20     		movs	r0, #26
 223 000c FFF7FEFF 		bl	I2C_Orientation_MasterWriteByte
 224              	.LVL36:
ARM GAS  C:\Users\Nathan\AppData\Local\Temp\ccXccka8.s 			page 8


 150:Adafruit_BNO055.c ****     I2C_Orientation_MasterSendStop();
 225              		.loc 1 150 0
 226 0010 FFF7FEFF 		bl	I2C_Orientation_MasterSendStop
 227              	.LVL37:
 151:Adafruit_BNO055.c ****     
 152:Adafruit_BNO055.c ****     
 153:Adafruit_BNO055.c ****     //Read in data  from the next 6 registers (it will spit out until a NAck)
 154:Adafruit_BNO055.c ****     I2C_Orientation_MasterSendStart(BNO055_ADDRESS_A, READ);
 228              		.loc 1 154 0
 229 0014 0121     		movs	r1, #1
 230 0016 2820     		movs	r0, #40
 231 0018 FFF7FEFF 		bl	I2C_Orientation_MasterSendStart
 232              	.LVL38:
 155:Adafruit_BNO055.c ****     YAW = I2C_Orientation_MasterReadByte(I2C_Orientation_ACK_DATA);
 233              		.loc 1 155 0
 234 001c 0120     		movs	r0, #1
 235 001e FFF7FEFF 		bl	I2C_Orientation_MasterReadByte
 236              	.LVL39:
 237 0022 234E     		ldr	r6, .L11
 238 0024 3080     		strh	r0, [r6]	@ movhi
 156:Adafruit_BNO055.c ****     YAW = YAW + ( I2C_Orientation_MasterReadByte(I2C_Orientation_ACK_DATA) << 8 );
 239              		.loc 1 156 0
 240 0026 0120     		movs	r0, #1
 241 0028 FFF7FEFF 		bl	I2C_Orientation_MasterReadByte
 242              	.LVL40:
 243 002c 3388     		ldrh	r3, [r6]
 244 002e 03EB0020 		add	r0, r3, r0, lsl #8
 245 0032 3080     		strh	r0, [r6]	@ movhi
 157:Adafruit_BNO055.c **** 
 158:Adafruit_BNO055.c ****     ROLL = I2C_Orientation_MasterReadByte(I2C_Orientation_ACK_DATA);
 246              		.loc 1 158 0
 247 0034 0120     		movs	r0, #1
 248 0036 FFF7FEFF 		bl	I2C_Orientation_MasterReadByte
 249              	.LVL41:
 250 003a 1E4D     		ldr	r5, .L11+4
 251 003c 2880     		strh	r0, [r5]	@ movhi
 159:Adafruit_BNO055.c ****     ROLL = ROLL + ( I2C_Orientation_MasterReadByte(I2C_Orientation_ACK_DATA) << 8 );
 252              		.loc 1 159 0
 253 003e 0120     		movs	r0, #1
 254 0040 FFF7FEFF 		bl	I2C_Orientation_MasterReadByte
 255              	.LVL42:
 256 0044 2B88     		ldrh	r3, [r5]
 257 0046 03EB0020 		add	r0, r3, r0, lsl #8
 258 004a 2880     		strh	r0, [r5]	@ movhi
 160:Adafruit_BNO055.c ****     
 161:Adafruit_BNO055.c ****     PITCH = I2C_Orientation_MasterReadByte(I2C_Orientation_ACK_DATA);
 259              		.loc 1 161 0
 260 004c 0120     		movs	r0, #1
 261 004e FFF7FEFF 		bl	I2C_Orientation_MasterReadByte
 262              	.LVL43:
 263 0052 194C     		ldr	r4, .L11+8
 264 0054 2080     		strh	r0, [r4]	@ movhi
 162:Adafruit_BNO055.c ****     PITCH = PITCH + ( I2C_Orientation_MasterReadByte(I2C_Orientation_NAK_DATA) << 8 ); //Send a No 
 265              		.loc 1 162 0
 266 0056 0020     		movs	r0, #0
 267 0058 FFF7FEFF 		bl	I2C_Orientation_MasterReadByte
 268              	.LVL44:
ARM GAS  C:\Users\Nathan\AppData\Local\Temp\ccXccka8.s 			page 9


 269 005c 2388     		ldrh	r3, [r4]
 270 005e 03EB0020 		add	r0, r3, r0, lsl #8
 271 0062 2080     		strh	r0, [r4]	@ movhi
 163:Adafruit_BNO055.c ****     
 164:Adafruit_BNO055.c ****     I2C_Orientation_MasterSendStop();
 272              		.loc 1 164 0
 273 0064 FFF7FEFF 		bl	I2C_Orientation_MasterSendStop
 274              	.LVL45:
 165:Adafruit_BNO055.c ****     
 166:Adafruit_BNO055.c ****       
 167:Adafruit_BNO055.c ****     YAW = (YAW * 18000) / 2827;
 275              		.loc 1 167 0
 276 0068 3288     		ldrh	r2, [r6]
 277 006a 44F25063 		movw	r3, #18000
 278 006e 03FB02F2 		mul	r2, r3, r2
 279 0072 1249     		ldr	r1, .L11+12
 280 0074 81FB02E0 		smull	lr, r0, r1, r2
 281 0078 1044     		add	r0, r0, r2
 282 007a D217     		asrs	r2, r2, #31
 283 007c C2EBE022 		rsb	r2, r2, r0, asr #11
 284 0080 3280     		strh	r2, [r6]	@ movhi
 168:Adafruit_BNO055.c ****     ROLL = (ROLL * 18000) / 2827;
 285              		.loc 1 168 0
 286 0082 B5F90020 		ldrsh	r2, [r5]
 287 0086 03FB02F2 		mul	r2, r3, r2
 288 008a 81FB0260 		smull	r6, r0, r1, r2
 289 008e 1044     		add	r0, r0, r2
 290 0090 D217     		asrs	r2, r2, #31
 291 0092 C2EBE022 		rsb	r2, r2, r0, asr #11
 292 0096 2A80     		strh	r2, [r5]	@ movhi
 169:Adafruit_BNO055.c ****     PITCH= (PITCH * 18000) / 2827;
 293              		.loc 1 169 0
 294 0098 B4F90020 		ldrsh	r2, [r4]
 295 009c 03FB02F3 		mul	r3, r3, r2
 296 00a0 81FB0321 		smull	r2, r1, r1, r3
 297 00a4 1944     		add	r1, r1, r3
 298 00a6 DB17     		asrs	r3, r3, #31
 299 00a8 C3EBE123 		rsb	r3, r3, r1, asr #11
 300 00ac 2380     		strh	r3, [r4]	@ movhi
 301 00ae 70BD     		pop	{r4, r5, r6, pc}
 302              	.L12:
 303              		.align	2
 304              	.L11:
 305 00b0 00000000 		.word	YAW
 306 00b4 00000000 		.word	ROLL
 307 00b8 00000000 		.word	PITCH
 308 00bc 8D1675B9 		.word	-1183508851
 309              		.cfi_endproc
 310              	.LFE65:
 311              		.size	AGM_EulersRefresh, .-AGM_EulersRefresh
 312              		.section	.text.AGM_AccelRefresh,"ax",%progbits
 313              		.align	2
 314              		.global	AGM_AccelRefresh
 315              		.thumb
 316              		.thumb_func
 317              		.type	AGM_AccelRefresh, %function
 318              	AGM_AccelRefresh:
ARM GAS  C:\Users\Nathan\AppData\Local\Temp\ccXccka8.s 			page 10


 319              	.LFB66:
 170:Adafruit_BNO055.c ****     
 171:Adafruit_BNO055.c ****     //------------------- ALTERNATE METHOD ------------------------
 172:Adafruit_BNO055.c ****     // Probably doesn't work. Have no idea how MasterReadBuf is supposed to work
 173:Adafruit_BNO055.c ****     /*
 174:Adafruit_BNO055.c ****     uint16 ORIENTATION[7];
 175:Adafruit_BNO055.c ****     
 176:Adafruit_BNO055.c ****     I2C_Orientation_MasterSendStart(BNO055_ADDRESS_A, WRITE);
 177:Adafruit_BNO055.c ****     I2C_Orientation_MasterWriteByte(BNO055_EULER_H_LSB_ADDR);
 178:Adafruit_BNO055.c ****     I2C_Orientation_MasterSendStop();
 179:Adafruit_BNO055.c **** 
 180:Adafruit_BNO055.c ****     I2C_Orientation_MasterReadBuf(BNO055_ADDRESS_A, ORIENTATION, 6, I2C_Orientation_MODE_COMPLETE_X
 181:Adafruit_BNO055.c ****     */
 182:Adafruit_BNO055.c **** 
 183:Adafruit_BNO055.c ****     return;
 184:Adafruit_BNO055.c **** }
 185:Adafruit_BNO055.c ****     
 186:Adafruit_BNO055.c **** 
 187:Adafruit_BNO055.c **** 
 188:Adafruit_BNO055.c **** 
 189:Adafruit_BNO055.c **** 
 190:Adafruit_BNO055.c **** 
 191:Adafruit_BNO055.c **** 
 192:Adafruit_BNO055.c **** void AGM_AccelRefresh(){
 320              		.loc 1 192 0
 321              		.cfi_startproc
 322              		@ args = 0, pretend = 0, frame = 0
 323              		@ frame_needed = 0, uses_anonymous_args = 0
 324 0000 10B5     		push	{r4, lr}
 325              		.cfi_def_cfa_offset 8
 326              		.cfi_offset 4, -8
 327              		.cfi_offset 14, -4
 193:Adafruit_BNO055.c ****     //Get the linear Acceleration of the chip
 194:Adafruit_BNO055.c ****         
 195:Adafruit_BNO055.c ****     
 196:Adafruit_BNO055.c ****     /* --------------------LINEAR ACCELERATION-----------------------*/
 197:Adafruit_BNO055.c ****     //Send the module the address of the register to read from
 198:Adafruit_BNO055.c ****     I2C_Orientation_MasterSendStart(BNO055_ADDRESS_A, WRITE);
 328              		.loc 1 198 0
 329 0002 0021     		movs	r1, #0
 330 0004 2820     		movs	r0, #40
 331 0006 FFF7FEFF 		bl	I2C_Orientation_MasterSendStart
 332              	.LVL46:
 199:Adafruit_BNO055.c ****     I2C_Orientation_MasterWriteByte(BNO055_LINEAR_ACCEL_DATA_X_LSB_ADDR);
 333              		.loc 1 199 0
 334 000a 2820     		movs	r0, #40
 335 000c FFF7FEFF 		bl	I2C_Orientation_MasterWriteByte
 336              	.LVL47:
 200:Adafruit_BNO055.c ****     I2C_Orientation_MasterSendStop();
 337              		.loc 1 200 0
 338 0010 FFF7FEFF 		bl	I2C_Orientation_MasterSendStop
 339              	.LVL48:
 201:Adafruit_BNO055.c ****     
 202:Adafruit_BNO055.c ****     //Read in data  from the next 6 registers (it will spit out until a NAck)
 203:Adafruit_BNO055.c ****     I2C_Orientation_MasterSendStart(BNO055_ADDRESS_A, READ);
 340              		.loc 1 203 0
 341 0014 0121     		movs	r1, #1
ARM GAS  C:\Users\Nathan\AppData\Local\Temp\ccXccka8.s 			page 11


 342 0016 2820     		movs	r0, #40
 343 0018 FFF7FEFF 		bl	I2C_Orientation_MasterSendStart
 344              	.LVL49:
 204:Adafruit_BNO055.c ****     XACCEL = I2C_Orientation_MasterReadByte(I2C_Orientation_ACK_DATA);
 345              		.loc 1 204 0
 346 001c 0120     		movs	r0, #1
 347 001e FFF7FEFF 		bl	I2C_Orientation_MasterReadByte
 348              	.LVL50:
 349 0022 124C     		ldr	r4, .L15
 350 0024 2080     		strh	r0, [r4]	@ movhi
 205:Adafruit_BNO055.c ****     XACCEL = XACCEL + ( I2C_Orientation_MasterReadByte(I2C_Orientation_ACK_DATA) << 8 );
 351              		.loc 1 205 0
 352 0026 0120     		movs	r0, #1
 353 0028 FFF7FEFF 		bl	I2C_Orientation_MasterReadByte
 354              	.LVL51:
 355 002c 2388     		ldrh	r3, [r4]
 356 002e 03EB0020 		add	r0, r3, r0, lsl #8
 357 0032 2080     		strh	r0, [r4]	@ movhi
 206:Adafruit_BNO055.c **** 
 207:Adafruit_BNO055.c ****     YACCEL = I2C_Orientation_MasterReadByte(I2C_Orientation_ACK_DATA);
 358              		.loc 1 207 0
 359 0034 0120     		movs	r0, #1
 360 0036 FFF7FEFF 		bl	I2C_Orientation_MasterReadByte
 361              	.LVL52:
 362 003a 0D4C     		ldr	r4, .L15+4
 363 003c 2080     		strh	r0, [r4]	@ movhi
 208:Adafruit_BNO055.c ****     YACCEL = YACCEL + ( I2C_Orientation_MasterReadByte(I2C_Orientation_ACK_DATA) << 8 );
 364              		.loc 1 208 0
 365 003e 0120     		movs	r0, #1
 366 0040 FFF7FEFF 		bl	I2C_Orientation_MasterReadByte
 367              	.LVL53:
 368 0044 2388     		ldrh	r3, [r4]
 369 0046 03EB0020 		add	r0, r3, r0, lsl #8
 370 004a 2080     		strh	r0, [r4]	@ movhi
 209:Adafruit_BNO055.c ****     
 210:Adafruit_BNO055.c ****     ZACCEL = I2C_Orientation_MasterReadByte(I2C_Orientation_ACK_DATA);
 371              		.loc 1 210 0
 372 004c 0120     		movs	r0, #1
 373 004e FFF7FEFF 		bl	I2C_Orientation_MasterReadByte
 374              	.LVL54:
 375 0052 084C     		ldr	r4, .L15+8
 376 0054 2080     		strh	r0, [r4]	@ movhi
 211:Adafruit_BNO055.c ****     ZACCEL = ZACCEL + ( I2C_Orientation_MasterReadByte(I2C_Orientation_NAK_DATA) << 8 ); //Send a N
 377              		.loc 1 211 0
 378 0056 0020     		movs	r0, #0
 379 0058 FFF7FEFF 		bl	I2C_Orientation_MasterReadByte
 380              	.LVL55:
 381 005c 2388     		ldrh	r3, [r4]
 382 005e 03EB0020 		add	r0, r3, r0, lsl #8
 383 0062 2080     		strh	r0, [r4]	@ movhi
 212:Adafruit_BNO055.c ****     
 213:Adafruit_BNO055.c ****     I2C_Orientation_MasterSendStop();
 384              		.loc 1 213 0
 385 0064 FFF7FEFF 		bl	I2C_Orientation_MasterSendStop
 386              	.LVL56:
 387 0068 10BD     		pop	{r4, pc}
 388              	.L16:
ARM GAS  C:\Users\Nathan\AppData\Local\Temp\ccXccka8.s 			page 12


 389 006a 00BF     		.align	2
 390              	.L15:
 391 006c 00000000 		.word	XACCEL
 392 0070 00000000 		.word	YACCEL
 393 0074 00000000 		.word	ZACCEL
 394              		.cfi_endproc
 395              	.LFE66:
 396              		.size	AGM_AccelRefresh, .-AGM_AccelRefresh
 397              		.section	.text.AGM_GetTemp,"ax",%progbits
 398              		.align	2
 399              		.global	AGM_GetTemp
 400              		.thumb
 401              		.thumb_func
 402              		.type	AGM_GetTemp, %function
 403              	AGM_GetTemp:
 404              	.LFB67:
 214:Adafruit_BNO055.c ****     
 215:Adafruit_BNO055.c ****     return;
 216:Adafruit_BNO055.c **** }
 217:Adafruit_BNO055.c **** 
 218:Adafruit_BNO055.c **** 
 219:Adafruit_BNO055.c **** 
 220:Adafruit_BNO055.c **** 
 221:Adafruit_BNO055.c **** 
 222:Adafruit_BNO055.c **** 
 223:Adafruit_BNO055.c **** 
 224:Adafruit_BNO055.c **** 
 225:Adafruit_BNO055.c **** void AGM_GetTemp(){
 405              		.loc 1 225 0
 406              		.cfi_startproc
 407              		@ args = 0, pretend = 0, frame = 0
 408              		@ frame_needed = 0, uses_anonymous_args = 0
 409 0000 10B5     		push	{r4, lr}
 410              		.cfi_def_cfa_offset 8
 411              		.cfi_offset 4, -8
 412              		.cfi_offset 14, -4
 226:Adafruit_BNO055.c ****         
 227:Adafruit_BNO055.c ****     
 228:Adafruit_BNO055.c ****     /* --------------------ACCELEROMETER TEMPERATURE-----------------------*/
 229:Adafruit_BNO055.c ****         //Send the module the address of the register to read from
 230:Adafruit_BNO055.c ****     I2C_Orientation_MasterSendStart(BNO055_ADDRESS_A, WRITE);
 413              		.loc 1 230 0
 414 0002 0021     		movs	r1, #0
 415 0004 2820     		movs	r0, #40
 416 0006 FFF7FEFF 		bl	I2C_Orientation_MasterSendStart
 417              	.LVL57:
 231:Adafruit_BNO055.c ****     I2C_Orientation_MasterWriteByte(BNO055_TEMP_ADDR);
 418              		.loc 1 231 0
 419 000a 3420     		movs	r0, #52
 420 000c FFF7FEFF 		bl	I2C_Orientation_MasterWriteByte
 421              	.LVL58:
 232:Adafruit_BNO055.c ****     I2C_Orientation_MasterSendStop();
 422              		.loc 1 232 0
 423 0010 FFF7FEFF 		bl	I2C_Orientation_MasterSendStop
 424              	.LVL59:
 233:Adafruit_BNO055.c ****     
 234:Adafruit_BNO055.c ****     //Read in data  from the next 6 registers (it will spit out until a NAck)
ARM GAS  C:\Users\Nathan\AppData\Local\Temp\ccXccka8.s 			page 13


 235:Adafruit_BNO055.c ****     I2C_Orientation_MasterSendStart(BNO055_ADDRESS_A, READ);
 425              		.loc 1 235 0
 426 0014 0121     		movs	r1, #1
 427 0016 2820     		movs	r0, #40
 428 0018 FFF7FEFF 		bl	I2C_Orientation_MasterSendStart
 429              	.LVL60:
 236:Adafruit_BNO055.c ****     AGMTEMP = I2C_Orientation_MasterReadByte(I2C_Orientation_NAK_DATA);
 430              		.loc 1 236 0
 431 001c 0020     		movs	r0, #0
 432 001e FFF7FEFF 		bl	I2C_Orientation_MasterReadByte
 433              	.LVL61:
 434 0022 044C     		ldr	r4, .L19
 435 0024 2070     		strb	r0, [r4]
 237:Adafruit_BNO055.c ****     I2C_Orientation_MasterSendStop();
 436              		.loc 1 237 0
 437 0026 FFF7FEFF 		bl	I2C_Orientation_MasterSendStop
 438              	.LVL62:
 238:Adafruit_BNO055.c ****     
 239:Adafruit_BNO055.c ****     //IF IN FARENHEIT THEN multiply by 2
 240:Adafruit_BNO055.c ****     AGMTEMP = AGMTEMP * 2;
 439              		.loc 1 240 0
 440 002a 2378     		ldrb	r3, [r4]	@ zero_extendqisi2
 441 002c 5B00     		lsls	r3, r3, #1
 442 002e 2370     		strb	r3, [r4]
 443 0030 10BD     		pop	{r4, pc}
 444              	.L20:
 445 0032 00BF     		.align	2
 446              	.L19:
 447 0034 00000000 		.word	AGMTEMP
 448              		.cfi_endproc
 449              	.LFE67:
 450              		.size	AGM_GetTemp, .-AGM_GetTemp
 451              		.comm	AGMTEMP,1,1
 452              		.comm	ZACCEL,2,2
 453              		.comm	YACCEL,2,2
 454              		.comm	XACCEL,2,2
 455              		.comm	YAW,2,2
 456              		.comm	PITCH,2,2
 457              		.comm	ROLL,2,2
 458              		.text
 459              	.Letext0:
 460              		.file 2 "c:\\program files (x86)\\cypress\\psoc creator\\4.2\\psoc creator\\import\\gnu\\arm\\5.4.
 461              		.file 3 "c:\\program files (x86)\\cypress\\psoc creator\\4.2\\psoc creator\\import\\gnu\\arm\\5.4.
 462              		.file 4 "Generated_Source\\PSoC5/cytypes.h"
 463              		.file 5 "Adafruit_BNO055.h"
 464              		.file 6 "Generated_Source\\PSoC5/core_cm3.h"
 465              		.file 7 "Generated_Source\\PSoC5/I2C_Orientation.h"
 466              		.file 8 "Generated_Source\\PSoC5/CyLib.h"
 467              		.file 9 "Generated_Source\\PSoC5/Timer_1.h"
 468              		.file 10 "Generated_Source\\PSoC5/LED.h"