ARM GAS  C:\Users\Nathan\AppData\Local\Temp\cc67vpvF.s 			page 1


   1              		.syntax unified
   2              		.cpu cortex-m3
   3              		.fpu softvfp
   4              		.eabi_attribute 20, 1
   5              		.eabi_attribute 21, 1
   6              		.eabi_attribute 23, 3
   7              		.eabi_attribute 24, 1
   8              		.eabi_attribute 25, 1
   9              		.eabi_attribute 26, 1
  10              		.eabi_attribute 30, 1
  11              		.eabi_attribute 34, 1
  12              		.eabi_attribute 18, 4
  13              		.thumb
  14              		.syntax unified
  15              		.file	"emFile_1_MMC_HW_SPI.c"
  16              		.text
  17              	.Ltext0:
  18              		.cfi_sections	.debug_frame
  19              		.section	.text.emFile_1_Init,"ax",%progbits
  20              		.align	2
  21              		.thumb
  22              		.thumb_func
  23              		.type	emFile_1_Init, %function
  24              	emFile_1_Init:
  25              	.LFB63:
  26              		.file 1 "Generated_Source\\PSoC5\\emFile_1_MMC_HW_SPI.c"
   1:Generated_Source\PSoC5/emFile_1_MMC_HW_SPI.c **** /*******************************************************************************
   2:Generated_Source\PSoC5/emFile_1_MMC_HW_SPI.c **** * File Name: emFile_1_MMC_HW_SPI.c
   3:Generated_Source\PSoC5/emFile_1_MMC_HW_SPI.c **** * Version 1.20
   4:Generated_Source\PSoC5/emFile_1_MMC_HW_SPI.c **** *
   5:Generated_Source\PSoC5/emFile_1_MMC_HW_SPI.c **** * Description:
   6:Generated_Source\PSoC5/emFile_1_MMC_HW_SPI.c **** *  Contains a set of File System APIs that implements SPI mode driver operation.
   7:Generated_Source\PSoC5/emFile_1_MMC_HW_SPI.c **** *
   8:Generated_Source\PSoC5/emFile_1_MMC_HW_SPI.c **** * Note:
   9:Generated_Source\PSoC5/emFile_1_MMC_HW_SPI.c **** *
  10:Generated_Source\PSoC5/emFile_1_MMC_HW_SPI.c **** ********************************************************************************
  11:Generated_Source\PSoC5/emFile_1_MMC_HW_SPI.c **** * Copyright 2011-2012, Cypress Semiconductor Corporation.  All rights reserved.
  12:Generated_Source\PSoC5/emFile_1_MMC_HW_SPI.c **** * You may use this file only in accordance with the license, terms, conditions,
  13:Generated_Source\PSoC5/emFile_1_MMC_HW_SPI.c **** * disclaimers, and limitations in the end user license agreement accompanying
  14:Generated_Source\PSoC5/emFile_1_MMC_HW_SPI.c **** * the software package with which this file was provided.
  15:Generated_Source\PSoC5/emFile_1_MMC_HW_SPI.c **** *******************************************************************************/
  16:Generated_Source\PSoC5/emFile_1_MMC_HW_SPI.c **** 
  17:Generated_Source\PSoC5/emFile_1_MMC_HW_SPI.c **** #include "FS.h"
  18:Generated_Source\PSoC5/emFile_1_MMC_HW_SPI.c **** #include "emFile_1.h"
  19:Generated_Source\PSoC5/emFile_1_MMC_HW_SPI.c **** #include "MMC_X_HW.h"
  20:Generated_Source\PSoC5/emFile_1_MMC_HW_SPI.c **** #include "project.h"
  21:Generated_Source\PSoC5/emFile_1_MMC_HW_SPI.c **** 
  22:Generated_Source\PSoC5/emFile_1_MMC_HW_SPI.c **** 
  23:Generated_Source\PSoC5/emFile_1_MMC_HW_SPI.c **** /*********************************************************************
  24:Generated_Source\PSoC5/emFile_1_MMC_HW_SPI.c **** *             Macros
  25:Generated_Source\PSoC5/emFile_1_MMC_HW_SPI.c **** *********************************************************************/
  26:Generated_Source\PSoC5/emFile_1_MMC_HW_SPI.c **** /* in mV, example means 3.3V */
  27:Generated_Source\PSoC5/emFile_1_MMC_HW_SPI.c **** #define emFile_1_MMC_DEFAULT_SUPPLY_VOLTAGE    (3300u)
  28:Generated_Source\PSoC5/emFile_1_MMC_HW_SPI.c **** 
  29:Generated_Source\PSoC5/emFile_1_MMC_HW_SPI.c **** /* Max. startup frequency (KHz) */
  30:Generated_Source\PSoC5/emFile_1_MMC_HW_SPI.c **** #define emFile_1_STARTUP_FREQ                   (400u)
  31:Generated_Source\PSoC5/emFile_1_MMC_HW_SPI.c **** 
ARM GAS  C:\Users\Nathan\AppData\Local\Temp\cc67vpvF.s 			page 2


  32:Generated_Source\PSoC5/emFile_1_MMC_HW_SPI.c **** 
  33:Generated_Source\PSoC5/emFile_1_MMC_HW_SPI.c **** /*********************************************************************
  34:Generated_Source\PSoC5/emFile_1_MMC_HW_SPI.c **** *       Static data
  35:Generated_Source\PSoC5/emFile_1_MMC_HW_SPI.c **** *********************************************************************/
  36:Generated_Source\PSoC5/emFile_1_MMC_HW_SPI.c **** 
  37:Generated_Source\PSoC5/emFile_1_MMC_HW_SPI.c **** static char emFile_1_isInited0;
  38:Generated_Source\PSoC5/emFile_1_MMC_HW_SPI.c **** 
  39:Generated_Source\PSoC5/emFile_1_MMC_HW_SPI.c **** #if (emFile_1_NUMBER_SD_CARDS >= 2u)
  40:Generated_Source\PSoC5/emFile_1_MMC_HW_SPI.c **** 
  41:Generated_Source\PSoC5/emFile_1_MMC_HW_SPI.c ****     static char emFile_1_isInited1;
  42:Generated_Source\PSoC5/emFile_1_MMC_HW_SPI.c **** 
  43:Generated_Source\PSoC5/emFile_1_MMC_HW_SPI.c **** #endif /* (emFile_1_NUMBER_SD_CARDS >= 2u) */
  44:Generated_Source\PSoC5/emFile_1_MMC_HW_SPI.c **** 
  45:Generated_Source\PSoC5/emFile_1_MMC_HW_SPI.c **** #if (emFile_1_NUMBER_SD_CARDS >= 3u)
  46:Generated_Source\PSoC5/emFile_1_MMC_HW_SPI.c **** 
  47:Generated_Source\PSoC5/emFile_1_MMC_HW_SPI.c ****     static char emFile_1_isInited2;
  48:Generated_Source\PSoC5/emFile_1_MMC_HW_SPI.c **** 
  49:Generated_Source\PSoC5/emFile_1_MMC_HW_SPI.c **** #endif /* (emFile_1_NUMBER_SD_CARDS >= 3u) */
  50:Generated_Source\PSoC5/emFile_1_MMC_HW_SPI.c **** 
  51:Generated_Source\PSoC5/emFile_1_MMC_HW_SPI.c **** #if (emFile_1_NUMBER_SD_CARDS == 4u)
  52:Generated_Source\PSoC5/emFile_1_MMC_HW_SPI.c **** 
  53:Generated_Source\PSoC5/emFile_1_MMC_HW_SPI.c ****     static char emFile_1_isInited3;
  54:Generated_Source\PSoC5/emFile_1_MMC_HW_SPI.c **** 
  55:Generated_Source\PSoC5/emFile_1_MMC_HW_SPI.c **** #endif /* (emFile_1_NUMBER_SD_CARDS == 4u) */
  56:Generated_Source\PSoC5/emFile_1_MMC_HW_SPI.c **** 
  57:Generated_Source\PSoC5/emFile_1_MMC_HW_SPI.c **** 
  58:Generated_Source\PSoC5/emFile_1_MMC_HW_SPI.c **** /*******************************************************************************
  59:Generated_Source\PSoC5/emFile_1_MMC_HW_SPI.c **** * Function Name: emFile_1_Init
  60:Generated_Source\PSoC5/emFile_1_MMC_HW_SPI.c **** ********************************************************************************
  61:Generated_Source\PSoC5/emFile_1_MMC_HW_SPI.c **** *
  62:Generated_Source\PSoC5/emFile_1_MMC_HW_SPI.c **** * Summary:
  63:Generated_Source\PSoC5/emFile_1_MMC_HW_SPI.c **** *  Initialize SPI Masters.
  64:Generated_Source\PSoC5/emFile_1_MMC_HW_SPI.c **** *
  65:Generated_Source\PSoC5/emFile_1_MMC_HW_SPI.c **** * Parameters:
  66:Generated_Source\PSoC5/emFile_1_MMC_HW_SPI.c **** *  Unit - Unit (SPIM) number.
  67:Generated_Source\PSoC5/emFile_1_MMC_HW_SPI.c **** *
  68:Generated_Source\PSoC5/emFile_1_MMC_HW_SPI.c **** * Return:
  69:Generated_Source\PSoC5/emFile_1_MMC_HW_SPI.c **** *  None
  70:Generated_Source\PSoC5/emFile_1_MMC_HW_SPI.c **** *
  71:Generated_Source\PSoC5/emFile_1_MMC_HW_SPI.c **** * Reentrant:
  72:Generated_Source\PSoC5/emFile_1_MMC_HW_SPI.c **** *  No
  73:Generated_Source\PSoC5/emFile_1_MMC_HW_SPI.c **** *
  74:Generated_Source\PSoC5/emFile_1_MMC_HW_SPI.c **** *******************************************************************************/
  75:Generated_Source\PSoC5/emFile_1_MMC_HW_SPI.c **** static void emFile_1_Init(U8 Unit) CYREENTRANT
  76:Generated_Source\PSoC5/emFile_1_MMC_HW_SPI.c **** {
  27              		.loc 1 76 0
  28              		.cfi_startproc
  29              		@ args = 0, pretend = 0, frame = 0
  30              		@ frame_needed = 0, uses_anonymous_args = 0
  31              	.LVL0:
  32 0000 10B5     		push	{r4, lr}
  33              		.cfi_def_cfa_offset 8
  34              		.cfi_offset 4, -8
  35              		.cfi_offset 14, -4
  77:Generated_Source\PSoC5/emFile_1_MMC_HW_SPI.c ****     switch(Unit)
  36              		.loc 1 77 0
  37 0002 80B9     		cbnz	r0, .L5
ARM GAS  C:\Users\Nathan\AppData\Local\Temp\cc67vpvF.s 			page 3


  78:Generated_Source\PSoC5/emFile_1_MMC_HW_SPI.c ****     {
  79:Generated_Source\PSoC5/emFile_1_MMC_HW_SPI.c ****     case 0u:
  80:Generated_Source\PSoC5/emFile_1_MMC_HW_SPI.c **** 
  81:Generated_Source\PSoC5/emFile_1_MMC_HW_SPI.c ****         if (emFile_1_isInited0 == 0u)
  38              		.loc 1 81 0
  39 0004 104B     		ldr	r3, .L7
  40 0006 1B78     		ldrb	r3, [r3]	@ zero_extendqisi2
  41 0008 EBB9     		cbnz	r3, .L1
  82:Generated_Source\PSoC5/emFile_1_MMC_HW_SPI.c ****         {
  83:Generated_Source\PSoC5/emFile_1_MMC_HW_SPI.c ****             /* Indicate that SPI 0 was initialized */
  84:Generated_Source\PSoC5/emFile_1_MMC_HW_SPI.c ****             emFile_1_isInited0 = 1u;
  42              		.loc 1 84 0
  43 000a 0124     		movs	r4, #1
  44 000c 0E4B     		ldr	r3, .L7
  45 000e 1C70     		strb	r4, [r3]
  85:Generated_Source\PSoC5/emFile_1_MMC_HW_SPI.c **** 
  86:Generated_Source\PSoC5/emFile_1_MMC_HW_SPI.c ****             /* Initialize SPI */
  87:Generated_Source\PSoC5/emFile_1_MMC_HW_SPI.c **** 
  88:Generated_Source\PSoC5/emFile_1_MMC_HW_SPI.c ****             /* Stop the clock to set a required divider */
  89:Generated_Source\PSoC5/emFile_1_MMC_HW_SPI.c ****             emFile_1_Clock_1_Stop();
  46              		.loc 1 89 0
  47 0010 FFF7FEFF 		bl	emFile_1_Clock_1_Stop
  48              	.LVL1:
  90:Generated_Source\PSoC5/emFile_1_MMC_HW_SPI.c **** 
  91:Generated_Source\PSoC5/emFile_1_MMC_HW_SPI.c ****             /* Set the inital clock frequency to 400 KHz */
  92:Generated_Source\PSoC5/emFile_1_MMC_HW_SPI.c ****             emFile_1_Clock_1_SetDividerValue(BCLK__BUS_CLK__KHZ/emFile_1_STARTUP_FREQ);
  49              		.loc 1 92 0
  50 0014 2146     		mov	r1, r4
  51 0016 3B20     		movs	r0, #59
  52 0018 FFF7FEFF 		bl	emFile_1_Clock_1_SetDividerRegister
  53              	.LVL2:
  93:Generated_Source\PSoC5/emFile_1_MMC_HW_SPI.c **** 
  94:Generated_Source\PSoC5/emFile_1_MMC_HW_SPI.c ****             /* Start the clock */
  95:Generated_Source\PSoC5/emFile_1_MMC_HW_SPI.c ****             emFile_1_Clock_1_Start();
  54              		.loc 1 95 0
  55 001c FFF7FEFF 		bl	emFile_1_Clock_1_Start
  56              	.LVL3:
  96:Generated_Source\PSoC5/emFile_1_MMC_HW_SPI.c **** 
  97:Generated_Source\PSoC5/emFile_1_MMC_HW_SPI.c ****             /* Start SPI 0 */
  98:Generated_Source\PSoC5/emFile_1_MMC_HW_SPI.c ****             emFile_1_SPI0_Start();
  57              		.loc 1 98 0
  58 0020 FFF7FEFF 		bl	emFile_1_SPI0_Start
  59              	.LVL4:
  60 0024 10BD     		pop	{r4, pc}
  61              	.LVL5:
  62              	.L5:
  99:Generated_Source\PSoC5/emFile_1_MMC_HW_SPI.c ****         }
 100:Generated_Source\PSoC5/emFile_1_MMC_HW_SPI.c **** 
 101:Generated_Source\PSoC5/emFile_1_MMC_HW_SPI.c ****         break;
 102:Generated_Source\PSoC5/emFile_1_MMC_HW_SPI.c **** 
 103:Generated_Source\PSoC5/emFile_1_MMC_HW_SPI.c ****         #if (emFile_1_NUMBER_SD_CARDS >= 2u)
 104:Generated_Source\PSoC5/emFile_1_MMC_HW_SPI.c **** 
 105:Generated_Source\PSoC5/emFile_1_MMC_HW_SPI.c ****             case 1u:
 106:Generated_Source\PSoC5/emFile_1_MMC_HW_SPI.c **** 
 107:Generated_Source\PSoC5/emFile_1_MMC_HW_SPI.c ****                 if (emFile_1_isInited1 == 0u)
 108:Generated_Source\PSoC5/emFile_1_MMC_HW_SPI.c ****                 {
 109:Generated_Source\PSoC5/emFile_1_MMC_HW_SPI.c ****                     /* Indicate that SPI 1 was initialized */
ARM GAS  C:\Users\Nathan\AppData\Local\Temp\cc67vpvF.s 			page 4


 110:Generated_Source\PSoC5/emFile_1_MMC_HW_SPI.c ****                     emFile_1_isInited1 = 1u;
 111:Generated_Source\PSoC5/emFile_1_MMC_HW_SPI.c **** 
 112:Generated_Source\PSoC5/emFile_1_MMC_HW_SPI.c ****                     /* Stop the clock to set a required divider */
 113:Generated_Source\PSoC5/emFile_1_MMC_HW_SPI.c ****                     emFile_1_Clock_2_Stop();
 114:Generated_Source\PSoC5/emFile_1_MMC_HW_SPI.c **** 
 115:Generated_Source\PSoC5/emFile_1_MMC_HW_SPI.c ****                     /* Set the inital clock frequency to 400 KHz */
 116:Generated_Source\PSoC5/emFile_1_MMC_HW_SPI.c ****                     emFile_1_Clock_2_SetDividerValue(BCLK__BUS_CLK__KHZ/emFile_1_STARTUP_FREQ);
 117:Generated_Source\PSoC5/emFile_1_MMC_HW_SPI.c **** 
 118:Generated_Source\PSoC5/emFile_1_MMC_HW_SPI.c ****                     /* Start the clock */
 119:Generated_Source\PSoC5/emFile_1_MMC_HW_SPI.c ****                     emFile_1_Clock_2_Start();
 120:Generated_Source\PSoC5/emFile_1_MMC_HW_SPI.c **** 
 121:Generated_Source\PSoC5/emFile_1_MMC_HW_SPI.c ****                     /* Start SPI 1 */
 122:Generated_Source\PSoC5/emFile_1_MMC_HW_SPI.c ****                     emFile_1_SPI1_Start();
 123:Generated_Source\PSoC5/emFile_1_MMC_HW_SPI.c ****                 }
 124:Generated_Source\PSoC5/emFile_1_MMC_HW_SPI.c **** 
 125:Generated_Source\PSoC5/emFile_1_MMC_HW_SPI.c ****                 break;
 126:Generated_Source\PSoC5/emFile_1_MMC_HW_SPI.c **** 
 127:Generated_Source\PSoC5/emFile_1_MMC_HW_SPI.c ****         #endif /* (emFile_1_NUMBER_SD_CARDS >= 2u) */
 128:Generated_Source\PSoC5/emFile_1_MMC_HW_SPI.c **** 
 129:Generated_Source\PSoC5/emFile_1_MMC_HW_SPI.c ****         #if (emFile_1_NUMBER_SD_CARDS >= 3u)
 130:Generated_Source\PSoC5/emFile_1_MMC_HW_SPI.c **** 
 131:Generated_Source\PSoC5/emFile_1_MMC_HW_SPI.c ****             case 2u:
 132:Generated_Source\PSoC5/emFile_1_MMC_HW_SPI.c **** 
 133:Generated_Source\PSoC5/emFile_1_MMC_HW_SPI.c ****                 if (emFile_1_isInited2 == 0u)
 134:Generated_Source\PSoC5/emFile_1_MMC_HW_SPI.c ****                 {
 135:Generated_Source\PSoC5/emFile_1_MMC_HW_SPI.c ****                     /* Indicate that SPI 2 was initialized */
 136:Generated_Source\PSoC5/emFile_1_MMC_HW_SPI.c ****                     emFile_1_isInited2 = 1u;
 137:Generated_Source\PSoC5/emFile_1_MMC_HW_SPI.c **** 
 138:Generated_Source\PSoC5/emFile_1_MMC_HW_SPI.c ****                     /* Stop the clock to set a required divider */
 139:Generated_Source\PSoC5/emFile_1_MMC_HW_SPI.c ****                     emFile_1_Clock_3_Stop();
 140:Generated_Source\PSoC5/emFile_1_MMC_HW_SPI.c **** 
 141:Generated_Source\PSoC5/emFile_1_MMC_HW_SPI.c ****                     /* Set the inital clock frequency to 400 KHz */
 142:Generated_Source\PSoC5/emFile_1_MMC_HW_SPI.c ****                     emFile_1_Clock_3_SetDividerValue(BCLK__BUS_CLK__KHZ/emFile_1_STARTUP_FREQ);
 143:Generated_Source\PSoC5/emFile_1_MMC_HW_SPI.c **** 
 144:Generated_Source\PSoC5/emFile_1_MMC_HW_SPI.c ****                     /* Start the clock */
 145:Generated_Source\PSoC5/emFile_1_MMC_HW_SPI.c ****                     emFile_1_Clock_3_Start();
 146:Generated_Source\PSoC5/emFile_1_MMC_HW_SPI.c **** 
 147:Generated_Source\PSoC5/emFile_1_MMC_HW_SPI.c ****                     /* Start SPI 2 */
 148:Generated_Source\PSoC5/emFile_1_MMC_HW_SPI.c ****                     emFile_1_SPI2_Start();
 149:Generated_Source\PSoC5/emFile_1_MMC_HW_SPI.c ****                 }
 150:Generated_Source\PSoC5/emFile_1_MMC_HW_SPI.c **** 
 151:Generated_Source\PSoC5/emFile_1_MMC_HW_SPI.c ****                 break;
 152:Generated_Source\PSoC5/emFile_1_MMC_HW_SPI.c **** 
 153:Generated_Source\PSoC5/emFile_1_MMC_HW_SPI.c ****         #endif /* (emFile_1_NUMBER_SD_CARDS >= 3u) */
 154:Generated_Source\PSoC5/emFile_1_MMC_HW_SPI.c **** 
 155:Generated_Source\PSoC5/emFile_1_MMC_HW_SPI.c ****         #if (emFile_1_NUMBER_SD_CARDS == 4u)
 156:Generated_Source\PSoC5/emFile_1_MMC_HW_SPI.c **** 
 157:Generated_Source\PSoC5/emFile_1_MMC_HW_SPI.c ****             case 3u:
 158:Generated_Source\PSoC5/emFile_1_MMC_HW_SPI.c **** 
 159:Generated_Source\PSoC5/emFile_1_MMC_HW_SPI.c ****                 if (emFile_1_isInited3 == 0u)
 160:Generated_Source\PSoC5/emFile_1_MMC_HW_SPI.c ****                 {
 161:Generated_Source\PSoC5/emFile_1_MMC_HW_SPI.c ****                     /* Indicate that SPI 3 was initialized */
 162:Generated_Source\PSoC5/emFile_1_MMC_HW_SPI.c ****                     emFile_1_isInited3 = 1u;
 163:Generated_Source\PSoC5/emFile_1_MMC_HW_SPI.c **** 
 164:Generated_Source\PSoC5/emFile_1_MMC_HW_SPI.c ****                     /* Stop the clock to set a required divider */
 165:Generated_Source\PSoC5/emFile_1_MMC_HW_SPI.c ****                     emFile_1_Clock_4_Stop();
 166:Generated_Source\PSoC5/emFile_1_MMC_HW_SPI.c **** 
ARM GAS  C:\Users\Nathan\AppData\Local\Temp\cc67vpvF.s 			page 5


 167:Generated_Source\PSoC5/emFile_1_MMC_HW_SPI.c ****                     /* Set the inital clock frequency to 400 KHz */
 168:Generated_Source\PSoC5/emFile_1_MMC_HW_SPI.c ****                     emFile_1_Clock_4_SetDividerValue(BCLK__BUS_CLK__KHZ/emFile_1_STARTUP_FREQ);
 169:Generated_Source\PSoC5/emFile_1_MMC_HW_SPI.c **** 
 170:Generated_Source\PSoC5/emFile_1_MMC_HW_SPI.c ****                     /* Start the clock */
 171:Generated_Source\PSoC5/emFile_1_MMC_HW_SPI.c ****                     emFile_1_Clock_4_Start();
 172:Generated_Source\PSoC5/emFile_1_MMC_HW_SPI.c **** 
 173:Generated_Source\PSoC5/emFile_1_MMC_HW_SPI.c ****                     /* Start SPI 3 */
 174:Generated_Source\PSoC5/emFile_1_MMC_HW_SPI.c ****                     emFile_1_SPI3_Start();
 175:Generated_Source\PSoC5/emFile_1_MMC_HW_SPI.c ****                 }
 176:Generated_Source\PSoC5/emFile_1_MMC_HW_SPI.c **** 
 177:Generated_Source\PSoC5/emFile_1_MMC_HW_SPI.c ****                 break;
 178:Generated_Source\PSoC5/emFile_1_MMC_HW_SPI.c **** 
 179:Generated_Source\PSoC5/emFile_1_MMC_HW_SPI.c ****         #endif /* (emFile_1_NUMBER_SD_CARDS == 4u) */
 180:Generated_Source\PSoC5/emFile_1_MMC_HW_SPI.c **** 
 181:Generated_Source\PSoC5/emFile_1_MMC_HW_SPI.c ****     default:
 182:Generated_Source\PSoC5/emFile_1_MMC_HW_SPI.c **** 
 183:Generated_Source\PSoC5/emFile_1_MMC_HW_SPI.c ****         if (emFile_1_isInited0 == 0u)
  63              		.loc 1 183 0
  64 0026 084B     		ldr	r3, .L7
  65 0028 1B78     		ldrb	r3, [r3]	@ zero_extendqisi2
  66 002a 63B9     		cbnz	r3, .L1
 184:Generated_Source\PSoC5/emFile_1_MMC_HW_SPI.c ****         {
 185:Generated_Source\PSoC5/emFile_1_MMC_HW_SPI.c ****             /* Indicate that SPI 0 was initialized */
 186:Generated_Source\PSoC5/emFile_1_MMC_HW_SPI.c ****             emFile_1_isInited0 = 1u;
  67              		.loc 1 186 0
  68 002c 0124     		movs	r4, #1
  69 002e 064B     		ldr	r3, .L7
  70 0030 1C70     		strb	r4, [r3]
 187:Generated_Source\PSoC5/emFile_1_MMC_HW_SPI.c **** 
 188:Generated_Source\PSoC5/emFile_1_MMC_HW_SPI.c ****             /* Stop the clock to set a required divider */
 189:Generated_Source\PSoC5/emFile_1_MMC_HW_SPI.c ****             emFile_1_Clock_1_Stop();
  71              		.loc 1 189 0
  72 0032 FFF7FEFF 		bl	emFile_1_Clock_1_Stop
  73              	.LVL6:
 190:Generated_Source\PSoC5/emFile_1_MMC_HW_SPI.c **** 
 191:Generated_Source\PSoC5/emFile_1_MMC_HW_SPI.c ****             /* Set the inital clock frequency to 400 KHz */
 192:Generated_Source\PSoC5/emFile_1_MMC_HW_SPI.c ****             emFile_1_Clock_1_SetDividerValue(BCLK__BUS_CLK__KHZ/emFile_1_STARTUP_FREQ);
  74              		.loc 1 192 0
  75 0036 2146     		mov	r1, r4
  76 0038 3B20     		movs	r0, #59
  77 003a FFF7FEFF 		bl	emFile_1_Clock_1_SetDividerRegister
  78              	.LVL7:
 193:Generated_Source\PSoC5/emFile_1_MMC_HW_SPI.c **** 
 194:Generated_Source\PSoC5/emFile_1_MMC_HW_SPI.c ****             /* Start the clock */
 195:Generated_Source\PSoC5/emFile_1_MMC_HW_SPI.c ****             emFile_1_Clock_1_Start();
  79              		.loc 1 195 0
  80 003e FFF7FEFF 		bl	emFile_1_Clock_1_Start
  81              	.LVL8:
 196:Generated_Source\PSoC5/emFile_1_MMC_HW_SPI.c **** 
 197:Generated_Source\PSoC5/emFile_1_MMC_HW_SPI.c ****             /* Start SPI 0 */
 198:Generated_Source\PSoC5/emFile_1_MMC_HW_SPI.c ****             emFile_1_SPI0_Start();
  82              		.loc 1 198 0
  83 0042 FFF7FEFF 		bl	emFile_1_SPI0_Start
  84              	.LVL9:
  85              	.L1:
  86 0046 10BD     		pop	{r4, pc}
  87              	.L8:
ARM GAS  C:\Users\Nathan\AppData\Local\Temp\cc67vpvF.s 			page 6


  88              		.align	2
  89              	.L7:
  90 0048 00000000 		.word	.LANCHOR0
  91              		.cfi_endproc
  92              	.LFE63:
  93              		.size	emFile_1_Init, .-emFile_1_Init
  94              		.section	.text.emFile_1_ReadWriteSPI,"ax",%progbits
  95              		.align	2
  96              		.thumb
  97              		.thumb_func
  98              		.type	emFile_1_ReadWriteSPI, %function
  99              	emFile_1_ReadWriteSPI:
 100              	.LFB64:
 199:Generated_Source\PSoC5/emFile_1_MMC_HW_SPI.c ****         }
 200:Generated_Source\PSoC5/emFile_1_MMC_HW_SPI.c ****         
 201:Generated_Source\PSoC5/emFile_1_MMC_HW_SPI.c ****         break;
 202:Generated_Source\PSoC5/emFile_1_MMC_HW_SPI.c ****       }
 203:Generated_Source\PSoC5/emFile_1_MMC_HW_SPI.c **** }
 204:Generated_Source\PSoC5/emFile_1_MMC_HW_SPI.c **** 
 205:Generated_Source\PSoC5/emFile_1_MMC_HW_SPI.c **** 
 206:Generated_Source\PSoC5/emFile_1_MMC_HW_SPI.c **** /*******************************************************************************
 207:Generated_Source\PSoC5/emFile_1_MMC_HW_SPI.c **** * Function Name: emFile_1_ReadWriteSPI
 208:Generated_Source\PSoC5/emFile_1_MMC_HW_SPI.c **** ********************************************************************************
 209:Generated_Source\PSoC5/emFile_1_MMC_HW_SPI.c **** *
 210:Generated_Source\PSoC5/emFile_1_MMC_HW_SPI.c **** * Summary:
 211:Generated_Source\PSoC5/emFile_1_MMC_HW_SPI.c **** *  Reads and Writes data via SPI.
 212:Generated_Source\PSoC5/emFile_1_MMC_HW_SPI.c **** *
 213:Generated_Source\PSoC5/emFile_1_MMC_HW_SPI.c **** * Parameters:
 214:Generated_Source\PSoC5/emFile_1_MMC_HW_SPI.c **** *  Unit - Unit number;
 215:Generated_Source\PSoC5/emFile_1_MMC_HW_SPI.c **** *  Data - data to be written.
 216:Generated_Source\PSoC5/emFile_1_MMC_HW_SPI.c **** *
 217:Generated_Source\PSoC5/emFile_1_MMC_HW_SPI.c **** * Return:
 218:Generated_Source\PSoC5/emFile_1_MMC_HW_SPI.c **** *  Data received from SD card.
 219:Generated_Source\PSoC5/emFile_1_MMC_HW_SPI.c **** *
 220:Generated_Source\PSoC5/emFile_1_MMC_HW_SPI.c **** * Reentrant:
 221:Generated_Source\PSoC5/emFile_1_MMC_HW_SPI.c **** *  No
 222:Generated_Source\PSoC5/emFile_1_MMC_HW_SPI.c **** *
 223:Generated_Source\PSoC5/emFile_1_MMC_HW_SPI.c **** *******************************************************************************/
 224:Generated_Source\PSoC5/emFile_1_MMC_HW_SPI.c **** static U8 emFile_1_ReadWriteSPI(U8 Unit, U8 Data) CYREENTRANT
 225:Generated_Source\PSoC5/emFile_1_MMC_HW_SPI.c **** {
 101              		.loc 1 225 0
 102              		.cfi_startproc
 103              		@ args = 0, pretend = 0, frame = 0
 104              		@ frame_needed = 0, uses_anonymous_args = 0
 105              	.LVL10:
 106 0000 08B5     		push	{r3, lr}
 107              		.cfi_def_cfa_offset 8
 108              		.cfi_offset 3, -8
 109              		.cfi_offset 14, -4
 226:Generated_Source\PSoC5/emFile_1_MMC_HW_SPI.c ****     U8 spiData;
 227:Generated_Source\PSoC5/emFile_1_MMC_HW_SPI.c **** 
 228:Generated_Source\PSoC5/emFile_1_MMC_HW_SPI.c ****     switch(Unit)
 110              		.loc 1 228 0
 111 0002 50B9     		cbnz	r0, .L15
 229:Generated_Source\PSoC5/emFile_1_MMC_HW_SPI.c ****     {
 230:Generated_Source\PSoC5/emFile_1_MMC_HW_SPI.c ****     case 0u:
 231:Generated_Source\PSoC5/emFile_1_MMC_HW_SPI.c **** 
ARM GAS  C:\Users\Nathan\AppData\Local\Temp\cc67vpvF.s 			page 7


 232:Generated_Source\PSoC5/emFile_1_MMC_HW_SPI.c ****         /* Send Data */
 233:Generated_Source\PSoC5/emFile_1_MMC_HW_SPI.c ****         emFile_1_SPI0_WriteTxData(Data);
 112              		.loc 1 233 0
 113 0004 0846     		mov	r0, r1
 114              	.LVL11:
 115 0006 FFF7FEFF 		bl	emFile_1_SPI0_WriteTxData
 116              	.LVL12:
 117              	.L12:
 234:Generated_Source\PSoC5/emFile_1_MMC_HW_SPI.c **** 
 235:Generated_Source\PSoC5/emFile_1_MMC_HW_SPI.c ****         /* Wait until all bits are shifted */
 236:Generated_Source\PSoC5/emFile_1_MMC_HW_SPI.c ****         while (0u == (emFile_1_SPI0_STS_SPI_DONE & emFile_1_SPI0_ReadTxStatus()));
 118              		.loc 1 236 0 discriminator 1
 119 000a FFF7FEFF 		bl	emFile_1_SPI0_ReadTxStatus
 120              	.LVL13:
 121 000e 10F0010F 		tst	r0, #1
 122 0012 FAD0     		beq	.L12
 237:Generated_Source\PSoC5/emFile_1_MMC_HW_SPI.c **** 
 238:Generated_Source\PSoC5/emFile_1_MMC_HW_SPI.c ****         /* Read data */
 239:Generated_Source\PSoC5/emFile_1_MMC_HW_SPI.c ****         spiData = emFile_1_SPI0_ReadRxData();
 123              		.loc 1 239 0
 124 0014 FFF7FEFF 		bl	emFile_1_SPI0_ReadRxData
 125              	.LVL14:
 240:Generated_Source\PSoC5/emFile_1_MMC_HW_SPI.c **** 
 241:Generated_Source\PSoC5/emFile_1_MMC_HW_SPI.c ****         break;
 126              		.loc 1 241 0
 127 0018 08BD     		pop	{r3, pc}
 128              	.LVL15:
 129              	.L15:
 242:Generated_Source\PSoC5/emFile_1_MMC_HW_SPI.c **** 
 243:Generated_Source\PSoC5/emFile_1_MMC_HW_SPI.c ****     #if (emFile_1_NUMBER_SD_CARDS >= 2u)
 244:Generated_Source\PSoC5/emFile_1_MMC_HW_SPI.c **** 
 245:Generated_Source\PSoC5/emFile_1_MMC_HW_SPI.c ****         case 1u:
 246:Generated_Source\PSoC5/emFile_1_MMC_HW_SPI.c **** 
 247:Generated_Source\PSoC5/emFile_1_MMC_HW_SPI.c ****             /* Send Data */
 248:Generated_Source\PSoC5/emFile_1_MMC_HW_SPI.c ****             emFile_1_SPI1_WriteTxData(Data);
 249:Generated_Source\PSoC5/emFile_1_MMC_HW_SPI.c **** 
 250:Generated_Source\PSoC5/emFile_1_MMC_HW_SPI.c ****             /* Wait until all bits are shifted */
 251:Generated_Source\PSoC5/emFile_1_MMC_HW_SPI.c ****             while (0u == (emFile_1_SPI1_STS_SPI_DONE & emFile_1_SPI1_ReadTxStatus()));
 252:Generated_Source\PSoC5/emFile_1_MMC_HW_SPI.c **** 
 253:Generated_Source\PSoC5/emFile_1_MMC_HW_SPI.c ****             /* Read data */
 254:Generated_Source\PSoC5/emFile_1_MMC_HW_SPI.c ****             spiData = emFile_1_SPI1_ReadRxData();
 255:Generated_Source\PSoC5/emFile_1_MMC_HW_SPI.c **** 
 256:Generated_Source\PSoC5/emFile_1_MMC_HW_SPI.c ****             break;
 257:Generated_Source\PSoC5/emFile_1_MMC_HW_SPI.c **** 
 258:Generated_Source\PSoC5/emFile_1_MMC_HW_SPI.c ****     #endif /* (emFile_1_NUMBER_SD_CARDS >= 2u) */
 259:Generated_Source\PSoC5/emFile_1_MMC_HW_SPI.c **** 
 260:Generated_Source\PSoC5/emFile_1_MMC_HW_SPI.c ****     #if (emFile_1_NUMBER_SD_CARDS >= 3u)
 261:Generated_Source\PSoC5/emFile_1_MMC_HW_SPI.c **** 
 262:Generated_Source\PSoC5/emFile_1_MMC_HW_SPI.c ****         case 2u:
 263:Generated_Source\PSoC5/emFile_1_MMC_HW_SPI.c **** 
 264:Generated_Source\PSoC5/emFile_1_MMC_HW_SPI.c ****             /* Send Data */
 265:Generated_Source\PSoC5/emFile_1_MMC_HW_SPI.c ****             emFile_1_SPI2_WriteTxData(Data);
 266:Generated_Source\PSoC5/emFile_1_MMC_HW_SPI.c **** 
 267:Generated_Source\PSoC5/emFile_1_MMC_HW_SPI.c ****             /* Wait until all bits are shifted */
 268:Generated_Source\PSoC5/emFile_1_MMC_HW_SPI.c ****             while (0u == (emFile_1_SPI2_STS_SPI_DONE & emFile_1_SPI2_ReadTxStatus()));
 269:Generated_Source\PSoC5/emFile_1_MMC_HW_SPI.c **** 
 270:Generated_Source\PSoC5/emFile_1_MMC_HW_SPI.c ****             /* Read data */
ARM GAS  C:\Users\Nathan\AppData\Local\Temp\cc67vpvF.s 			page 8


 271:Generated_Source\PSoC5/emFile_1_MMC_HW_SPI.c ****             spiData = emFile_1_SPI2_ReadRxData();
 272:Generated_Source\PSoC5/emFile_1_MMC_HW_SPI.c **** 
 273:Generated_Source\PSoC5/emFile_1_MMC_HW_SPI.c ****             break;
 274:Generated_Source\PSoC5/emFile_1_MMC_HW_SPI.c **** 
 275:Generated_Source\PSoC5/emFile_1_MMC_HW_SPI.c ****     #endif /* (emFile_1_NUMBER_SD_CARDS >= 2u) */
 276:Generated_Source\PSoC5/emFile_1_MMC_HW_SPI.c **** 
 277:Generated_Source\PSoC5/emFile_1_MMC_HW_SPI.c ****     #if (emFile_1_NUMBER_SD_CARDS >= 4u)
 278:Generated_Source\PSoC5/emFile_1_MMC_HW_SPI.c **** 
 279:Generated_Source\PSoC5/emFile_1_MMC_HW_SPI.c ****         case 3u:
 280:Generated_Source\PSoC5/emFile_1_MMC_HW_SPI.c **** 
 281:Generated_Source\PSoC5/emFile_1_MMC_HW_SPI.c ****             /* Send Data */
 282:Generated_Source\PSoC5/emFile_1_MMC_HW_SPI.c ****             emFile_1_SPI3_WriteTxData(Data);
 283:Generated_Source\PSoC5/emFile_1_MMC_HW_SPI.c **** 
 284:Generated_Source\PSoC5/emFile_1_MMC_HW_SPI.c ****             /* Wait until all bits are shifted */
 285:Generated_Source\PSoC5/emFile_1_MMC_HW_SPI.c ****             while (0u == (emFile_1_SPI3_STS_SPI_DONE & emFile_1_SPI3_ReadTxStatus()));
 286:Generated_Source\PSoC5/emFile_1_MMC_HW_SPI.c **** 
 287:Generated_Source\PSoC5/emFile_1_MMC_HW_SPI.c ****             /* Read data */
 288:Generated_Source\PSoC5/emFile_1_MMC_HW_SPI.c ****             spiData = emFile_1_SPI3_ReadRxData();
 289:Generated_Source\PSoC5/emFile_1_MMC_HW_SPI.c **** 
 290:Generated_Source\PSoC5/emFile_1_MMC_HW_SPI.c ****             break;
 291:Generated_Source\PSoC5/emFile_1_MMC_HW_SPI.c **** 
 292:Generated_Source\PSoC5/emFile_1_MMC_HW_SPI.c ****     #endif /* (emFile_1_NUMBER_SD_CARDS >= 4u) */
 293:Generated_Source\PSoC5/emFile_1_MMC_HW_SPI.c **** 
 294:Generated_Source\PSoC5/emFile_1_MMC_HW_SPI.c ****     default:
 295:Generated_Source\PSoC5/emFile_1_MMC_HW_SPI.c **** 
 296:Generated_Source\PSoC5/emFile_1_MMC_HW_SPI.c ****         /* Send Data */
 297:Generated_Source\PSoC5/emFile_1_MMC_HW_SPI.c ****         emFile_1_SPI0_WriteTxData(Data);
 130              		.loc 1 297 0
 131 001a 0846     		mov	r0, r1
 132              	.LVL16:
 133 001c FFF7FEFF 		bl	emFile_1_SPI0_WriteTxData
 134              	.LVL17:
 135              	.L14:
 298:Generated_Source\PSoC5/emFile_1_MMC_HW_SPI.c **** 
 299:Generated_Source\PSoC5/emFile_1_MMC_HW_SPI.c ****         /* Wait until all bits are shifted */
 300:Generated_Source\PSoC5/emFile_1_MMC_HW_SPI.c ****         while (0u == (emFile_1_SPI0_STS_SPI_DONE & emFile_1_SPI0_ReadTxStatus()));
 136              		.loc 1 300 0 discriminator 1
 137 0020 FFF7FEFF 		bl	emFile_1_SPI0_ReadTxStatus
 138              	.LVL18:
 139 0024 10F0010F 		tst	r0, #1
 140 0028 FAD0     		beq	.L14
 301:Generated_Source\PSoC5/emFile_1_MMC_HW_SPI.c **** 
 302:Generated_Source\PSoC5/emFile_1_MMC_HW_SPI.c ****         /* Read data */
 303:Generated_Source\PSoC5/emFile_1_MMC_HW_SPI.c ****         spiData = emFile_1_SPI0_ReadRxData();
 141              		.loc 1 303 0
 142 002a FFF7FEFF 		bl	emFile_1_SPI0_ReadRxData
 143              	.LVL19:
 304:Generated_Source\PSoC5/emFile_1_MMC_HW_SPI.c ****         
 305:Generated_Source\PSoC5/emFile_1_MMC_HW_SPI.c ****         break;
 306:Generated_Source\PSoC5/emFile_1_MMC_HW_SPI.c ****     }
 307:Generated_Source\PSoC5/emFile_1_MMC_HW_SPI.c **** 
 308:Generated_Source\PSoC5/emFile_1_MMC_HW_SPI.c ****     return(spiData);
 309:Generated_Source\PSoC5/emFile_1_MMC_HW_SPI.c **** }
 144              		.loc 1 309 0
 145 002e 08BD     		pop	{r3, pc}
 146              		.cfi_endproc
 147              	.LFE64:
ARM GAS  C:\Users\Nathan\AppData\Local\Temp\cc67vpvF.s 			page 9


 148              		.size	emFile_1_ReadWriteSPI, .-emFile_1_ReadWriteSPI
 149              		.section	.text.FS_MMC_HW_X_EnableCS,"ax",%progbits
 150              		.align	2
 151              		.global	FS_MMC_HW_X_EnableCS
 152              		.thumb
 153              		.thumb_func
 154              		.type	FS_MMC_HW_X_EnableCS, %function
 155              	FS_MMC_HW_X_EnableCS:
 156              	.LFB65:
 310:Generated_Source\PSoC5/emFile_1_MMC_HW_SPI.c **** 
 311:Generated_Source\PSoC5/emFile_1_MMC_HW_SPI.c **** /*******************************************************************************
 312:Generated_Source\PSoC5/emFile_1_MMC_HW_SPI.c **** * Function Name: FS_MMC_HW_X_EnableCS
 313:Generated_Source\PSoC5/emFile_1_MMC_HW_SPI.c **** ********************************************************************************
 314:Generated_Source\PSoC5/emFile_1_MMC_HW_SPI.c **** *
 315:Generated_Source\PSoC5/emFile_1_MMC_HW_SPI.c **** * Summary:
 316:Generated_Source\PSoC5/emFile_1_MMC_HW_SPI.c **** *  FS low level function. Sets the card slot active using the
 317:Generated_Source\PSoC5/emFile_1_MMC_HW_SPI.c **** *  chip select (CS) line.
 318:Generated_Source\PSoC5/emFile_1_MMC_HW_SPI.c **** *
 319:Generated_Source\PSoC5/emFile_1_MMC_HW_SPI.c **** * Parameters:
 320:Generated_Source\PSoC5/emFile_1_MMC_HW_SPI.c **** *  Unit      - Device Index.
 321:Generated_Source\PSoC5/emFile_1_MMC_HW_SPI.c **** *
 322:Generated_Source\PSoC5/emFile_1_MMC_HW_SPI.c **** * Return:
 323:Generated_Source\PSoC5/emFile_1_MMC_HW_SPI.c **** *  None
 324:Generated_Source\PSoC5/emFile_1_MMC_HW_SPI.c **** *
 325:Generated_Source\PSoC5/emFile_1_MMC_HW_SPI.c **** * Reentrant:
 326:Generated_Source\PSoC5/emFile_1_MMC_HW_SPI.c **** *  No
 327:Generated_Source\PSoC5/emFile_1_MMC_HW_SPI.c **** *
 328:Generated_Source\PSoC5/emFile_1_MMC_HW_SPI.c **** *******************************************************************************/
 329:Generated_Source\PSoC5/emFile_1_MMC_HW_SPI.c **** void FS_MMC_HW_X_EnableCS(U8 Unit)
 330:Generated_Source\PSoC5/emFile_1_MMC_HW_SPI.c **** {
 157              		.loc 1 330 0
 158              		.cfi_startproc
 159              		@ args = 0, pretend = 0, frame = 0
 160              		@ frame_needed = 0, uses_anonymous_args = 0
 161              	.LVL20:
 162 0000 08B5     		push	{r3, lr}
 163              		.cfi_def_cfa_offset 8
 164              		.cfi_offset 3, -8
 165              		.cfi_offset 14, -4
 331:Generated_Source\PSoC5/emFile_1_MMC_HW_SPI.c ****     switch(Unit)
 166              		.loc 1 331 0
 167 0002 10B9     		cbnz	r0, .L21
 332:Generated_Source\PSoC5/emFile_1_MMC_HW_SPI.c ****     {
 333:Generated_Source\PSoC5/emFile_1_MMC_HW_SPI.c ****         case 0u:
 334:Generated_Source\PSoC5/emFile_1_MMC_HW_SPI.c **** 
 335:Generated_Source\PSoC5/emFile_1_MMC_HW_SPI.c ****             /* Set CS to 0 */
 336:Generated_Source\PSoC5/emFile_1_MMC_HW_SPI.c ****             emFile_1_SPI0_CS_Write(0u);
 168              		.loc 1 336 0
 169 0004 FFF7FEFF 		bl	emFile_1_SPI0_CS_Write
 170              	.LVL21:
 337:Generated_Source\PSoC5/emFile_1_MMC_HW_SPI.c **** 
 338:Generated_Source\PSoC5/emFile_1_MMC_HW_SPI.c ****             break;
 171              		.loc 1 338 0
 172 0008 08BD     		pop	{r3, pc}
 173              	.LVL22:
 174              	.L21:
 339:Generated_Source\PSoC5/emFile_1_MMC_HW_SPI.c **** 
ARM GAS  C:\Users\Nathan\AppData\Local\Temp\cc67vpvF.s 			page 10


 340:Generated_Source\PSoC5/emFile_1_MMC_HW_SPI.c ****         #if (emFile_1_NUMBER_SD_CARDS >= 2u)
 341:Generated_Source\PSoC5/emFile_1_MMC_HW_SPI.c **** 
 342:Generated_Source\PSoC5/emFile_1_MMC_HW_SPI.c ****             case 1u:
 343:Generated_Source\PSoC5/emFile_1_MMC_HW_SPI.c **** 
 344:Generated_Source\PSoC5/emFile_1_MMC_HW_SPI.c ****                 /* Set CS to 0 */
 345:Generated_Source\PSoC5/emFile_1_MMC_HW_SPI.c ****                 emFile_1_SPI1_CS_Write(0u);
 346:Generated_Source\PSoC5/emFile_1_MMC_HW_SPI.c **** 
 347:Generated_Source\PSoC5/emFile_1_MMC_HW_SPI.c ****                 break;
 348:Generated_Source\PSoC5/emFile_1_MMC_HW_SPI.c **** 
 349:Generated_Source\PSoC5/emFile_1_MMC_HW_SPI.c ****         #endif /* (emFile_1_NUMBER_SD_CARDS >= 2u) */
 350:Generated_Source\PSoC5/emFile_1_MMC_HW_SPI.c **** 
 351:Generated_Source\PSoC5/emFile_1_MMC_HW_SPI.c ****         #if (emFile_1_NUMBER_SD_CARDS >= 3u)
 352:Generated_Source\PSoC5/emFile_1_MMC_HW_SPI.c **** 
 353:Generated_Source\PSoC5/emFile_1_MMC_HW_SPI.c ****             case 2u:
 354:Generated_Source\PSoC5/emFile_1_MMC_HW_SPI.c **** 
 355:Generated_Source\PSoC5/emFile_1_MMC_HW_SPI.c ****                 /* Set CS to 0 */
 356:Generated_Source\PSoC5/emFile_1_MMC_HW_SPI.c ****                 emFile_1_SPI2_CS_Write(0u);
 357:Generated_Source\PSoC5/emFile_1_MMC_HW_SPI.c **** 
 358:Generated_Source\PSoC5/emFile_1_MMC_HW_SPI.c ****                 break;
 359:Generated_Source\PSoC5/emFile_1_MMC_HW_SPI.c **** 
 360:Generated_Source\PSoC5/emFile_1_MMC_HW_SPI.c ****         #endif /* (emFile_1_NUMBER_SD_CARDS >= 3u) */
 361:Generated_Source\PSoC5/emFile_1_MMC_HW_SPI.c **** 
 362:Generated_Source\PSoC5/emFile_1_MMC_HW_SPI.c ****         #if (emFile_1_NUMBER_SD_CARDS == 4u)
 363:Generated_Source\PSoC5/emFile_1_MMC_HW_SPI.c **** 
 364:Generated_Source\PSoC5/emFile_1_MMC_HW_SPI.c ****             case 3u:
 365:Generated_Source\PSoC5/emFile_1_MMC_HW_SPI.c **** 
 366:Generated_Source\PSoC5/emFile_1_MMC_HW_SPI.c ****                 /* Set CS to 0 */
 367:Generated_Source\PSoC5/emFile_1_MMC_HW_SPI.c ****                 emFile_1_SPI3_CS_Write(0u);
 368:Generated_Source\PSoC5/emFile_1_MMC_HW_SPI.c **** 
 369:Generated_Source\PSoC5/emFile_1_MMC_HW_SPI.c ****                 break;
 370:Generated_Source\PSoC5/emFile_1_MMC_HW_SPI.c **** 
 371:Generated_Source\PSoC5/emFile_1_MMC_HW_SPI.c ****         #endif /* (emFile_1_NUMBER_SD_CARDS == 4u) */
 372:Generated_Source\PSoC5/emFile_1_MMC_HW_SPI.c **** 
 373:Generated_Source\PSoC5/emFile_1_MMC_HW_SPI.c ****         default:
 374:Generated_Source\PSoC5/emFile_1_MMC_HW_SPI.c **** 
 375:Generated_Source\PSoC5/emFile_1_MMC_HW_SPI.c ****             emFile_1_SPI0_CS_Write(0u);
 175              		.loc 1 375 0
 176 000a 0020     		movs	r0, #0
 177              	.LVL23:
 178 000c FFF7FEFF 		bl	emFile_1_SPI0_CS_Write
 179              	.LVL24:
 180 0010 08BD     		pop	{r3, pc}
 181              		.cfi_endproc
 182              	.LFE65:
 183              		.size	FS_MMC_HW_X_EnableCS, .-FS_MMC_HW_X_EnableCS
 184 0012 00BF     		.section	.text.FS_MMC_HW_X_DisableCS,"ax",%progbits
 185              		.align	2
 186              		.global	FS_MMC_HW_X_DisableCS
 187              		.thumb
 188              		.thumb_func
 189              		.type	FS_MMC_HW_X_DisableCS, %function
 190              	FS_MMC_HW_X_DisableCS:
 191              	.LFB66:
 376:Generated_Source\PSoC5/emFile_1_MMC_HW_SPI.c **** 
 377:Generated_Source\PSoC5/emFile_1_MMC_HW_SPI.c ****             break;
 378:Generated_Source\PSoC5/emFile_1_MMC_HW_SPI.c ****     }
 379:Generated_Source\PSoC5/emFile_1_MMC_HW_SPI.c **** }
ARM GAS  C:\Users\Nathan\AppData\Local\Temp\cc67vpvF.s 			page 11


 380:Generated_Source\PSoC5/emFile_1_MMC_HW_SPI.c **** 
 381:Generated_Source\PSoC5/emFile_1_MMC_HW_SPI.c **** 
 382:Generated_Source\PSoC5/emFile_1_MMC_HW_SPI.c **** /*******************************************************************************
 383:Generated_Source\PSoC5/emFile_1_MMC_HW_SPI.c **** * Function Name: FS_MMC_HW_X_DisableCS
 384:Generated_Source\PSoC5/emFile_1_MMC_HW_SPI.c **** ********************************************************************************
 385:Generated_Source\PSoC5/emFile_1_MMC_HW_SPI.c **** *
 386:Generated_Source\PSoC5/emFile_1_MMC_HW_SPI.c **** * Summary:
 387:Generated_Source\PSoC5/emFile_1_MMC_HW_SPI.c **** *  FS low level function. Clears the card slot inactive using the
 388:Generated_Source\PSoC5/emFile_1_MMC_HW_SPI.c **** *  chip select (CS) line.
 389:Generated_Source\PSoC5/emFile_1_MMC_HW_SPI.c **** *
 390:Generated_Source\PSoC5/emFile_1_MMC_HW_SPI.c **** * Parameters:
 391:Generated_Source\PSoC5/emFile_1_MMC_HW_SPI.c **** *  Unit      - Device Index.
 392:Generated_Source\PSoC5/emFile_1_MMC_HW_SPI.c **** *
 393:Generated_Source\PSoC5/emFile_1_MMC_HW_SPI.c **** * Return:
 394:Generated_Source\PSoC5/emFile_1_MMC_HW_SPI.c **** *  None
 395:Generated_Source\PSoC5/emFile_1_MMC_HW_SPI.c **** *
 396:Generated_Source\PSoC5/emFile_1_MMC_HW_SPI.c **** * Reentrant:
 397:Generated_Source\PSoC5/emFile_1_MMC_HW_SPI.c **** *  No
 398:Generated_Source\PSoC5/emFile_1_MMC_HW_SPI.c **** *
 399:Generated_Source\PSoC5/emFile_1_MMC_HW_SPI.c **** *******************************************************************************/
 400:Generated_Source\PSoC5/emFile_1_MMC_HW_SPI.c **** void FS_MMC_HW_X_DisableCS(U8 Unit)
 401:Generated_Source\PSoC5/emFile_1_MMC_HW_SPI.c **** {
 192              		.loc 1 401 0
 193              		.cfi_startproc
 194              		@ args = 0, pretend = 0, frame = 0
 195              		@ frame_needed = 0, uses_anonymous_args = 0
 196              	.LVL25:
 197 0000 08B5     		push	{r3, lr}
 198              		.cfi_def_cfa_offset 8
 199              		.cfi_offset 3, -8
 200              		.cfi_offset 14, -4
 402:Generated_Source\PSoC5/emFile_1_MMC_HW_SPI.c ****     switch(Unit)
 201              		.loc 1 402 0
 202 0002 18B9     		cbnz	r0, .L27
 403:Generated_Source\PSoC5/emFile_1_MMC_HW_SPI.c ****     {
 404:Generated_Source\PSoC5/emFile_1_MMC_HW_SPI.c ****     case 0u:
 405:Generated_Source\PSoC5/emFile_1_MMC_HW_SPI.c **** 
 406:Generated_Source\PSoC5/emFile_1_MMC_HW_SPI.c ****         emFile_1_SPI0_CS_Write(1u);
 203              		.loc 1 406 0
 204 0004 0120     		movs	r0, #1
 205              	.LVL26:
 206 0006 FFF7FEFF 		bl	emFile_1_SPI0_CS_Write
 207              	.LVL27:
 407:Generated_Source\PSoC5/emFile_1_MMC_HW_SPI.c **** 
 408:Generated_Source\PSoC5/emFile_1_MMC_HW_SPI.c ****         break;
 208              		.loc 1 408 0
 209 000a 08BD     		pop	{r3, pc}
 210              	.LVL28:
 211              	.L27:
 409:Generated_Source\PSoC5/emFile_1_MMC_HW_SPI.c **** 
 410:Generated_Source\PSoC5/emFile_1_MMC_HW_SPI.c ****     #if (emFile_1_NUMBER_SD_CARDS >= 2u)
 411:Generated_Source\PSoC5/emFile_1_MMC_HW_SPI.c **** 
 412:Generated_Source\PSoC5/emFile_1_MMC_HW_SPI.c ****         case 1u:
 413:Generated_Source\PSoC5/emFile_1_MMC_HW_SPI.c **** 
 414:Generated_Source\PSoC5/emFile_1_MMC_HW_SPI.c ****             emFile_1_SPI1_CS_Write(1u);
 415:Generated_Source\PSoC5/emFile_1_MMC_HW_SPI.c **** 
 416:Generated_Source\PSoC5/emFile_1_MMC_HW_SPI.c ****             break;
ARM GAS  C:\Users\Nathan\AppData\Local\Temp\cc67vpvF.s 			page 12


 417:Generated_Source\PSoC5/emFile_1_MMC_HW_SPI.c **** 
 418:Generated_Source\PSoC5/emFile_1_MMC_HW_SPI.c ****     #endif /* (emFile_1_NUMBER_SD_CARDS >= 2u) */
 419:Generated_Source\PSoC5/emFile_1_MMC_HW_SPI.c **** 
 420:Generated_Source\PSoC5/emFile_1_MMC_HW_SPI.c ****     #if (emFile_1_NUMBER_SD_CARDS >= 3u)
 421:Generated_Source\PSoC5/emFile_1_MMC_HW_SPI.c **** 
 422:Generated_Source\PSoC5/emFile_1_MMC_HW_SPI.c ****         case 2u:
 423:Generated_Source\PSoC5/emFile_1_MMC_HW_SPI.c **** 
 424:Generated_Source\PSoC5/emFile_1_MMC_HW_SPI.c ****             emFile_1_SPI2_CS_Write(1u);
 425:Generated_Source\PSoC5/emFile_1_MMC_HW_SPI.c **** 
 426:Generated_Source\PSoC5/emFile_1_MMC_HW_SPI.c ****             break;
 427:Generated_Source\PSoC5/emFile_1_MMC_HW_SPI.c **** 
 428:Generated_Source\PSoC5/emFile_1_MMC_HW_SPI.c ****     #endif /* (emFile_1_NUMBER_SD_CARDS >= 3u) */
 429:Generated_Source\PSoC5/emFile_1_MMC_HW_SPI.c **** 
 430:Generated_Source\PSoC5/emFile_1_MMC_HW_SPI.c ****     #if (emFile_1_NUMBER_SD_CARDS == 4u)
 431:Generated_Source\PSoC5/emFile_1_MMC_HW_SPI.c **** 
 432:Generated_Source\PSoC5/emFile_1_MMC_HW_SPI.c ****         case 3u:
 433:Generated_Source\PSoC5/emFile_1_MMC_HW_SPI.c **** 
 434:Generated_Source\PSoC5/emFile_1_MMC_HW_SPI.c ****             emFile_1_SPI3_CS_Write(1u);
 435:Generated_Source\PSoC5/emFile_1_MMC_HW_SPI.c **** 
 436:Generated_Source\PSoC5/emFile_1_MMC_HW_SPI.c ****             break;
 437:Generated_Source\PSoC5/emFile_1_MMC_HW_SPI.c **** 
 438:Generated_Source\PSoC5/emFile_1_MMC_HW_SPI.c ****     #endif /* (emFile_1_NUMBER_SD_CARDS == 4u) */
 439:Generated_Source\PSoC5/emFile_1_MMC_HW_SPI.c **** 
 440:Generated_Source\PSoC5/emFile_1_MMC_HW_SPI.c ****     default:
 441:Generated_Source\PSoC5/emFile_1_MMC_HW_SPI.c **** 
 442:Generated_Source\PSoC5/emFile_1_MMC_HW_SPI.c ****         emFile_1_SPI0_CS_Write(1u);
 212              		.loc 1 442 0
 213 000c 0120     		movs	r0, #1
 214              	.LVL29:
 215 000e FFF7FEFF 		bl	emFile_1_SPI0_CS_Write
 216              	.LVL30:
 217 0012 08BD     		pop	{r3, pc}
 218              		.cfi_endproc
 219              	.LFE66:
 220              		.size	FS_MMC_HW_X_DisableCS, .-FS_MMC_HW_X_DisableCS
 221              		.section	.text.FS_MMC_HW_X_IsWriteProtected,"ax",%progbits
 222              		.align	2
 223              		.global	FS_MMC_HW_X_IsWriteProtected
 224              		.thumb
 225              		.thumb_func
 226              		.type	FS_MMC_HW_X_IsWriteProtected, %function
 227              	FS_MMC_HW_X_IsWriteProtected:
 228              	.LFB67:
 443:Generated_Source\PSoC5/emFile_1_MMC_HW_SPI.c ****         
 444:Generated_Source\PSoC5/emFile_1_MMC_HW_SPI.c ****         break;
 445:Generated_Source\PSoC5/emFile_1_MMC_HW_SPI.c ****     }
 446:Generated_Source\PSoC5/emFile_1_MMC_HW_SPI.c **** }
 447:Generated_Source\PSoC5/emFile_1_MMC_HW_SPI.c **** 
 448:Generated_Source\PSoC5/emFile_1_MMC_HW_SPI.c **** 
 449:Generated_Source\PSoC5/emFile_1_MMC_HW_SPI.c **** /*******************************************************************************
 450:Generated_Source\PSoC5/emFile_1_MMC_HW_SPI.c **** * Function Name: FS_MMC_HW_X_IsWriteProtected
 451:Generated_Source\PSoC5/emFile_1_MMC_HW_SPI.c **** ********************************************************************************
 452:Generated_Source\PSoC5/emFile_1_MMC_HW_SPI.c **** *
 453:Generated_Source\PSoC5/emFile_1_MMC_HW_SPI.c **** * Summary:
 454:Generated_Source\PSoC5/emFile_1_MMC_HW_SPI.c **** *  FS low level function. Returns the state of the physical write
 455:Generated_Source\PSoC5/emFile_1_MMC_HW_SPI.c **** *  protection of the SD cards.
 456:Generated_Source\PSoC5/emFile_1_MMC_HW_SPI.c **** *
ARM GAS  C:\Users\Nathan\AppData\Local\Temp\cc67vpvF.s 			page 13


 457:Generated_Source\PSoC5/emFile_1_MMC_HW_SPI.c **** * Parameters:
 458:Generated_Source\PSoC5/emFile_1_MMC_HW_SPI.c **** *  Unit      - Device Index.
 459:Generated_Source\PSoC5/emFile_1_MMC_HW_SPI.c **** *
 460:Generated_Source\PSoC5/emFile_1_MMC_HW_SPI.c **** * Return:
 461:Generated_Source\PSoC5/emFile_1_MMC_HW_SPI.c **** *    1       - the card is write protected;
 462:Generated_Source\PSoC5/emFile_1_MMC_HW_SPI.c **** *    0       - the card is not write protected.
 463:Generated_Source\PSoC5/emFile_1_MMC_HW_SPI.c **** *
 464:Generated_Source\PSoC5/emFile_1_MMC_HW_SPI.c **** * Reentrant:
 465:Generated_Source\PSoC5/emFile_1_MMC_HW_SPI.c **** *  No
 466:Generated_Source\PSoC5/emFile_1_MMC_HW_SPI.c **** *
 467:Generated_Source\PSoC5/emFile_1_MMC_HW_SPI.c **** *******************************************************************************/
 468:Generated_Source\PSoC5/emFile_1_MMC_HW_SPI.c **** int FS_MMC_HW_X_IsWriteProtected(U8 Unit)
 469:Generated_Source\PSoC5/emFile_1_MMC_HW_SPI.c **** {
 229              		.loc 1 469 0
 230              		.cfi_startproc
 231              		@ args = 0, pretend = 0, frame = 0
 232              		@ frame_needed = 0, uses_anonymous_args = 0
 233              		@ link register save eliminated.
 234              	.LVL31:
 470:Generated_Source\PSoC5/emFile_1_MMC_HW_SPI.c ****    int wpState;
 471:Generated_Source\PSoC5/emFile_1_MMC_HW_SPI.c **** 
 472:Generated_Source\PSoC5/emFile_1_MMC_HW_SPI.c ****     switch(Unit)
 473:Generated_Source\PSoC5/emFile_1_MMC_HW_SPI.c ****     {
 474:Generated_Source\PSoC5/emFile_1_MMC_HW_SPI.c ****     case 0u:
 475:Generated_Source\PSoC5/emFile_1_MMC_HW_SPI.c **** 
 476:Generated_Source\PSoC5/emFile_1_MMC_HW_SPI.c ****         #if (emFile_1_WP0_EN)
 477:Generated_Source\PSoC5/emFile_1_MMC_HW_SPI.c **** 
 478:Generated_Source\PSoC5/emFile_1_MMC_HW_SPI.c ****             /* Based on physical switch state */
 479:Generated_Source\PSoC5/emFile_1_MMC_HW_SPI.c ****               wpState = (int)emFile_1_SPI0_WP_Read();
 480:Generated_Source\PSoC5/emFile_1_MMC_HW_SPI.c **** 
 481:Generated_Source\PSoC5/emFile_1_MMC_HW_SPI.c ****         #else
 482:Generated_Source\PSoC5/emFile_1_MMC_HW_SPI.c **** 
 483:Generated_Source\PSoC5/emFile_1_MMC_HW_SPI.c ****             wpState = 0;
 484:Generated_Source\PSoC5/emFile_1_MMC_HW_SPI.c **** 
 485:Generated_Source\PSoC5/emFile_1_MMC_HW_SPI.c ****         #endif /* (emFile_1_WP0_EN) */
 486:Generated_Source\PSoC5/emFile_1_MMC_HW_SPI.c **** 
 487:Generated_Source\PSoC5/emFile_1_MMC_HW_SPI.c ****         break;
 488:Generated_Source\PSoC5/emFile_1_MMC_HW_SPI.c **** 
 489:Generated_Source\PSoC5/emFile_1_MMC_HW_SPI.c ****     #if (emFile_1_NUMBER_SD_CARDS >= 2u)
 490:Generated_Source\PSoC5/emFile_1_MMC_HW_SPI.c **** 
 491:Generated_Source\PSoC5/emFile_1_MMC_HW_SPI.c ****         case 1u:
 492:Generated_Source\PSoC5/emFile_1_MMC_HW_SPI.c **** 
 493:Generated_Source\PSoC5/emFile_1_MMC_HW_SPI.c ****             #if (emFile_1_WP1_EN)
 494:Generated_Source\PSoC5/emFile_1_MMC_HW_SPI.c **** 
 495:Generated_Source\PSoC5/emFile_1_MMC_HW_SPI.c ****                    /* Based on physical switch state */
 496:Generated_Source\PSoC5/emFile_1_MMC_HW_SPI.c ****                 wpState = (int)emFile_1_SPI1_WP_Read();
 497:Generated_Source\PSoC5/emFile_1_MMC_HW_SPI.c **** 
 498:Generated_Source\PSoC5/emFile_1_MMC_HW_SPI.c ****             #else
 499:Generated_Source\PSoC5/emFile_1_MMC_HW_SPI.c **** 
 500:Generated_Source\PSoC5/emFile_1_MMC_HW_SPI.c ****                 wpState = 0;
 501:Generated_Source\PSoC5/emFile_1_MMC_HW_SPI.c **** 
 502:Generated_Source\PSoC5/emFile_1_MMC_HW_SPI.c ****             #endif /* (emFile_1_WP1_EN) */
 503:Generated_Source\PSoC5/emFile_1_MMC_HW_SPI.c **** 
 504:Generated_Source\PSoC5/emFile_1_MMC_HW_SPI.c ****             break;
 505:Generated_Source\PSoC5/emFile_1_MMC_HW_SPI.c **** 
 506:Generated_Source\PSoC5/emFile_1_MMC_HW_SPI.c ****     #endif /* (emFile_1_NUMBER_SD_CARDS >= 2u) */
 507:Generated_Source\PSoC5/emFile_1_MMC_HW_SPI.c **** 
ARM GAS  C:\Users\Nathan\AppData\Local\Temp\cc67vpvF.s 			page 14


 508:Generated_Source\PSoC5/emFile_1_MMC_HW_SPI.c ****     #if (emFile_1_NUMBER_SD_CARDS >= 3u)
 509:Generated_Source\PSoC5/emFile_1_MMC_HW_SPI.c **** 
 510:Generated_Source\PSoC5/emFile_1_MMC_HW_SPI.c ****         case 2u:
 511:Generated_Source\PSoC5/emFile_1_MMC_HW_SPI.c **** 
 512:Generated_Source\PSoC5/emFile_1_MMC_HW_SPI.c ****             #if (emFile_1_WP2_EN)
 513:Generated_Source\PSoC5/emFile_1_MMC_HW_SPI.c **** 
 514:Generated_Source\PSoC5/emFile_1_MMC_HW_SPI.c ****                   /* Based on physical switch state */
 515:Generated_Source\PSoC5/emFile_1_MMC_HW_SPI.c ****                 wpState = (int)emFile_1_SPI2_WP_Read();
 516:Generated_Source\PSoC5/emFile_1_MMC_HW_SPI.c **** 
 517:Generated_Source\PSoC5/emFile_1_MMC_HW_SPI.c ****             #else
 518:Generated_Source\PSoC5/emFile_1_MMC_HW_SPI.c **** 
 519:Generated_Source\PSoC5/emFile_1_MMC_HW_SPI.c ****                 wpState = 0;
 520:Generated_Source\PSoC5/emFile_1_MMC_HW_SPI.c **** 
 521:Generated_Source\PSoC5/emFile_1_MMC_HW_SPI.c ****             #endif /* (emFile_1_WP2_EN) */
 522:Generated_Source\PSoC5/emFile_1_MMC_HW_SPI.c **** 
 523:Generated_Source\PSoC5/emFile_1_MMC_HW_SPI.c ****             break;
 524:Generated_Source\PSoC5/emFile_1_MMC_HW_SPI.c **** 
 525:Generated_Source\PSoC5/emFile_1_MMC_HW_SPI.c ****     #endif /* (emFile_1_NUMBER_SD_CARDS >= 3u) */
 526:Generated_Source\PSoC5/emFile_1_MMC_HW_SPI.c **** 
 527:Generated_Source\PSoC5/emFile_1_MMC_HW_SPI.c ****     #if (emFile_1_NUMBER_SD_CARDS == 4u)
 528:Generated_Source\PSoC5/emFile_1_MMC_HW_SPI.c **** 
 529:Generated_Source\PSoC5/emFile_1_MMC_HW_SPI.c ****         case 3u:
 530:Generated_Source\PSoC5/emFile_1_MMC_HW_SPI.c **** 
 531:Generated_Source\PSoC5/emFile_1_MMC_HW_SPI.c ****             #if (emFile_1_WP3_EN)
 532:Generated_Source\PSoC5/emFile_1_MMC_HW_SPI.c **** 
 533:Generated_Source\PSoC5/emFile_1_MMC_HW_SPI.c ****                 /* Based on physical switch state */
 534:Generated_Source\PSoC5/emFile_1_MMC_HW_SPI.c ****                 wpState = (int)emFile_1_SPI3_WP_Read();
 535:Generated_Source\PSoC5/emFile_1_MMC_HW_SPI.c **** 
 536:Generated_Source\PSoC5/emFile_1_MMC_HW_SPI.c ****             #else
 537:Generated_Source\PSoC5/emFile_1_MMC_HW_SPI.c **** 
 538:Generated_Source\PSoC5/emFile_1_MMC_HW_SPI.c ****                 wpState = 0;
 539:Generated_Source\PSoC5/emFile_1_MMC_HW_SPI.c **** 
 540:Generated_Source\PSoC5/emFile_1_MMC_HW_SPI.c ****             #endif /* (emFile_1_WP3_EN) */
 541:Generated_Source\PSoC5/emFile_1_MMC_HW_SPI.c **** 
 542:Generated_Source\PSoC5/emFile_1_MMC_HW_SPI.c ****             break;
 543:Generated_Source\PSoC5/emFile_1_MMC_HW_SPI.c **** 
 544:Generated_Source\PSoC5/emFile_1_MMC_HW_SPI.c ****     #endif /* (emFile_1_NUMBER_SD_CARDS == 4u) */
 545:Generated_Source\PSoC5/emFile_1_MMC_HW_SPI.c **** 
 546:Generated_Source\PSoC5/emFile_1_MMC_HW_SPI.c ****     default:
 547:Generated_Source\PSoC5/emFile_1_MMC_HW_SPI.c **** 
 548:Generated_Source\PSoC5/emFile_1_MMC_HW_SPI.c ****         #if (emFile_1_WP0_EN)
 549:Generated_Source\PSoC5/emFile_1_MMC_HW_SPI.c **** 
 550:Generated_Source\PSoC5/emFile_1_MMC_HW_SPI.c ****               /* Based on physical switch state */
 551:Generated_Source\PSoC5/emFile_1_MMC_HW_SPI.c ****             wpState = (int)emFile_1_SPI0_WP_Read();
 552:Generated_Source\PSoC5/emFile_1_MMC_HW_SPI.c **** 
 553:Generated_Source\PSoC5/emFile_1_MMC_HW_SPI.c ****         #else
 554:Generated_Source\PSoC5/emFile_1_MMC_HW_SPI.c **** 
 555:Generated_Source\PSoC5/emFile_1_MMC_HW_SPI.c ****             wpState = 0;
 556:Generated_Source\PSoC5/emFile_1_MMC_HW_SPI.c **** 
 557:Generated_Source\PSoC5/emFile_1_MMC_HW_SPI.c ****         #endif /* (emFile_1_WP0_EN) */
 558:Generated_Source\PSoC5/emFile_1_MMC_HW_SPI.c ****         
 559:Generated_Source\PSoC5/emFile_1_MMC_HW_SPI.c ****         break;
 560:Generated_Source\PSoC5/emFile_1_MMC_HW_SPI.c ****     }
 561:Generated_Source\PSoC5/emFile_1_MMC_HW_SPI.c **** 
 562:Generated_Source\PSoC5/emFile_1_MMC_HW_SPI.c ****     return(wpState);
 563:Generated_Source\PSoC5/emFile_1_MMC_HW_SPI.c **** }
 235              		.loc 1 563 0
ARM GAS  C:\Users\Nathan\AppData\Local\Temp\cc67vpvF.s 			page 15


 236 0000 0020     		movs	r0, #0
 237              	.LVL32:
 238 0002 7047     		bx	lr
 239              		.cfi_endproc
 240              	.LFE67:
 241              		.size	FS_MMC_HW_X_IsWriteProtected, .-FS_MMC_HW_X_IsWriteProtected
 242              		.section	.text.FS_MMC_HW_X_SetMaxSpeed,"ax",%progbits
 243              		.align	2
 244              		.global	FS_MMC_HW_X_SetMaxSpeed
 245              		.thumb
 246              		.thumb_func
 247              		.type	FS_MMC_HW_X_SetMaxSpeed, %function
 248              	FS_MMC_HW_X_SetMaxSpeed:
 249              	.LFB68:
 564:Generated_Source\PSoC5/emFile_1_MMC_HW_SPI.c **** 
 565:Generated_Source\PSoC5/emFile_1_MMC_HW_SPI.c **** 
 566:Generated_Source\PSoC5/emFile_1_MMC_HW_SPI.c **** /*******************************************************************************
 567:Generated_Source\PSoC5/emFile_1_MMC_HW_SPI.c **** * Function Name: FS_MMC_HW_X_SetMaxSpeed
 568:Generated_Source\PSoC5/emFile_1_MMC_HW_SPI.c **** ********************************************************************************
 569:Generated_Source\PSoC5/emFile_1_MMC_HW_SPI.c **** *
 570:Generated_Source\PSoC5/emFile_1_MMC_HW_SPI.c **** * Summary:
 571:Generated_Source\PSoC5/emFile_1_MMC_HW_SPI.c **** *  FS low level function. Sets the SPI interface to a maximum frequency.
 572:Generated_Source\PSoC5/emFile_1_MMC_HW_SPI.c **** *  Make sure that you set the frequency lower or equal but never higher
 573:Generated_Source\PSoC5/emFile_1_MMC_HW_SPI.c **** *  than the given value. Recommended startup frequency is 100kHz - 400kHz.
 574:Generated_Source\PSoC5/emFile_1_MMC_HW_SPI.c **** *
 575:Generated_Source\PSoC5/emFile_1_MMC_HW_SPI.c **** * Parameters:
 576:Generated_Source\PSoC5/emFile_1_MMC_HW_SPI.c **** *  Unit             - Device Index;
 577:Generated_Source\PSoC5/emFile_1_MMC_HW_SPI.c **** *  MaxFreq          - SPI clock frequency in kHz.
 578:Generated_Source\PSoC5/emFile_1_MMC_HW_SPI.c **** *
 579:Generated_Source\PSoC5/emFile_1_MMC_HW_SPI.c **** * Return:
 580:Generated_Source\PSoC5/emFile_1_MMC_HW_SPI.c **** *  max. frequency   - the maximum frequency set in kHz;
 581:Generated_Source\PSoC5/emFile_1_MMC_HW_SPI.c **** *  0                - the frequency could not be set.
 582:Generated_Source\PSoC5/emFile_1_MMC_HW_SPI.c **** *
 583:Generated_Source\PSoC5/emFile_1_MMC_HW_SPI.c **** * Reentrant:
 584:Generated_Source\PSoC5/emFile_1_MMC_HW_SPI.c **** *  No
 585:Generated_Source\PSoC5/emFile_1_MMC_HW_SPI.c **** *
 586:Generated_Source\PSoC5/emFile_1_MMC_HW_SPI.c **** *******************************************************************************/
 587:Generated_Source\PSoC5/emFile_1_MMC_HW_SPI.c **** U16 FS_MMC_HW_X_SetMaxSpeed(U8 Unit, U16 MaxFreq)
 588:Generated_Source\PSoC5/emFile_1_MMC_HW_SPI.c **** {
 250              		.loc 1 588 0
 251              		.cfi_startproc
 252              		@ args = 0, pretend = 0, frame = 0
 253              		@ frame_needed = 0, uses_anonymous_args = 0
 254              	.LVL33:
 255 0000 38B5     		push	{r3, r4, r5, lr}
 256              		.cfi_def_cfa_offset 16
 257              		.cfi_offset 3, -16
 258              		.cfi_offset 4, -12
 259              		.cfi_offset 5, -8
 260              		.cfi_offset 14, -4
 589:Generated_Source\PSoC5/emFile_1_MMC_HW_SPI.c ****     U16 freq;
 590:Generated_Source\PSoC5/emFile_1_MMC_HW_SPI.c ****     U32 divResult;
 591:Generated_Source\PSoC5/emFile_1_MMC_HW_SPI.c **** 
 592:Generated_Source\PSoC5/emFile_1_MMC_HW_SPI.c ****     if(MaxFreq < emFile_1_STARTUP_FREQ)
 261              		.loc 1 592 0
 262 0002 B1F5C87F 		cmp	r1, #400
 263 0006 05D3     		bcc	.L35
ARM GAS  C:\Users\Nathan\AppData\Local\Temp\cc67vpvF.s 			page 16


 264 0008 0D46     		mov	r5, r1
 593:Generated_Source\PSoC5/emFile_1_MMC_HW_SPI.c ****     {
 594:Generated_Source\PSoC5/emFile_1_MMC_HW_SPI.c ****         MaxFreq = emFile_1_STARTUP_FREQ;
 595:Generated_Source\PSoC5/emFile_1_MMC_HW_SPI.c ****     }
 596:Generated_Source\PSoC5/emFile_1_MMC_HW_SPI.c ****     else if(MaxFreq > emFile_1_MAX_SPI_FREQ)
 265              		.loc 1 596 0
 266 000a 42F21073 		movw	r3, #10000
 267 000e 9942     		cmp	r1, r3
 268 0010 03D8     		bhi	.L36
 269 0012 04E0     		b	.L31
 270              	.L35:
 594:Generated_Source\PSoC5/emFile_1_MMC_HW_SPI.c ****     }
 271              		.loc 1 594 0
 272 0014 4FF4C875 		mov	r5, #400
 273 0018 01E0     		b	.L31
 274              	.L36:
 597:Generated_Source\PSoC5/emFile_1_MMC_HW_SPI.c ****     {
 598:Generated_Source\PSoC5/emFile_1_MMC_HW_SPI.c ****         MaxFreq = emFile_1_MAX_SPI_FREQ;
 275              		.loc 1 598 0
 276 001a 42F21075 		movw	r5, #10000
 277              	.L31:
 278              	.LVL34:
 599:Generated_Source\PSoC5/emFile_1_MMC_HW_SPI.c ****     }
 600:Generated_Source\PSoC5/emFile_1_MMC_HW_SPI.c ****     else
 601:Generated_Source\PSoC5/emFile_1_MMC_HW_SPI.c ****     {
 602:Generated_Source\PSoC5/emFile_1_MMC_HW_SPI.c ****         /* Do nothing */
 603:Generated_Source\PSoC5/emFile_1_MMC_HW_SPI.c ****     }
 604:Generated_Source\PSoC5/emFile_1_MMC_HW_SPI.c **** 
 605:Generated_Source\PSoC5/emFile_1_MMC_HW_SPI.c ****     freq = MaxFreq << 1u;
 279              		.loc 1 605 0
 280 001e 6C00     		lsls	r4, r5, #1
 281 0020 A4B2     		uxth	r4, r4
 282              	.LVL35:
 606:Generated_Source\PSoC5/emFile_1_MMC_HW_SPI.c **** 
 607:Generated_Source\PSoC5/emFile_1_MMC_HW_SPI.c ****     divResult = ((U32) BCLK__BUS_CLK__KHZ)/((U32) freq);
 283              		.loc 1 607 0
 284 0022 45F6C053 		movw	r3, #24000
 285 0026 B3FBF4F4 		udiv	r4, r3, r4
 286              	.LVL36:
 608:Generated_Source\PSoC5/emFile_1_MMC_HW_SPI.c **** 
 609:Generated_Source\PSoC5/emFile_1_MMC_HW_SPI.c ****     switch(Unit)
 287              		.loc 1 609 0
 288 002a 48B9     		cbnz	r0, .L37
 610:Generated_Source\PSoC5/emFile_1_MMC_HW_SPI.c ****     {
 611:Generated_Source\PSoC5/emFile_1_MMC_HW_SPI.c ****         case 0u:
 612:Generated_Source\PSoC5/emFile_1_MMC_HW_SPI.c ****             emFile_1_Clock_1_Stop();
 289              		.loc 1 612 0
 290 002c FFF7FEFF 		bl	emFile_1_Clock_1_Stop
 291              	.LVL37:
 613:Generated_Source\PSoC5/emFile_1_MMC_HW_SPI.c ****             emFile_1_Clock_1_SetDividerValue((U16)divResult);    /* update the frequency */
 292              		.loc 1 613 0
 293 0030 601E     		subs	r0, r4, #1
 294 0032 0121     		movs	r1, #1
 295 0034 80B2     		uxth	r0, r0
 296 0036 FFF7FEFF 		bl	emFile_1_Clock_1_SetDividerRegister
 297              	.LVL38:
 614:Generated_Source\PSoC5/emFile_1_MMC_HW_SPI.c ****             emFile_1_Clock_1_Start();
ARM GAS  C:\Users\Nathan\AppData\Local\Temp\cc67vpvF.s 			page 17


 298              		.loc 1 614 0
 299 003a FFF7FEFF 		bl	emFile_1_Clock_1_Start
 300              	.LVL39:
 615:Generated_Source\PSoC5/emFile_1_MMC_HW_SPI.c ****             break;
 301              		.loc 1 615 0
 302 003e 08E0     		b	.L34
 303              	.LVL40:
 304              	.L37:
 616:Generated_Source\PSoC5/emFile_1_MMC_HW_SPI.c **** 
 617:Generated_Source\PSoC5/emFile_1_MMC_HW_SPI.c ****         #if (emFile_1_NUMBER_SD_CARDS >= 2u)
 618:Generated_Source\PSoC5/emFile_1_MMC_HW_SPI.c **** 
 619:Generated_Source\PSoC5/emFile_1_MMC_HW_SPI.c ****         case 1u:
 620:Generated_Source\PSoC5/emFile_1_MMC_HW_SPI.c **** 
 621:Generated_Source\PSoC5/emFile_1_MMC_HW_SPI.c ****             emFile_1_Clock_2_Stop();
 622:Generated_Source\PSoC5/emFile_1_MMC_HW_SPI.c ****             emFile_1_Clock_2_SetDividerValue((U16)divResult);    /* update the frequency */
 623:Generated_Source\PSoC5/emFile_1_MMC_HW_SPI.c ****             emFile_1_Clock_2_Start();
 624:Generated_Source\PSoC5/emFile_1_MMC_HW_SPI.c ****             break;
 625:Generated_Source\PSoC5/emFile_1_MMC_HW_SPI.c **** 
 626:Generated_Source\PSoC5/emFile_1_MMC_HW_SPI.c ****         #endif /* (emFile_1_NUMBER_SD_CARDS >= 2u) */
 627:Generated_Source\PSoC5/emFile_1_MMC_HW_SPI.c **** 
 628:Generated_Source\PSoC5/emFile_1_MMC_HW_SPI.c ****         #if (emFile_1_NUMBER_SD_CARDS >= 3u)
 629:Generated_Source\PSoC5/emFile_1_MMC_HW_SPI.c **** 
 630:Generated_Source\PSoC5/emFile_1_MMC_HW_SPI.c ****         case 2u:
 631:Generated_Source\PSoC5/emFile_1_MMC_HW_SPI.c **** 
 632:Generated_Source\PSoC5/emFile_1_MMC_HW_SPI.c ****             emFile_1_Clock_3_Stop();
 633:Generated_Source\PSoC5/emFile_1_MMC_HW_SPI.c ****             emFile_1_Clock_3_SetDividerValue((U16)divResult);    /* update the frequency */
 634:Generated_Source\PSoC5/emFile_1_MMC_HW_SPI.c ****             emFile_1_Clock_3_Start();
 635:Generated_Source\PSoC5/emFile_1_MMC_HW_SPI.c ****             break;
 636:Generated_Source\PSoC5/emFile_1_MMC_HW_SPI.c **** 
 637:Generated_Source\PSoC5/emFile_1_MMC_HW_SPI.c ****         #endif /* (emFile_1_NUMBER_SD_CARDS >= 3u) */
 638:Generated_Source\PSoC5/emFile_1_MMC_HW_SPI.c **** 
 639:Generated_Source\PSoC5/emFile_1_MMC_HW_SPI.c ****         #if (emFile_1_NUMBER_SD_CARDS == 4u)
 640:Generated_Source\PSoC5/emFile_1_MMC_HW_SPI.c **** 
 641:Generated_Source\PSoC5/emFile_1_MMC_HW_SPI.c ****         case 3u:
 642:Generated_Source\PSoC5/emFile_1_MMC_HW_SPI.c **** 
 643:Generated_Source\PSoC5/emFile_1_MMC_HW_SPI.c ****             emFile_1_Clock_4_Stop();
 644:Generated_Source\PSoC5/emFile_1_MMC_HW_SPI.c ****             emFile_1_Clock_4_SetDividerValue((U16)divResult);    /* update the frequency */
 645:Generated_Source\PSoC5/emFile_1_MMC_HW_SPI.c ****             emFile_1_Clock_4_Start();
 646:Generated_Source\PSoC5/emFile_1_MMC_HW_SPI.c ****             break;
 647:Generated_Source\PSoC5/emFile_1_MMC_HW_SPI.c **** 
 648:Generated_Source\PSoC5/emFile_1_MMC_HW_SPI.c ****         #endif /* (emFile_1_NUMBER_SD_CARDS == 4u) */
 649:Generated_Source\PSoC5/emFile_1_MMC_HW_SPI.c **** 
 650:Generated_Source\PSoC5/emFile_1_MMC_HW_SPI.c ****         default:
 651:Generated_Source\PSoC5/emFile_1_MMC_HW_SPI.c ****             emFile_1_Clock_1_Stop();
 305              		.loc 1 651 0
 306 0040 FFF7FEFF 		bl	emFile_1_Clock_1_Stop
 307              	.LVL41:
 652:Generated_Source\PSoC5/emFile_1_MMC_HW_SPI.c ****             emFile_1_Clock_1_SetDividerValue((U16)divResult);    /* update the frequency */
 308              		.loc 1 652 0
 309 0044 601E     		subs	r0, r4, #1
 310 0046 0121     		movs	r1, #1
 311 0048 80B2     		uxth	r0, r0
 312 004a FFF7FEFF 		bl	emFile_1_Clock_1_SetDividerRegister
 313              	.LVL42:
 653:Generated_Source\PSoC5/emFile_1_MMC_HW_SPI.c ****             emFile_1_Clock_1_Start();
 314              		.loc 1 653 0
 315 004e FFF7FEFF 		bl	emFile_1_Clock_1_Start
ARM GAS  C:\Users\Nathan\AppData\Local\Temp\cc67vpvF.s 			page 18


 316              	.LVL43:
 317              	.L34:
 654:Generated_Source\PSoC5/emFile_1_MMC_HW_SPI.c ****             break;
 655:Generated_Source\PSoC5/emFile_1_MMC_HW_SPI.c ****     }
 656:Generated_Source\PSoC5/emFile_1_MMC_HW_SPI.c **** 
 657:Generated_Source\PSoC5/emFile_1_MMC_HW_SPI.c ****     return (MaxFreq);
 658:Generated_Source\PSoC5/emFile_1_MMC_HW_SPI.c **** 
 659:Generated_Source\PSoC5/emFile_1_MMC_HW_SPI.c **** }
 318              		.loc 1 659 0
 319 0052 2846     		mov	r0, r5
 320 0054 38BD     		pop	{r3, r4, r5, pc}
 321              		.cfi_endproc
 322              	.LFE68:
 323              		.size	FS_MMC_HW_X_SetMaxSpeed, .-FS_MMC_HW_X_SetMaxSpeed
 324 0056 00BF     		.section	.text.FS_MMC_HW_X_SetVoltage,"ax",%progbits
 325              		.align	2
 326              		.global	FS_MMC_HW_X_SetVoltage
 327              		.thumb
 328              		.thumb_func
 329              		.type	FS_MMC_HW_X_SetVoltage, %function
 330              	FS_MMC_HW_X_SetVoltage:
 331              	.LFB69:
 660:Generated_Source\PSoC5/emFile_1_MMC_HW_SPI.c **** 
 661:Generated_Source\PSoC5/emFile_1_MMC_HW_SPI.c **** 
 662:Generated_Source\PSoC5/emFile_1_MMC_HW_SPI.c **** /*******************************************************************************
 663:Generated_Source\PSoC5/emFile_1_MMC_HW_SPI.c **** * Function Name: FS_MMC_HW_X_SetVoltage
 664:Generated_Source\PSoC5/emFile_1_MMC_HW_SPI.c **** ********************************************************************************
 665:Generated_Source\PSoC5/emFile_1_MMC_HW_SPI.c **** *
 666:Generated_Source\PSoC5/emFile_1_MMC_HW_SPI.c **** * Summary:
 667:Generated_Source\PSoC5/emFile_1_MMC_HW_SPI.c **** *  FS low level function. Be sure that your card slot si within the given
 668:Generated_Source\PSoC5/emFile_1_MMC_HW_SPI.c **** *  voltage range. Return 1 if your slot can support the required voltage,
 669:Generated_Source\PSoC5/emFile_1_MMC_HW_SPI.c **** *  and if not, return 0.
 670:Generated_Source\PSoC5/emFile_1_MMC_HW_SPI.c **** *
 671:Generated_Source\PSoC5/emFile_1_MMC_HW_SPI.c **** * Parameters:
 672:Generated_Source\PSoC5/emFile_1_MMC_HW_SPI.c **** *  Unit             - Device Index;
 673:Generated_Source\PSoC5/emFile_1_MMC_HW_SPI.c **** *  Vmin             - Minimum supply voltage in mV;
 674:Generated_Source\PSoC5/emFile_1_MMC_HW_SPI.c **** *  Vmin             - Maximum supply voltage in mV.
 675:Generated_Source\PSoC5/emFile_1_MMC_HW_SPI.c **** *
 676:Generated_Source\PSoC5/emFile_1_MMC_HW_SPI.c **** * Return:
 677:Generated_Source\PSoC5/emFile_1_MMC_HW_SPI.c **** *  1                - the card slot supports the voltage range;
 678:Generated_Source\PSoC5/emFile_1_MMC_HW_SPI.c **** *  0                - the card slot does not support the voltage range.
 679:Generated_Source\PSoC5/emFile_1_MMC_HW_SPI.c **** *
 680:Generated_Source\PSoC5/emFile_1_MMC_HW_SPI.c **** * Reentrant:
 681:Generated_Source\PSoC5/emFile_1_MMC_HW_SPI.c **** *  No
 682:Generated_Source\PSoC5/emFile_1_MMC_HW_SPI.c **** *
 683:Generated_Source\PSoC5/emFile_1_MMC_HW_SPI.c **** *******************************************************************************/
 684:Generated_Source\PSoC5/emFile_1_MMC_HW_SPI.c **** int FS_MMC_HW_X_SetVoltage(U8 Unit, U16 Vmin, U16 Vmax)
 685:Generated_Source\PSoC5/emFile_1_MMC_HW_SPI.c **** {
 332              		.loc 1 685 0
 333              		.cfi_startproc
 334              		@ args = 0, pretend = 0, frame = 0
 335              		@ frame_needed = 0, uses_anonymous_args = 0
 336              		@ link register save eliminated.
 337              	.LVL44:
 686:Generated_Source\PSoC5/emFile_1_MMC_HW_SPI.c ****     int result;
 687:Generated_Source\PSoC5/emFile_1_MMC_HW_SPI.c **** 
 688:Generated_Source\PSoC5/emFile_1_MMC_HW_SPI.c ****     switch(Unit)
ARM GAS  C:\Users\Nathan\AppData\Local\Temp\cc67vpvF.s 			page 19


 338              		.loc 1 688 0
 339 0000 0328     		cmp	r0, #3
 340 0002 09D8     		bhi	.L40
 689:Generated_Source\PSoC5/emFile_1_MMC_HW_SPI.c ****     {
 690:Generated_Source\PSoC5/emFile_1_MMC_HW_SPI.c ****     case 0u:
 691:Generated_Source\PSoC5/emFile_1_MMC_HW_SPI.c **** 
 692:Generated_Source\PSoC5/emFile_1_MMC_HW_SPI.c ****     case 1u:
 693:Generated_Source\PSoC5/emFile_1_MMC_HW_SPI.c **** 
 694:Generated_Source\PSoC5/emFile_1_MMC_HW_SPI.c ****     case 2u:
 695:Generated_Source\PSoC5/emFile_1_MMC_HW_SPI.c **** 
 696:Generated_Source\PSoC5/emFile_1_MMC_HW_SPI.c ****     case 3u:
 697:Generated_Source\PSoC5/emFile_1_MMC_HW_SPI.c **** 
 698:Generated_Source\PSoC5/emFile_1_MMC_HW_SPI.c ****         if((Vmin <= emFile_1_MMC_DEFAULT_SUPPLY_VOLTAGE) &&
 341              		.loc 1 698 0
 342 0004 40F6E443 		movw	r3, #3300
 343 0008 9942     		cmp	r1, r3
 344 000a 0FD8     		bhi	.L43
 345              		.loc 1 698 0 is_stmt 0 discriminator 1
 346 000c 40F6E343 		movw	r3, #3299
 347 0010 9A42     		cmp	r2, r3
 348 0012 0DD8     		bhi	.L44
 699:Generated_Source\PSoC5/emFile_1_MMC_HW_SPI.c ****             (emFile_1_MMC_DEFAULT_SUPPLY_VOLTAGE <= Vmax))
 700:Generated_Source\PSoC5/emFile_1_MMC_HW_SPI.c ****         {
 701:Generated_Source\PSoC5/emFile_1_MMC_HW_SPI.c ****             result = emFile_1_RET_SUCCCESS;
 702:Generated_Source\PSoC5/emFile_1_MMC_HW_SPI.c ****         }
 703:Generated_Source\PSoC5/emFile_1_MMC_HW_SPI.c ****         else
 704:Generated_Source\PSoC5/emFile_1_MMC_HW_SPI.c ****         {
 705:Generated_Source\PSoC5/emFile_1_MMC_HW_SPI.c ****             result = emFile_1_RET_FAIL;
 349              		.loc 1 705 0 is_stmt 1
 350 0014 0020     		movs	r0, #0
 351              	.LVL45:
 352 0016 7047     		bx	lr
 353              	.LVL46:
 354              	.L40:
 706:Generated_Source\PSoC5/emFile_1_MMC_HW_SPI.c ****         }
 707:Generated_Source\PSoC5/emFile_1_MMC_HW_SPI.c **** 
 708:Generated_Source\PSoC5/emFile_1_MMC_HW_SPI.c ****         break;
 709:Generated_Source\PSoC5/emFile_1_MMC_HW_SPI.c **** 
 710:Generated_Source\PSoC5/emFile_1_MMC_HW_SPI.c ****     default:
 711:Generated_Source\PSoC5/emFile_1_MMC_HW_SPI.c **** 
 712:Generated_Source\PSoC5/emFile_1_MMC_HW_SPI.c ****         if((Vmin <= emFile_1_MMC_DEFAULT_SUPPLY_VOLTAGE) &&
 355              		.loc 1 712 0
 356 0018 40F6E443 		movw	r3, #3300
 357 001c 9942     		cmp	r1, r3
 358 001e 09D8     		bhi	.L45
 359              		.loc 1 712 0 is_stmt 0 discriminator 1
 360 0020 40F6E343 		movw	r3, #3299
 361 0024 9A42     		cmp	r2, r3
 362 0026 07D8     		bhi	.L46
 713:Generated_Source\PSoC5/emFile_1_MMC_HW_SPI.c ****             (emFile_1_MMC_DEFAULT_SUPPLY_VOLTAGE <= Vmax))
 714:Generated_Source\PSoC5/emFile_1_MMC_HW_SPI.c ****         {
 715:Generated_Source\PSoC5/emFile_1_MMC_HW_SPI.c ****             result = emFile_1_RET_SUCCCESS;
 716:Generated_Source\PSoC5/emFile_1_MMC_HW_SPI.c ****         }
 717:Generated_Source\PSoC5/emFile_1_MMC_HW_SPI.c ****         else
 718:Generated_Source\PSoC5/emFile_1_MMC_HW_SPI.c ****         {
 719:Generated_Source\PSoC5/emFile_1_MMC_HW_SPI.c ****             result = emFile_1_RET_FAIL;
 363              		.loc 1 719 0 is_stmt 1
ARM GAS  C:\Users\Nathan\AppData\Local\Temp\cc67vpvF.s 			page 20


 364 0028 0020     		movs	r0, #0
 365              	.LVL47:
 366 002a 7047     		bx	lr
 367              	.LVL48:
 368              	.L43:
 705:Generated_Source\PSoC5/emFile_1_MMC_HW_SPI.c ****         }
 369              		.loc 1 705 0
 370 002c 0020     		movs	r0, #0
 371              	.LVL49:
 372 002e 7047     		bx	lr
 373              	.LVL50:
 374              	.L44:
 701:Generated_Source\PSoC5/emFile_1_MMC_HW_SPI.c ****         }
 375              		.loc 1 701 0
 376 0030 0120     		movs	r0, #1
 377              	.LVL51:
 378 0032 7047     		bx	lr
 379              	.LVL52:
 380              	.L45:
 381              		.loc 1 719 0
 382 0034 0020     		movs	r0, #0
 383              	.LVL53:
 384 0036 7047     		bx	lr
 385              	.LVL54:
 386              	.L46:
 715:Generated_Source\PSoC5/emFile_1_MMC_HW_SPI.c ****         }
 387              		.loc 1 715 0
 388 0038 0120     		movs	r0, #1
 389              	.LVL55:
 720:Generated_Source\PSoC5/emFile_1_MMC_HW_SPI.c ****         }
 721:Generated_Source\PSoC5/emFile_1_MMC_HW_SPI.c ****         
 722:Generated_Source\PSoC5/emFile_1_MMC_HW_SPI.c ****         break;
 723:Generated_Source\PSoC5/emFile_1_MMC_HW_SPI.c ****     }
 724:Generated_Source\PSoC5/emFile_1_MMC_HW_SPI.c **** 
 725:Generated_Source\PSoC5/emFile_1_MMC_HW_SPI.c ****     return(result);
 726:Generated_Source\PSoC5/emFile_1_MMC_HW_SPI.c **** }
 390              		.loc 1 726 0
 391 003a 7047     		bx	lr
 392              		.cfi_endproc
 393              	.LFE69:
 394              		.size	FS_MMC_HW_X_SetVoltage, .-FS_MMC_HW_X_SetVoltage
 395              		.section	.text.FS_MMC_HW_X_IsPresent,"ax",%progbits
 396              		.align	2
 397              		.global	FS_MMC_HW_X_IsPresent
 398              		.thumb
 399              		.thumb_func
 400              		.type	FS_MMC_HW_X_IsPresent, %function
 401              	FS_MMC_HW_X_IsPresent:
 402              	.LFB70:
 727:Generated_Source\PSoC5/emFile_1_MMC_HW_SPI.c **** 
 728:Generated_Source\PSoC5/emFile_1_MMC_HW_SPI.c **** 
 729:Generated_Source\PSoC5/emFile_1_MMC_HW_SPI.c **** /*******************************************************************************
 730:Generated_Source\PSoC5/emFile_1_MMC_HW_SPI.c **** * Function Name: FS_MMC_HW_X_IsPresent
 731:Generated_Source\PSoC5/emFile_1_MMC_HW_SPI.c **** ********************************************************************************
 732:Generated_Source\PSoC5/emFile_1_MMC_HW_SPI.c **** *
 733:Generated_Source\PSoC5/emFile_1_MMC_HW_SPI.c **** * Summary:
 734:Generated_Source\PSoC5/emFile_1_MMC_HW_SPI.c **** *  Returns the state of the media. If you do not know the state, return
ARM GAS  C:\Users\Nathan\AppData\Local\Temp\cc67vpvF.s 			page 21


 735:Generated_Source\PSoC5/emFile_1_MMC_HW_SPI.c **** *  FS_MEDIA_STATE_UNKNOWN and the higher layer will try to figure out if
 736:Generated_Source\PSoC5/emFile_1_MMC_HW_SPI.c **** *  a media is present.
 737:Generated_Source\PSoC5/emFile_1_MMC_HW_SPI.c **** *
 738:Generated_Source\PSoC5/emFile_1_MMC_HW_SPI.c **** * Parameters:
 739:Generated_Source\PSoC5/emFile_1_MMC_HW_SPI.c **** *  Unit                      - Device Index.
 740:Generated_Source\PSoC5/emFile_1_MMC_HW_SPI.c **** *
 741:Generated_Source\PSoC5/emFile_1_MMC_HW_SPI.c **** * Return:
 742:Generated_Source\PSoC5/emFile_1_MMC_HW_SPI.c **** *  FS_MEDIA_STATE_UNKNOWN    - Media state is unknown;
 743:Generated_Source\PSoC5/emFile_1_MMC_HW_SPI.c **** *  FS_MEDIA_NOT_PRESENT      - Media is not present;
 744:Generated_Source\PSoC5/emFile_1_MMC_HW_SPI.c **** *  FS_MEDIA_IS_PRESENT       - Media is present.
 745:Generated_Source\PSoC5/emFile_1_MMC_HW_SPI.c **** *
 746:Generated_Source\PSoC5/emFile_1_MMC_HW_SPI.c **** * Reentrant:
 747:Generated_Source\PSoC5/emFile_1_MMC_HW_SPI.c **** *  No
 748:Generated_Source\PSoC5/emFile_1_MMC_HW_SPI.c **** *
 749:Generated_Source\PSoC5/emFile_1_MMC_HW_SPI.c **** *******************************************************************************/
 750:Generated_Source\PSoC5/emFile_1_MMC_HW_SPI.c **** int FS_MMC_HW_X_IsPresent(U8 Unit)
 751:Generated_Source\PSoC5/emFile_1_MMC_HW_SPI.c **** {
 403              		.loc 1 751 0
 404              		.cfi_startproc
 405              		@ args = 0, pretend = 0, frame = 0
 406              		@ frame_needed = 0, uses_anonymous_args = 0
 407              	.LVL56:
 408 0000 08B5     		push	{r3, lr}
 409              		.cfi_def_cfa_offset 8
 410              		.cfi_offset 3, -8
 411              		.cfi_offset 14, -4
 752:Generated_Source\PSoC5/emFile_1_MMC_HW_SPI.c ****      int result;
 753:Generated_Source\PSoC5/emFile_1_MMC_HW_SPI.c **** 
 754:Generated_Source\PSoC5/emFile_1_MMC_HW_SPI.c ****     emFile_1_Init(Unit);
 412              		.loc 1 754 0
 413 0002 FFF7FEFF 		bl	emFile_1_Init
 414              	.LVL57:
 755:Generated_Source\PSoC5/emFile_1_MMC_HW_SPI.c **** 
 756:Generated_Source\PSoC5/emFile_1_MMC_HW_SPI.c ****     switch(Unit)
 757:Generated_Source\PSoC5/emFile_1_MMC_HW_SPI.c ****     {
 758:Generated_Source\PSoC5/emFile_1_MMC_HW_SPI.c ****     case 0u:
 759:Generated_Source\PSoC5/emFile_1_MMC_HW_SPI.c **** 
 760:Generated_Source\PSoC5/emFile_1_MMC_HW_SPI.c ****     case 1u:
 761:Generated_Source\PSoC5/emFile_1_MMC_HW_SPI.c **** 
 762:Generated_Source\PSoC5/emFile_1_MMC_HW_SPI.c ****     case 2u:
 763:Generated_Source\PSoC5/emFile_1_MMC_HW_SPI.c **** 
 764:Generated_Source\PSoC5/emFile_1_MMC_HW_SPI.c ****     case 3u:
 765:Generated_Source\PSoC5/emFile_1_MMC_HW_SPI.c **** 
 766:Generated_Source\PSoC5/emFile_1_MMC_HW_SPI.c ****         result = FS_MEDIA_STATE_UNKNOWN;
 767:Generated_Source\PSoC5/emFile_1_MMC_HW_SPI.c ****         break;
 768:Generated_Source\PSoC5/emFile_1_MMC_HW_SPI.c **** 
 769:Generated_Source\PSoC5/emFile_1_MMC_HW_SPI.c ****     default:
 770:Generated_Source\PSoC5/emFile_1_MMC_HW_SPI.c **** 
 771:Generated_Source\PSoC5/emFile_1_MMC_HW_SPI.c ****         result = FS_MEDIA_STATE_UNKNOWN;
 772:Generated_Source\PSoC5/emFile_1_MMC_HW_SPI.c ****         break;
 773:Generated_Source\PSoC5/emFile_1_MMC_HW_SPI.c ****     }
 774:Generated_Source\PSoC5/emFile_1_MMC_HW_SPI.c **** 
 775:Generated_Source\PSoC5/emFile_1_MMC_HW_SPI.c ****     return(result);
 776:Generated_Source\PSoC5/emFile_1_MMC_HW_SPI.c **** }
 415              		.loc 1 776 0
 416 0006 0220     		movs	r0, #2
 417 0008 08BD     		pop	{r3, pc}
ARM GAS  C:\Users\Nathan\AppData\Local\Temp\cc67vpvF.s 			page 22


 418              		.cfi_endproc
 419              	.LFE70:
 420              		.size	FS_MMC_HW_X_IsPresent, .-FS_MMC_HW_X_IsPresent
 421 000a 00BF     		.section	.text.FS_MMC_HW_X_Read,"ax",%progbits
 422              		.align	2
 423              		.global	FS_MMC_HW_X_Read
 424              		.thumb
 425              		.thumb_func
 426              		.type	FS_MMC_HW_X_Read, %function
 427              	FS_MMC_HW_X_Read:
 428              	.LFB71:
 777:Generated_Source\PSoC5/emFile_1_MMC_HW_SPI.c **** 
 778:Generated_Source\PSoC5/emFile_1_MMC_HW_SPI.c **** 
 779:Generated_Source\PSoC5/emFile_1_MMC_HW_SPI.c **** /*******************************************************************************
 780:Generated_Source\PSoC5/emFile_1_MMC_HW_SPI.c **** * Function Name: FS_MMC_HW_X_Read
 781:Generated_Source\PSoC5/emFile_1_MMC_HW_SPI.c **** ********************************************************************************
 782:Generated_Source\PSoC5/emFile_1_MMC_HW_SPI.c **** *
 783:Generated_Source\PSoC5/emFile_1_MMC_HW_SPI.c **** * Summary:
 784:Generated_Source\PSoC5/emFile_1_MMC_HW_SPI.c **** *  FS low level function. Reads a specified number of bytes from MMC card to 
 785:Generated_Source\PSoC5/emFile_1_MMC_HW_SPI.c **** *  buffer.
 786:Generated_Source\PSoC5/emFile_1_MMC_HW_SPI.c **** *
 787:Generated_Source\PSoC5/emFile_1_MMC_HW_SPI.c **** * Parameters:
 788:Generated_Source\PSoC5/emFile_1_MMC_HW_SPI.c **** *    Unit             - Device Index;
 789:Generated_Source\PSoC5/emFile_1_MMC_HW_SPI.c **** *    pData            - Pointer to a data buffer;
 790:Generated_Source\PSoC5/emFile_1_MMC_HW_SPI.c **** *    NumBytes         - Number of bytes.
 791:Generated_Source\PSoC5/emFile_1_MMC_HW_SPI.c **** *
 792:Generated_Source\PSoC5/emFile_1_MMC_HW_SPI.c **** * Return:
 793:Generated_Source\PSoC5/emFile_1_MMC_HW_SPI.c **** *  None
 794:Generated_Source\PSoC5/emFile_1_MMC_HW_SPI.c **** *
 795:Generated_Source\PSoC5/emFile_1_MMC_HW_SPI.c **** * Reentrant:
 796:Generated_Source\PSoC5/emFile_1_MMC_HW_SPI.c **** *  No
 797:Generated_Source\PSoC5/emFile_1_MMC_HW_SPI.c **** *
 798:Generated_Source\PSoC5/emFile_1_MMC_HW_SPI.c **** *******************************************************************************/
 799:Generated_Source\PSoC5/emFile_1_MMC_HW_SPI.c **** #if (CY_PSOC5)
 800:Generated_Source\PSoC5/emFile_1_MMC_HW_SPI.c ****     void  FS_MMC_HW_X_Read (U8 Unit, U8 * pData, int NumBytes)
 801:Generated_Source\PSoC5/emFile_1_MMC_HW_SPI.c ****     {
 429              		.loc 1 801 0
 430              		.cfi_startproc
 431              		@ args = 0, pretend = 0, frame = 0
 432              		@ frame_needed = 0, uses_anonymous_args = 0
 433              	.LVL58:
 434 0000 F8B5     		push	{r3, r4, r5, r6, r7, lr}
 435              		.cfi_def_cfa_offset 24
 436              		.cfi_offset 3, -24
 437              		.cfi_offset 4, -20
 438              		.cfi_offset 5, -16
 439              		.cfi_offset 6, -12
 440              		.cfi_offset 7, -8
 441              		.cfi_offset 14, -4
 442 0002 0746     		mov	r7, r0
 443 0004 0D46     		mov	r5, r1
 444 0006 1446     		mov	r4, r2
 445              	.LVL59:
 446              	.L50:
 802:Generated_Source\PSoC5/emFile_1_MMC_HW_SPI.c ****         do
 803:Generated_Source\PSoC5/emFile_1_MMC_HW_SPI.c ****         {
 804:Generated_Source\PSoC5/emFile_1_MMC_HW_SPI.c ****             *pData++ = emFile_1_ReadWriteSPI(Unit, 0xff);
ARM GAS  C:\Users\Nathan\AppData\Local\Temp\cc67vpvF.s 			page 23


 447              		.loc 1 804 0 discriminator 1
 448 0008 6E1C     		adds	r6, r5, #1
 449              	.LVL60:
 450 000a FF21     		movs	r1, #255
 451 000c 3846     		mov	r0, r7
 452 000e FFF7FEFF 		bl	emFile_1_ReadWriteSPI
 453              	.LVL61:
 454 0012 2870     		strb	r0, [r5]
 455              	.LVL62:
 456 0014 3546     		mov	r5, r6
 805:Generated_Source\PSoC5/emFile_1_MMC_HW_SPI.c ****         } while (--NumBytes);
 457              		.loc 1 805 0 discriminator 1
 458 0016 013C     		subs	r4, r4, #1
 459              	.LVL63:
 460 0018 F6D1     		bne	.L50
 806:Generated_Source\PSoC5/emFile_1_MMC_HW_SPI.c ****     }
 461              		.loc 1 806 0
 462 001a F8BD     		pop	{r3, r4, r5, r6, r7, pc}
 463              		.cfi_endproc
 464              	.LFE71:
 465              		.size	FS_MMC_HW_X_Read, .-FS_MMC_HW_X_Read
 466              		.section	.text.FS_MMC_HW_X_Write,"ax",%progbits
 467              		.align	2
 468              		.global	FS_MMC_HW_X_Write
 469              		.thumb
 470              		.thumb_func
 471              		.type	FS_MMC_HW_X_Write, %function
 472              	FS_MMC_HW_X_Write:
 473              	.LFB72:
 807:Generated_Source\PSoC5/emFile_1_MMC_HW_SPI.c **** #else
 808:Generated_Source\PSoC5/emFile_1_MMC_HW_SPI.c ****     void  FS_MMC_HW_X_Read (U8 Unit, U8 xdata * pData, int NumBytes)
 809:Generated_Source\PSoC5/emFile_1_MMC_HW_SPI.c ****     {
 810:Generated_Source\PSoC5/emFile_1_MMC_HW_SPI.c ****         do
 811:Generated_Source\PSoC5/emFile_1_MMC_HW_SPI.c ****         {
 812:Generated_Source\PSoC5/emFile_1_MMC_HW_SPI.c ****             *pData++ = emFile_1_ReadWriteSPI(Unit, 0xff);
 813:Generated_Source\PSoC5/emFile_1_MMC_HW_SPI.c ****         } while (--NumBytes);
 814:Generated_Source\PSoC5/emFile_1_MMC_HW_SPI.c ****     }
 815:Generated_Source\PSoC5/emFile_1_MMC_HW_SPI.c **** #endif /* (CY_PSOC5) */
 816:Generated_Source\PSoC5/emFile_1_MMC_HW_SPI.c **** 
 817:Generated_Source\PSoC5/emFile_1_MMC_HW_SPI.c **** 
 818:Generated_Source\PSoC5/emFile_1_MMC_HW_SPI.c **** /*******************************************************************************
 819:Generated_Source\PSoC5/emFile_1_MMC_HW_SPI.c **** * Function Name: FS_MMC_HW_X_Write
 820:Generated_Source\PSoC5/emFile_1_MMC_HW_SPI.c **** ********************************************************************************
 821:Generated_Source\PSoC5/emFile_1_MMC_HW_SPI.c **** *
 822:Generated_Source\PSoC5/emFile_1_MMC_HW_SPI.c **** * Summary:
 823:Generated_Source\PSoC5/emFile_1_MMC_HW_SPI.c **** *  FS low level function. Writes a specified number of bytes from
 824:Generated_Source\PSoC5/emFile_1_MMC_HW_SPI.c **** *  data buffer to the MMC/SD card.
 825:Generated_Source\PSoC5/emFile_1_MMC_HW_SPI.c **** *
 826:Generated_Source\PSoC5/emFile_1_MMC_HW_SPI.c **** * Parameters:
 827:Generated_Source\PSoC5/emFile_1_MMC_HW_SPI.c **** *    Unit             - Device Index;
 828:Generated_Source\PSoC5/emFile_1_MMC_HW_SPI.c **** *    pData            - Pointer to a data buffer;
 829:Generated_Source\PSoC5/emFile_1_MMC_HW_SPI.c **** *    NumBytes         - Number of bytes.
 830:Generated_Source\PSoC5/emFile_1_MMC_HW_SPI.c **** *
 831:Generated_Source\PSoC5/emFile_1_MMC_HW_SPI.c **** * Return:
 832:Generated_Source\PSoC5/emFile_1_MMC_HW_SPI.c **** *  None
 833:Generated_Source\PSoC5/emFile_1_MMC_HW_SPI.c **** *
 834:Generated_Source\PSoC5/emFile_1_MMC_HW_SPI.c **** * Reentrant:
ARM GAS  C:\Users\Nathan\AppData\Local\Temp\cc67vpvF.s 			page 24


 835:Generated_Source\PSoC5/emFile_1_MMC_HW_SPI.c **** *  No
 836:Generated_Source\PSoC5/emFile_1_MMC_HW_SPI.c **** *
 837:Generated_Source\PSoC5/emFile_1_MMC_HW_SPI.c **** *******************************************************************************/
 838:Generated_Source\PSoC5/emFile_1_MMC_HW_SPI.c **** #if (CY_PSOC5)
 839:Generated_Source\PSoC5/emFile_1_MMC_HW_SPI.c ****     void  FS_MMC_HW_X_Write(U8 Unit, const U8 * pData, int NumBytes) 
 840:Generated_Source\PSoC5/emFile_1_MMC_HW_SPI.c ****     {
 474              		.loc 1 840 0
 475              		.cfi_startproc
 476              		@ args = 0, pretend = 0, frame = 0
 477              		@ frame_needed = 0, uses_anonymous_args = 0
 478              	.LVL64:
 479 0000 70B5     		push	{r4, r5, r6, lr}
 480              		.cfi_def_cfa_offset 16
 481              		.cfi_offset 4, -16
 482              		.cfi_offset 5, -12
 483              		.cfi_offset 6, -8
 484              		.cfi_offset 14, -4
 485 0002 0646     		mov	r6, r0
 486 0004 1446     		mov	r4, r2
 487              	.LVL65:
 488              	.L53:
 841:Generated_Source\PSoC5/emFile_1_MMC_HW_SPI.c ****         do
 842:Generated_Source\PSoC5/emFile_1_MMC_HW_SPI.c ****         {
 843:Generated_Source\PSoC5/emFile_1_MMC_HW_SPI.c ****             emFile_1_ReadWriteSPI(Unit, *pData++);
 489              		.loc 1 843 0 discriminator 1
 490 0006 4D1C     		adds	r5, r1, #1
 491              	.LVL66:
 492 0008 0978     		ldrb	r1, [r1]	@ zero_extendqisi2
 493 000a 3046     		mov	r0, r6
 494 000c FFF7FEFF 		bl	emFile_1_ReadWriteSPI
 495              	.LVL67:
 496 0010 2946     		mov	r1, r5
 844:Generated_Source\PSoC5/emFile_1_MMC_HW_SPI.c ****         } while (--NumBytes);
 497              		.loc 1 844 0 discriminator 1
 498 0012 013C     		subs	r4, r4, #1
 499              	.LVL68:
 500 0014 F7D1     		bne	.L53
 845:Generated_Source\PSoC5/emFile_1_MMC_HW_SPI.c ****     }
 501              		.loc 1 845 0
 502 0016 70BD     		pop	{r4, r5, r6, pc}
 503              		.cfi_endproc
 504              	.LFE72:
 505              		.size	FS_MMC_HW_X_Write, .-FS_MMC_HW_X_Write
 506              		.bss
 507              		.set	.LANCHOR0,. + 0
 508              		.type	emFile_1_isInited0, %object
 509              		.size	emFile_1_isInited0, 1
 510              	emFile_1_isInited0:
 511 0000 00       		.space	1
 512              		.text
 513              	.Letext0:
 514              		.file 2 "c:\\program files (x86)\\cypress\\psoc creator\\4.2\\psoc creator\\import\\gnu\\arm\\5.4.
 515              		.file 3 "c:\\program files (x86)\\cypress\\psoc creator\\4.2\\psoc creator\\import\\gnu\\arm\\5.4.
 516              		.file 4 "Generated_Source\\PSoC5/cytypes.h"
 517              		.file 5 "Generated_Source\\PSoC5\\emFile_1_Clock_1.h"
 518              		.file 6 "Generated_Source\\PSoC5\\emFile_1_SPI0.h"
 519              		.file 7 "Generated_Source\\PSoC5\\emFile_1_SPI0_CS.h"
ARM GAS  C:\Users\Nathan\AppData\Local\Temp\cc67vpvF.s 			page 25


 520              		.file 8 "Generated_Source\\PSoC5/core_cm3.h"