ARM GAS  C:\Users\Nathan\AppData\Local\Temp\ccRwkaXc.s 			page 1


   1              		.syntax unified
   2              		.cpu cortex-m3
   3              		.fpu softvfp
   4              		.eabi_attribute 20, 1
   5              		.eabi_attribute 21, 1
   6              		.eabi_attribute 23, 3
   7              		.eabi_attribute 24, 1
   8              		.eabi_attribute 25, 1
   9              		.eabi_attribute 26, 1
  10              		.eabi_attribute 30, 4
  11              		.eabi_attribute 34, 1
  12              		.eabi_attribute 18, 4
  13              		.thumb
  14              		.syntax unified
  15              		.file	"Adafruit_GPS.c"
  16              		.text
  17              	.Ltext0:
  18              		.cfi_sections	.debug_frame
  19              		.section	.text.GPS_Start,"ax",%progbits
  20              		.align	1
  21              		.global	GPS_Start
  22              		.thumb
  23              		.thumb_func
  24              		.type	GPS_Start, %function
  25              	GPS_Start:
  26              	.LFB63:
  27              		.file 1 "Adafruit_GPS.c"
   1:Adafruit_GPS.c **** /* ========================================
   2:Adafruit_GPS.c ****  *
   3:Adafruit_GPS.c ****  * Copyright YOUR COMPANY, THE YEAR
   4:Adafruit_GPS.c ****  * All Rights Reserved
   5:Adafruit_GPS.c ****  * UNPUBLISHED, LICENSED SOFTWARE.
   6:Adafruit_GPS.c ****  *
   7:Adafruit_GPS.c ****  * CONFIDENTIAL AND PROPRIETARY INFORMATION
   8:Adafruit_GPS.c ****  * WHICH IS THE PROPERTY OF your company.
   9:Adafruit_GPS.c ****  *
  10:Adafruit_GPS.c ****  * ========================================
  11:Adafruit_GPS.c **** */
  12:Adafruit_GPS.c **** 
  13:Adafruit_GPS.c **** #include "Adafruit_GPS.h"
  14:Adafruit_GPS.c **** 
  15:Adafruit_GPS.c **** 
  16:Adafruit_GPS.c **** 
  17:Adafruit_GPS.c **** /*----------------------------- GPS FUNCTIONS  --------------------------------------- */
  18:Adafruit_GPS.c **** 
  19:Adafruit_GPS.c **** void GPS_Start(){
  28              		.loc 1 19 0
  29              		.cfi_startproc
  30              		@ args = 0, pretend = 0, frame = 0
  31              		@ frame_needed = 0, uses_anonymous_args = 0
  32 0000 08B5     		push	{r3, lr}
  33              		.cfi_def_cfa_offset 8
  34              		.cfi_offset 3, -8
  35              		.cfi_offset 14, -4
  20:Adafruit_GPS.c ****     
  21:Adafruit_GPS.c ****         UART_GPS_Start();
  36              		.loc 1 21 0
ARM GAS  C:\Users\Nathan\AppData\Local\Temp\ccRwkaXc.s 			page 2


  37 0002 FFF7FEFF 		bl	UART_GPS_Start
  38              	.LVL0:
  22:Adafruit_GPS.c ****         CyDelay(250);
  39              		.loc 1 22 0
  40 0006 FA20     		movs	r0, #250
  41 0008 FFF7FEFF 		bl	CyDelay
  42              	.LVL1:
  23:Adafruit_GPS.c ****         
  24:Adafruit_GPS.c ****         UART_GPS_PutString(PMTK_SET_NMEA_OUTPUT_RMCGGA);
  43              		.loc 1 24 0
  44 000c 0948     		ldr	r0, .L2
  45 000e FFF7FEFF 		bl	UART_GPS_PutString
  46              	.LVL2:
  25:Adafruit_GPS.c ****         //UART_GPS_PutString(PMTK_SET_NMEA_OUTPUT_RMCONLY);
  26:Adafruit_GPS.c ****         
  27:Adafruit_GPS.c ****         CyDelay(200);        
  47              		.loc 1 27 0
  48 0012 C820     		movs	r0, #200
  49 0014 FFF7FEFF 		bl	CyDelay
  50              	.LVL3:
  28:Adafruit_GPS.c ****         UART_GPS_PutString(PMTK_SET_BAUD_57600);
  51              		.loc 1 28 0
  52 0018 0748     		ldr	r0, .L2+4
  53 001a FFF7FEFF 		bl	UART_GPS_PutString
  54              	.LVL4:
  29:Adafruit_GPS.c ****         CyDelay(200);
  55              		.loc 1 29 0
  56 001e C820     		movs	r0, #200
  57 0020 FFF7FEFF 		bl	CyDelay
  58              	.LVL5:
  30:Adafruit_GPS.c ****         Clock_UART_GPS_SetDivider(52);
  59              		.loc 1 30 0
  60 0024 0121     		movs	r1, #1
  61 0026 3420     		movs	r0, #52
  62 0028 FFF7FEFF 		bl	Clock_UART_GPS_SetDividerRegister
  63              	.LVL6:
  31:Adafruit_GPS.c ****         UART_GPS_ClearRxBuffer();
  32:Adafruit_GPS.c **** }
  64              		.loc 1 32 0
  65 002c BDE80840 		pop	{r3, lr}
  66              		.cfi_restore 14
  67              		.cfi_restore 3
  68              		.cfi_def_cfa_offset 0
  31:Adafruit_GPS.c ****         UART_GPS_ClearRxBuffer();
  69              		.loc 1 31 0
  70 0030 FFF7FEBF 		b	UART_GPS_ClearRxBuffer
  71              	.LVL7:
  72              	.L3:
  73              		.align	2
  74              	.L2:
  75 0034 00000000 		.word	.LC0
  76 0038 34000000 		.word	.LC1
  77              		.cfi_endproc
  78              	.LFE63:
  79              		.size	GPS_Start, .-GPS_Start
  80              		.section	.text.GPS_Refresh,"ax",%progbits
  81              		.align	1
ARM GAS  C:\Users\Nathan\AppData\Local\Temp\ccRwkaXc.s 			page 3


  82              		.global	GPS_Refresh
  83              		.thumb
  84              		.thumb_func
  85              		.type	GPS_Refresh, %function
  86              	GPS_Refresh:
  87              	.LFB64:
  33:Adafruit_GPS.c **** 
  34:Adafruit_GPS.c **** 
  35:Adafruit_GPS.c **** 
  36:Adafruit_GPS.c **** 
  37:Adafruit_GPS.c **** 
  38:Adafruit_GPS.c **** 
  39:Adafruit_GPS.c **** 
  40:Adafruit_GPS.c **** 
  41:Adafruit_GPS.c **** void GPS_Refresh(){
  88              		.loc 1 41 0
  89              		.cfi_startproc
  90              		@ args = 0, pretend = 0, frame = 0
  91              		@ frame_needed = 0, uses_anonymous_args = 0
  92              	.LVL8:
  93 0000 2DE9F843 		push	{r3, r4, r5, r6, r7, r8, r9, lr}
  94              		.cfi_def_cfa_offset 32
  95              		.cfi_offset 3, -32
  96              		.cfi_offset 4, -28
  97              		.cfi_offset 5, -24
  98              		.cfi_offset 6, -20
  99              		.cfi_offset 7, -16
 100              		.cfi_offset 8, -12
 101              		.cfi_offset 9, -8
 102              		.cfi_offset 14, -4
  42:Adafruit_GPS.c ****     static uint8 temp = 0;    
  43:Adafruit_GPS.c ****     
  44:Adafruit_GPS.c **** //    UART_GPS_RX_STS_FIFO_NOTEMPTY //If set, indicates the FIFO has data available.
  45:Adafruit_GPS.c **** //    UART_GPS_RX_STS_PAR_ERROR  //If set, indicates a parity error was detected.
  46:Adafruit_GPS.c **** //    UART_GPS_RX_STS_STOP_ERROR //If set, indicates a framing error was detected. The framing erro
  47:Adafruit_GPS.c **** //    UART_GPS_RX_STS_BREAK      //If set, indicates a break was detected.
  48:Adafruit_GPS.c **** //    UART_GPS_RX_STS_OVERRUN    //If set, indicates the FIFO buffer was overrun.
  49:Adafruit_GPS.c **** //    UART_GPS_RX_STS_ADDR_MATCH //Indicates that the received byte matches one of the two addresse
  50:Adafruit_GPS.c **** //    UART_GPS_RX_STS_MRKSPC     //Status of the mark/space parity bit. This bit indicates whether 
  51:Adafruit_GPS.c **** //    UART_GPS_RX_STS_SOFT_BUFF_OVER   //If set, indicates the RX buffer was overrun.
  52:Adafruit_GPS.c ****     U8 i = 0;
  53:Adafruit_GPS.c ****     if( UART_GPS_GetRxBufferSize() >= 50)
 103              		.loc 1 53 0
 104 0004 FFF7FEFF 		bl	UART_GPS_GetRxBufferSize
 105              	.LVL9:
 106 0008 3128     		cmp	r0, #49
 107 000a 30D9     		bls	.L4
 108 000c 194F     		ldr	r7, .L21
  54:Adafruit_GPS.c ****     {
  55:Adafruit_GPS.c ****         
  56:Adafruit_GPS.c ****         while( UART_GPS_GetRxBufferSize() )
  57:Adafruit_GPS.c ****         {
  58:Adafruit_GPS.c ****             temp = UART_GPS_GetChar();
  59:Adafruit_GPS.c ****             if (temp== '\n')
  60:Adafruit_GPS.c ****             {
  61:Adafruit_GPS.c ****                 break;
  62:Adafruit_GPS.c ****             }
ARM GAS  C:\Users\Nathan\AppData\Local\Temp\ccRwkaXc.s 			page 4


  63:Adafruit_GPS.c ****             
  64:Adafruit_GPS.c ****             
  65:Adafruit_GPS.c ****             if(NewGPSData ==0){
  66:Adafruit_GPS.c ****                 GPS_RMC_Data[i] = temp;
  67:Adafruit_GPS.c ****             }
  68:Adafruit_GPS.c ****             if(NewGPSData ==2){
  69:Adafruit_GPS.c ****                 GPS_GGA_Data[i] = temp;
 109              		.loc 1 69 0
 110 000e DFF86880 		ldr	r8, .L21+4
  66:Adafruit_GPS.c ****             }
 111              		.loc 1 66 0
 112 0012 DFF86890 		ldr	r9, .L21+8
 113 0016 0025     		movs	r5, #0
 114              	.LVL10:
 115              	.L6:
  56:Adafruit_GPS.c ****         {
 116              		.loc 1 56 0
 117 0018 FFF7FEFF 		bl	UART_GPS_GetRxBufferSize
 118              	.LVL11:
 119 001c ECB2     		uxtb	r4, r5
 120              	.LVL12:
 121 001e 154E     		ldr	r6, .L21
 122 0020 18B1     		cbz	r0, .L14
  58:Adafruit_GPS.c ****             if (temp== '\n')
 123              		.loc 1 58 0
 124 0022 FFF7FEFF 		bl	UART_GPS_GetChar
 125              	.LVL13:
  59:Adafruit_GPS.c ****             {
 126              		.loc 1 59 0
 127 0026 0A28     		cmp	r0, #10
 128 0028 06D1     		bne	.L7
 129              	.L14:
  70:Adafruit_GPS.c ****             }
  71:Adafruit_GPS.c ****             i++;
  72:Adafruit_GPS.c ****         }
  73:Adafruit_GPS.c ****         
  74:Adafruit_GPS.c ****         //NewGPSData works as a state machine. Set to 0 initially, then 1 after RMC data is written
  75:Adafruit_GPS.c ****         //2 when  rmc data is sent, three when GGA data is written, and back to zero when GGA is se
  76:Adafruit_GPS.c ****         if(NewGPSData == 0)
 130              		.loc 1 76 0
 131 002a 3378     		ldrb	r3, [r6]	@ zero_extendqisi2
 132 002c 13B1     		cbz	r3, .L8
  77:Adafruit_GPS.c ****         {
  78:Adafruit_GPS.c ****             //Nullify the unused elements in the RMC array
  79:Adafruit_GPS.c ****             for (i = i;i<100; ++i)
  80:Adafruit_GPS.c ****             {
  81:Adafruit_GPS.c ****                 GPS_RMC_Data[i] = '\0';  
  82:Adafruit_GPS.c ****             }
  83:Adafruit_GPS.c ****             //Prepares the state machine to write the RMC data
  84:Adafruit_GPS.c ****             NewGPSData = 1; 
  85:Adafruit_GPS.c ****         }
  86:Adafruit_GPS.c ****         
  87:Adafruit_GPS.c ****         else
  88:Adafruit_GPS.c ****         {
  89:Adafruit_GPS.c ****             //Nullify the unused elements in the GGA array
  90:Adafruit_GPS.c ****             for (i = i;i<100; ++i)
  91:Adafruit_GPS.c ****             {
ARM GAS  C:\Users\Nathan\AppData\Local\Temp\ccRwkaXc.s 			page 5


  92:Adafruit_GPS.c ****                 GPS_GGA_Data[i] = '\0';  
 133              		.loc 1 92 0 discriminator 1
 134 002e 124B     		ldr	r3, .L21+4
 135 0030 0022     		movs	r2, #0
 136 0032 14E0     		b	.L9
 137              	.L8:
  81:Adafruit_GPS.c ****             }
 138              		.loc 1 81 0 discriminator 1
 139 0034 114A     		ldr	r2, .L21+8
 140 0036 0AE0     		b	.L10
 141              	.L7:
  65:Adafruit_GPS.c ****                 GPS_RMC_Data[i] = temp;
 142              		.loc 1 65 0
 143 0038 3B78     		ldrb	r3, [r7]	@ zero_extendqisi2
 144 003a 13B9     		cbnz	r3, .L11
  66:Adafruit_GPS.c ****             }
 145              		.loc 1 66 0
 146 003c 09F80400 		strb	r0, [r9, r4]
 147 0040 03E0     		b	.L12
 148              	.L11:
  68:Adafruit_GPS.c ****                 GPS_GGA_Data[i] = temp;
 149              		.loc 1 68 0
 150 0042 022B     		cmp	r3, #2
  69:Adafruit_GPS.c ****             }
 151              		.loc 1 69 0
 152 0044 08BF     		it	eq
 153 0046 08F80400 		strbeq	r0, [r8, r4]
 154              	.L12:
 155              	.LVL14:
 156 004a 0135     		adds	r5, r5, #1
 157              	.LVL15:
 158 004c E4E7     		b	.L6
 159              	.LVL16:
 160              	.L10:
  79:Adafruit_GPS.c ****             {
 161              		.loc 1 79 0 discriminator 1
 162 004e 632C     		cmp	r4, #99
 163 0050 03D8     		bhi	.L19
  81:Adafruit_GPS.c ****             }
 164              		.loc 1 81 0 discriminator 3
 165 0052 1355     		strb	r3, [r2, r4]
  79:Adafruit_GPS.c ****             {
 166              		.loc 1 79 0 discriminator 3
 167 0054 0134     		adds	r4, r4, #1
 168              	.LVL17:
 169 0056 E4B2     		uxtb	r4, r4
 170              	.LVL18:
 171 0058 F9E7     		b	.L10
 172              	.L19:
  84:Adafruit_GPS.c ****         }
 173              		.loc 1 84 0
 174 005a 0123     		movs	r3, #1
 175 005c 06E0     		b	.L17
 176              	.L9:
  90:Adafruit_GPS.c ****             {
 177              		.loc 1 90 0 discriminator 1
 178 005e 632C     		cmp	r4, #99
ARM GAS  C:\Users\Nathan\AppData\Local\Temp\ccRwkaXc.s 			page 6


 179 0060 03D8     		bhi	.L20
 180              		.loc 1 92 0 discriminator 3
 181 0062 1A55     		strb	r2, [r3, r4]
  90:Adafruit_GPS.c ****             {
 182              		.loc 1 90 0 discriminator 3
 183 0064 0134     		adds	r4, r4, #1
 184              	.LVL19:
 185 0066 E4B2     		uxtb	r4, r4
 186              	.LVL20:
 187 0068 F9E7     		b	.L9
 188              	.L20:
  93:Adafruit_GPS.c ****             }
  94:Adafruit_GPS.c ****             //Prepares state machine to Write GGA data
  95:Adafruit_GPS.c ****             NewGPSData = 3;  
 189              		.loc 1 95 0
 190 006a 0323     		movs	r3, #3
 191              	.L17:
 192 006c 3370     		strb	r3, [r6]
 193              	.LVL21:
 194              	.L4:
 195 006e BDE8F883 		pop	{r3, r4, r5, r6, r7, r8, r9, pc}
 196              	.L22:
 197 0072 00BF     		.align	2
 198              	.L21:
 199 0074 00000000 		.word	.LANCHOR0
 200 0078 00000000 		.word	GPS_GGA_Data
 201 007c 00000000 		.word	GPS_RMC_Data
 202              		.cfi_endproc
 203              	.LFE64:
 204              		.size	GPS_Refresh, .-GPS_Refresh
 205              		.global	NewGPSData
 206              		.comm	GPS_GGA_Data,100,1
 207              		.comm	GPS_RMC_Data,100,1
 208              		.section	.rodata.str1.1,"aMS",%progbits,1
 209              	.LC0:
 210 0000 24504D54 		.ascii	"$PMTK314,0,1,0,1,0,0,0,0,0,0,0,0,0,0,0,0,0,0,0*28\015"
 210      4B333134 
 210      2C302C31 
 210      2C302C31 
 210      2C302C30 
 211 0032 0A00     		.ascii	"\012\000"
 212              	.LC1:
 213 0034 24504D54 		.ascii	"$PMTK251,57600*2C\015\012\000"
 213      4B323531 
 213      2C353736 
 213      30302A32 
 213      430D0A00 
 214              		.bss
 215              		.set	.LANCHOR0,. + 0
 216              		.type	NewGPSData, %object
 217              		.size	NewGPSData, 1
 218              	NewGPSData:
 219 0000 00       		.space	1
 220              		.text
 221              	.Letext0:
 222              		.file 2 "c:\\program files (x86)\\cypress\\psoc creator\\4.1\\psoc creator\\import\\gnu\\arm\\5.4.
 223              		.file 3 "c:\\program files (x86)\\cypress\\psoc creator\\4.1\\psoc creator\\import\\gnu\\arm\\5.4.
ARM GAS  C:\Users\Nathan\AppData\Local\Temp\ccRwkaXc.s 			page 7


 224              		.file 4 "Generated_Source\\PSoC5/cytypes.h"
 225              		.file 5 "Generated_Source\\PSoC5/core_cm3.h"
 226              		.file 6 "Adafruit_GPS.h"
 227              		.file 7 "Generated_Source\\PSoC5/UART_GPS.h"
 228              		.file 8 "Generated_Source\\PSoC5/CyLib.h"
 229              		.file 9 "Generated_Source\\PSoC5/Clock_UART_GPS.h"