ARM GAS  C:\Users\Nathan\AppData\Local\Temp\cc4oyi3Q.s 			page 1


   1              		.syntax unified
   2              		.cpu cortex-m3
   3              		.fpu softvfp
   4              		.eabi_attribute 20, 1
   5              		.eabi_attribute 21, 1
   6              		.eabi_attribute 23, 3
   7              		.eabi_attribute 24, 1
   8              		.eabi_attribute 25, 1
   9              		.eabi_attribute 26, 1
  10              		.eabi_attribute 30, 4
  11              		.eabi_attribute 34, 1
  12              		.eabi_attribute 18, 4
  13              		.thumb
  14              		.syntax unified
  15              		.file	"Adafruit_BNO055.c"
  16              		.text
  17              	.Ltext0:
  18              		.cfi_sections	.debug_frame
  19              		.section	.text.Write_AGM_Config,"ax",%progbits
  20              		.align	1
  21              		.global	Write_AGM_Config
  22              		.thumb
  23              		.thumb_func
  24              		.type	Write_AGM_Config, %function
  25              	Write_AGM_Config:
  26              	.LFB64:
  27              		.file 1 "Adafruit_BNO055.c"
   1:Adafruit_BNO055.c **** /* ========================================
   2:Adafruit_BNO055.c ****  *
   3:Adafruit_BNO055.c ****  * Copyright YOUR COMPANY, THE YEAR
   4:Adafruit_BNO055.c ****  * All Rights Reserved
   5:Adafruit_BNO055.c ****  * UNPUBLISHED, LICENSED SOFTWARE.
   6:Adafruit_BNO055.c ****  *
   7:Adafruit_BNO055.c ****  * CONFIDENTIAL AND PROPRIETARY INFORMATION
   8:Adafruit_BNO055.c ****  * WHICH IS THE PROPERTY OF your company.
   9:Adafruit_BNO055.c ****  *
  10:Adafruit_BNO055.c ****  * ========================================
  11:Adafruit_BNO055.c **** */
  12:Adafruit_BNO055.c **** 
  13:Adafruit_BNO055.c **** #include "Adafruit_BNO055.h"
  14:Adafruit_BNO055.c **** 
  15:Adafruit_BNO055.c **** 
  16:Adafruit_BNO055.c **** //-------------------Orientation (ACCEL/GYRO/MAG) Functions --------------------
  17:Adafruit_BNO055.c **** 
  18:Adafruit_BNO055.c **** 
  19:Adafruit_BNO055.c **** void AGM_Start(){
  20:Adafruit_BNO055.c ****     //Starts and configures the Accel/Gyro/Mag Sensor
  21:Adafruit_BNO055.c ****     
  22:Adafruit_BNO055.c ****     I2C_Orientation_Start();
  23:Adafruit_BNO055.c ****     CyDelay(300);
  24:Adafruit_BNO055.c ****    
  25:Adafruit_BNO055.c **** 
  26:Adafruit_BNO055.c ****     
  27:Adafruit_BNO055.c ****     /*while (I2C_Orientation_MSTAT_RD_CMPLT != I2C_Orientation_MasterStatus())
  28:Adafruit_BNO055.c ****     {
  29:Adafruit_BNO055.c ****     }*/
  30:Adafruit_BNO055.c ****     
ARM GAS  C:\Users\Nathan\AppData\Local\Temp\cc4oyi3Q.s 			page 2


  31:Adafruit_BNO055.c ****     //BNO055_ADDRESS_A;
  32:Adafruit_BNO055.c ****     //adafruit_bno055_reg_t           Reg    = 2;
  33:Adafruit_BNO055.c ****     //adafruit_bno055_powermode_t     Power  = POWER_MODE_NORMAL;
  34:Adafruit_BNO055.c ****     //adafruit_bno055_opmode_t        OPMODE = OPERATION_MODE_CONFIG;
  35:Adafruit_BNO055.c ****     
  36:Adafruit_BNO055.c ****     //static uint8 DataWrite;
  37:Adafruit_BNO055.c ****     //uint8* DataAddr = &DataWrite;
  38:Adafruit_BNO055.c ****     
  39:Adafruit_BNO055.c ****     
  40:Adafruit_BNO055.c ****     
  41:Adafruit_BNO055.c ****     //Set to configuration mode
  42:Adafruit_BNO055.c ****     Write_AGM_Config(BNO055_OPR_MODE_ADDR , OPERATION_MODE_CONFIG);
  43:Adafruit_BNO055.c ****     
  44:Adafruit_BNO055.c ****     /* Set to normal power mode */
  45:Adafruit_BNO055.c ****     Write_AGM_Config(BNO055_PWR_MODE_ADDR, POWER_MODE_NORMAL);
  46:Adafruit_BNO055.c **** 
  47:Adafruit_BNO055.c ****     
  48:Adafruit_BNO055.c **** 
  49:Adafruit_BNO055.c **** 
  50:Adafruit_BNO055.c ****     Write_AGM_Config(BNO055_PAGE_ID_ADDR, 0);
  51:Adafruit_BNO055.c ****   
  52:Adafruit_BNO055.c ****     
  53:Adafruit_BNO055.c ****     /* Set the output units */
  54:Adafruit_BNO055.c ****     uint8_t unitsel = (0 << 7) | // Orientation:    0 = Android  1 = Windows
  55:Adafruit_BNO055.c ****                       (1 << 4) | // Temperature:    0 = Celcius  1 = Farenheit
  56:Adafruit_BNO055.c ****                       (1 << 2) | // Euler:          0 = Degrees  1 = Radians
  57:Adafruit_BNO055.c ****                       (1 << 1) | // Gyro:           0 = Dps      1 = Rad/s
  58:Adafruit_BNO055.c ****                       (0 << 0);  // Accelerometer   0 = m/s^2    1 = mg
  59:Adafruit_BNO055.c ****     
  60:Adafruit_BNO055.c ****     Write_AGM_Config(BNO055_UNIT_SEL_ADDR, unitsel); 
  61:Adafruit_BNO055.c ****   
  62:Adafruit_BNO055.c **** 
  63:Adafruit_BNO055.c **** 
  64:Adafruit_BNO055.c ****     // Configure axis mapping (see section 3.4)
  65:Adafruit_BNO055.c ****     Write_AGM_Config(BNO055_AXIS_MAP_CONFIG_ADDR, REMAP_CONFIG_P0); // P0-P7, Default is P1
  66:Adafruit_BNO055.c **** 
  67:Adafruit_BNO055.c **** 
  68:Adafruit_BNO055.c ****     Write_AGM_Config(BNO055_SYS_TRIGGER_ADDR, 0x0); //WHAT DOES THIS DO??
  69:Adafruit_BNO055.c ****     /* Set the requested operating mode (see section 3.3) */
  70:Adafruit_BNO055.c ****   
  71:Adafruit_BNO055.c ****       
  72:Adafruit_BNO055.c ****     //NDOF Fusion Mode. Check Euler registers or Quaternion 
  73:Adafruit_BNO055.c ****    Write_AGM_Config(BNO055_OPR_MODE_ADDR, OPERATION_MODE_NDOF);
  74:Adafruit_BNO055.c **** 
  75:Adafruit_BNO055.c ****     
  76:Adafruit_BNO055.c ****     /* -------------------- CALIBRATION -----------------------*/
  77:Adafruit_BNO055.c ****     uint8 CALIB=0  , temp = 0;
  78:Adafruit_BNO055.c ****     Timer_1_WritePeriod(500);
  79:Adafruit_BNO055.c ****     
  80:Adafruit_BNO055.c ****     while (CALIB <= 0b00010101){//FIX
  81:Adafruit_BNO055.c ****         //Send the module the address of the register to read from
  82:Adafruit_BNO055.c ****         I2C_Orientation_MasterSendStart(BNO055_ADDRESS_A, WRITE);
  83:Adafruit_BNO055.c ****         I2C_Orientation_MasterWriteByte(BNO055_CALIB_STAT_ADDR);
  84:Adafruit_BNO055.c ****         I2C_Orientation_MasterSendStop();
  85:Adafruit_BNO055.c ****         
  86:Adafruit_BNO055.c ****         //Read in data  from the next 6 registers (it will spit out until a NAck)
  87:Adafruit_BNO055.c ****         I2C_Orientation_MasterSendStart(BNO055_ADDRESS_A, READ);
ARM GAS  C:\Users\Nathan\AppData\Local\Temp\cc4oyi3Q.s 			page 3


  88:Adafruit_BNO055.c ****         CALIB = I2C_Orientation_MasterReadByte(I2C_Orientation_NAK_DATA);
  89:Adafruit_BNO055.c ****         I2C_Orientation_MasterSendStop();
  90:Adafruit_BNO055.c ****     
  91:Adafruit_BNO055.c ****         temp = Timer_1_ReadCounter();
  92:Adafruit_BNO055.c ****         if (temp >= 250)
  93:Adafruit_BNO055.c ****         {
  94:Adafruit_BNO055.c ****             LED_Write(1);
  95:Adafruit_BNO055.c ****         }
  96:Adafruit_BNO055.c ****         else
  97:Adafruit_BNO055.c ****         {
  98:Adafruit_BNO055.c ****             LED_Write(0);
  99:Adafruit_BNO055.c ****         }
 100:Adafruit_BNO055.c ****     
 101:Adafruit_BNO055.c ****     }
 102:Adafruit_BNO055.c ****     LED_Write(0u);
 103:Adafruit_BNO055.c ****     Timer_1_WritePeriod(1000);
 104:Adafruit_BNO055.c ****     
 105:Adafruit_BNO055.c ****     //-----------------------------------------------------------------
 106:Adafruit_BNO055.c ****     
 107:Adafruit_BNO055.c ****     
 108:Adafruit_BNO055.c **** 
 109:Adafruit_BNO055.c ****    return;
 110:Adafruit_BNO055.c **** }
 111:Adafruit_BNO055.c ****     
 112:Adafruit_BNO055.c ****     
 113:Adafruit_BNO055.c ****     
 114:Adafruit_BNO055.c **** 
 115:Adafruit_BNO055.c **** 
 116:Adafruit_BNO055.c **** 
 117:Adafruit_BNO055.c **** 
 118:Adafruit_BNO055.c **** void Write_AGM_Config(uint8 RegisterAdrress, uint8 DataByte){
  28              		.loc 1 118 0
  29              		.cfi_startproc
  30              		@ args = 0, pretend = 0, frame = 0
  31              		@ frame_needed = 0, uses_anonymous_args = 0
  32              	.LVL0:
  33 0000 38B5     		push	{r3, r4, r5, lr}
  34              		.cfi_def_cfa_offset 16
  35              		.cfi_offset 3, -16
  36              		.cfi_offset 4, -12
  37              		.cfi_offset 5, -8
  38              		.cfi_offset 14, -4
  39              		.loc 1 118 0
  40 0002 0546     		mov	r5, r0
  41 0004 0C46     		mov	r4, r1
 119:Adafruit_BNO055.c ****     //Check if error by checking passed value from master write byte
 120:Adafruit_BNO055.c ****     //and master start send with defined value 'I2C_Orientation_MSTR_NO_ERROR'
 121:Adafruit_BNO055.c ****     
 122:Adafruit_BNO055.c ****     I2C_Orientation_MasterSendStart(BNO055_ADDRESS_A, WRITE);
  42              		.loc 1 122 0
  43 0006 2820     		movs	r0, #40
  44              	.LVL1:
  45 0008 0021     		movs	r1, #0
  46              	.LVL2:
  47 000a FFF7FEFF 		bl	I2C_Orientation_MasterSendStart
  48              	.LVL3:
 123:Adafruit_BNO055.c ****     I2C_Orientation_MasterWriteByte(RegisterAdrress);
ARM GAS  C:\Users\Nathan\AppData\Local\Temp\cc4oyi3Q.s 			page 4


  49              		.loc 1 123 0
  50 000e 2846     		mov	r0, r5
  51 0010 FFF7FEFF 		bl	I2C_Orientation_MasterWriteByte
  52              	.LVL4:
 124:Adafruit_BNO055.c ****     I2C_Orientation_MasterWriteByte(DataByte);
  53              		.loc 1 124 0
  54 0014 2046     		mov	r0, r4
  55 0016 FFF7FEFF 		bl	I2C_Orientation_MasterWriteByte
  56              	.LVL5:
 125:Adafruit_BNO055.c ****     I2C_Orientation_MasterSendStop();
  57              		.loc 1 125 0
  58 001a FFF7FEFF 		bl	I2C_Orientation_MasterSendStop
  59              	.LVL6:
 126:Adafruit_BNO055.c ****     
 127:Adafruit_BNO055.c ****     CyDelay(50);
 128:Adafruit_BNO055.c ****     
 129:Adafruit_BNO055.c ****     return;
 130:Adafruit_BNO055.c **** }
  60              		.loc 1 130 0
  61 001e BDE83840 		pop	{r3, r4, r5, lr}
  62              		.cfi_restore 14
  63              		.cfi_restore 5
  64              		.cfi_restore 4
  65              		.cfi_restore 3
  66              		.cfi_def_cfa_offset 0
 127:Adafruit_BNO055.c ****     
  67              		.loc 1 127 0
  68 0022 3220     		movs	r0, #50
  69 0024 FFF7FEBF 		b	CyDelay
  70              	.LVL7:
  71              		.cfi_endproc
  72              	.LFE64:
  73              		.size	Write_AGM_Config, .-Write_AGM_Config
  74              		.section	.text.AGM_Start,"ax",%progbits
  75              		.align	1
  76              		.global	AGM_Start
  77              		.thumb
  78              		.thumb_func
  79              		.type	AGM_Start, %function
  80              	AGM_Start:
  81              	.LFB63:
  19:Adafruit_BNO055.c ****     //Starts and configures the Accel/Gyro/Mag Sensor
  82              		.loc 1 19 0
  83              		.cfi_startproc
  84              		@ args = 0, pretend = 0, frame = 0
  85              		@ frame_needed = 0, uses_anonymous_args = 0
  86 0000 10B5     		push	{r4, lr}
  87              		.cfi_def_cfa_offset 8
  88              		.cfi_offset 4, -8
  89              		.cfi_offset 14, -4
  22:Adafruit_BNO055.c ****     CyDelay(300);
  90              		.loc 1 22 0
  91 0002 FFF7FEFF 		bl	I2C_Orientation_Start
  92              	.LVL8:
  23:Adafruit_BNO055.c ****    
  93              		.loc 1 23 0
  94 0006 4FF49670 		mov	r0, #300
ARM GAS  C:\Users\Nathan\AppData\Local\Temp\cc4oyi3Q.s 			page 5


  95 000a FFF7FEFF 		bl	CyDelay
  96              	.LVL9:
  42:Adafruit_BNO055.c ****     
  97              		.loc 1 42 0
  98 000e 0021     		movs	r1, #0
  99 0010 3D20     		movs	r0, #61
 100 0012 FFF7FEFF 		bl	Write_AGM_Config
 101              	.LVL10:
  45:Adafruit_BNO055.c **** 
 102              		.loc 1 45 0
 103 0016 0021     		movs	r1, #0
 104 0018 3E20     		movs	r0, #62
 105 001a FFF7FEFF 		bl	Write_AGM_Config
 106              	.LVL11:
  50:Adafruit_BNO055.c ****   
 107              		.loc 1 50 0
 108 001e 0021     		movs	r1, #0
 109 0020 0720     		movs	r0, #7
 110 0022 FFF7FEFF 		bl	Write_AGM_Config
 111              	.LVL12:
  60:Adafruit_BNO055.c ****   
 112              		.loc 1 60 0
 113 0026 1621     		movs	r1, #22
 114 0028 3B20     		movs	r0, #59
 115 002a FFF7FEFF 		bl	Write_AGM_Config
 116              	.LVL13:
  65:Adafruit_BNO055.c **** 
 117              		.loc 1 65 0
 118 002e 2121     		movs	r1, #33
 119 0030 4120     		movs	r0, #65
 120 0032 FFF7FEFF 		bl	Write_AGM_Config
 121              	.LVL14:
  68:Adafruit_BNO055.c ****     /* Set the requested operating mode (see section 3.3) */
 122              		.loc 1 68 0
 123 0036 0021     		movs	r1, #0
 124 0038 3F20     		movs	r0, #63
 125 003a FFF7FEFF 		bl	Write_AGM_Config
 126              	.LVL15:
  73:Adafruit_BNO055.c **** 
 127              		.loc 1 73 0
 128 003e 3D20     		movs	r0, #61
 129 0040 0C21     		movs	r1, #12
 130 0042 FFF7FEFF 		bl	Write_AGM_Config
 131              	.LVL16:
  78:Adafruit_BNO055.c ****     
 132              		.loc 1 78 0
 133 0046 4FF4FA70 		mov	r0, #500
 134 004a FFF7FEFF 		bl	Timer_1_WritePeriod
 135              	.LVL17:
 136              	.L5:
  82:Adafruit_BNO055.c ****         I2C_Orientation_MasterWriteByte(BNO055_CALIB_STAT_ADDR);
 137              		.loc 1 82 0
 138 004e 0021     		movs	r1, #0
 139 0050 2820     		movs	r0, #40
 140 0052 FFF7FEFF 		bl	I2C_Orientation_MasterSendStart
 141              	.LVL18:
  83:Adafruit_BNO055.c ****         I2C_Orientation_MasterSendStop();
ARM GAS  C:\Users\Nathan\AppData\Local\Temp\cc4oyi3Q.s 			page 6


 142              		.loc 1 83 0
 143 0056 3520     		movs	r0, #53
 144 0058 FFF7FEFF 		bl	I2C_Orientation_MasterWriteByte
 145              	.LVL19:
  84:Adafruit_BNO055.c ****         
 146              		.loc 1 84 0
 147 005c FFF7FEFF 		bl	I2C_Orientation_MasterSendStop
 148              	.LVL20:
  87:Adafruit_BNO055.c ****         CALIB = I2C_Orientation_MasterReadByte(I2C_Orientation_NAK_DATA);
 149              		.loc 1 87 0
 150 0060 0121     		movs	r1, #1
 151 0062 2820     		movs	r0, #40
 152 0064 FFF7FEFF 		bl	I2C_Orientation_MasterSendStart
 153              	.LVL21:
  88:Adafruit_BNO055.c ****         I2C_Orientation_MasterSendStop();
 154              		.loc 1 88 0
 155 0068 0020     		movs	r0, #0
 156 006a FFF7FEFF 		bl	I2C_Orientation_MasterReadByte
 157              	.LVL22:
 158 006e 0446     		mov	r4, r0
 159              	.LVL23:
  89:Adafruit_BNO055.c ****     
 160              		.loc 1 89 0
 161 0070 FFF7FEFF 		bl	I2C_Orientation_MasterSendStop
 162              	.LVL24:
  91:Adafruit_BNO055.c ****         if (temp >= 250)
 163              		.loc 1 91 0
 164 0074 FFF7FEFF 		bl	Timer_1_ReadCounter
 165              	.LVL25:
  92:Adafruit_BNO055.c ****         {
 166              		.loc 1 92 0
 167 0078 C0B2     		uxtb	r0, r0
 168 007a F928     		cmp	r0, #249
  94:Adafruit_BNO055.c ****         }
 169              		.loc 1 94 0
 170 007c 8CBF     		ite	hi
 171 007e 0120     		movhi	r0, #1
 172              	.LVL26:
  98:Adafruit_BNO055.c ****         }
 173              		.loc 1 98 0
 174 0080 0020     		movls	r0, #0
 175 0082 FFF7FEFF 		bl	LED_Write
 176              	.LVL27:
  80:Adafruit_BNO055.c ****         //Send the module the address of the register to read from
 177              		.loc 1 80 0
 178 0086 152C     		cmp	r4, #21
 179 0088 E1D9     		bls	.L5
 102:Adafruit_BNO055.c ****     Timer_1_WritePeriod(1000);
 180              		.loc 1 102 0
 181 008a 0020     		movs	r0, #0
 182 008c FFF7FEFF 		bl	LED_Write
 183              	.LVL28:
 110:Adafruit_BNO055.c ****     
 184              		.loc 1 110 0
 185 0090 BDE81040 		pop	{r4, lr}
 186              		.cfi_restore 14
 187              		.cfi_restore 4
ARM GAS  C:\Users\Nathan\AppData\Local\Temp\cc4oyi3Q.s 			page 7


 188              		.cfi_def_cfa_offset 0
 189              	.LVL29:
 103:Adafruit_BNO055.c ****     
 190              		.loc 1 103 0
 191 0094 4FF47A70 		mov	r0, #1000
 192 0098 FFF7FEBF 		b	Timer_1_WritePeriod
 193              	.LVL30:
 194              		.cfi_endproc
 195              	.LFE63:
 196              		.size	AGM_Start, .-AGM_Start
 197              		.section	.text.AGM_EulersRefresh,"ax",%progbits
 198              		.align	1
 199              		.global	AGM_EulersRefresh
 200              		.thumb
 201              		.thumb_func
 202              		.type	AGM_EulersRefresh, %function
 203              	AGM_EulersRefresh:
 204              	.LFB65:
 131:Adafruit_BNO055.c ****     
 132:Adafruit_BNO055.c **** 
 133:Adafruit_BNO055.c **** 
 134:Adafruit_BNO055.c **** 
 135:Adafruit_BNO055.c **** 
 136:Adafruit_BNO055.c **** 
 137:Adafruit_BNO055.c **** 
 138:Adafruit_BNO055.c **** 
 139:Adafruit_BNO055.c **** 
 140:Adafruit_BNO055.c ****  
 141:Adafruit_BNO055.c **** 
 142:Adafruit_BNO055.c **** 
 143:Adafruit_BNO055.c **** void AGM_EulersRefresh(){
 205              		.loc 1 143 0
 206              		.cfi_startproc
 207              		@ args = 0, pretend = 0, frame = 0
 208              		@ frame_needed = 0, uses_anonymous_args = 0
 209 0000 70B5     		push	{r4, r5, r6, lr}
 210              		.cfi_def_cfa_offset 16
 211              		.cfi_offset 4, -16
 212              		.cfi_offset 5, -12
 213              		.cfi_offset 6, -8
 214              		.cfi_offset 14, -4
 144:Adafruit_BNO055.c ****     //Get Eulers Angles from Registers of module
 145:Adafruit_BNO055.c ****        
 146:Adafruit_BNO055.c ****     /* --------------- Euler Angles ----------------------------- */
 147:Adafruit_BNO055.c ****     //Send the module the address of the register to read from
 148:Adafruit_BNO055.c ****     I2C_Orientation_MasterSendStart(BNO055_ADDRESS_A, WRITE);
 215              		.loc 1 148 0
 216 0002 0021     		movs	r1, #0
 217 0004 2820     		movs	r0, #40
 218 0006 FFF7FEFF 		bl	I2C_Orientation_MasterSendStart
 219              	.LVL31:
 149:Adafruit_BNO055.c ****     I2C_Orientation_MasterWriteByte(BNO055_EULER_H_LSB_ADDR);
 220              		.loc 1 149 0
 221 000a 1A20     		movs	r0, #26
 222 000c FFF7FEFF 		bl	I2C_Orientation_MasterWriteByte
 223              	.LVL32:
 150:Adafruit_BNO055.c ****     I2C_Orientation_MasterSendStop();
ARM GAS  C:\Users\Nathan\AppData\Local\Temp\cc4oyi3Q.s 			page 8


 224              		.loc 1 150 0
 225 0010 FFF7FEFF 		bl	I2C_Orientation_MasterSendStop
 226              	.LVL33:
 151:Adafruit_BNO055.c ****     
 152:Adafruit_BNO055.c ****     
 153:Adafruit_BNO055.c ****     //Read in data  from the next 6 registers (it will spit out until a NAck)
 154:Adafruit_BNO055.c ****     I2C_Orientation_MasterSendStart(BNO055_ADDRESS_A, READ);
 227              		.loc 1 154 0
 228 0014 0121     		movs	r1, #1
 229 0016 2820     		movs	r0, #40
 230 0018 FFF7FEFF 		bl	I2C_Orientation_MasterSendStart
 231              	.LVL34:
 155:Adafruit_BNO055.c ****     YAW = I2C_Orientation_MasterReadByte(I2C_Orientation_ACK_DATA);
 232              		.loc 1 155 0
 233 001c 0120     		movs	r0, #1
 234 001e FFF7FEFF 		bl	I2C_Orientation_MasterReadByte
 235              	.LVL35:
 236 0022 1C4E     		ldr	r6, .L10
 156:Adafruit_BNO055.c ****     YAW = YAW + ( I2C_Orientation_MasterReadByte(I2C_Orientation_ACK_DATA) << 8 );
 157:Adafruit_BNO055.c **** 
 158:Adafruit_BNO055.c ****     ROLL = I2C_Orientation_MasterReadByte(I2C_Orientation_ACK_DATA);
 237              		.loc 1 158 0
 238 0024 1C4D     		ldr	r5, .L10+4
 155:Adafruit_BNO055.c ****     YAW = I2C_Orientation_MasterReadByte(I2C_Orientation_ACK_DATA);
 239              		.loc 1 155 0
 240 0026 3080     		strh	r0, [r6]	@ movhi
 156:Adafruit_BNO055.c ****     YAW = YAW + ( I2C_Orientation_MasterReadByte(I2C_Orientation_ACK_DATA) << 8 );
 241              		.loc 1 156 0
 242 0028 0120     		movs	r0, #1
 243 002a FFF7FEFF 		bl	I2C_Orientation_MasterReadByte
 244              	.LVL36:
 245 002e 3388     		ldrh	r3, [r6]
 159:Adafruit_BNO055.c ****     ROLL = ROLL + ( I2C_Orientation_MasterReadByte(I2C_Orientation_ACK_DATA) << 8 );
 160:Adafruit_BNO055.c ****     
 161:Adafruit_BNO055.c ****     PITCH = I2C_Orientation_MasterReadByte(I2C_Orientation_ACK_DATA);
 246              		.loc 1 161 0
 247 0030 1A4C     		ldr	r4, .L10+8
 156:Adafruit_BNO055.c ****     YAW = YAW + ( I2C_Orientation_MasterReadByte(I2C_Orientation_ACK_DATA) << 8 );
 248              		.loc 1 156 0
 249 0032 03EB0020 		add	r0, r3, r0, lsl #8
 250 0036 3080     		strh	r0, [r6]	@ movhi
 158:Adafruit_BNO055.c ****     ROLL = ROLL + ( I2C_Orientation_MasterReadByte(I2C_Orientation_ACK_DATA) << 8 );
 251              		.loc 1 158 0
 252 0038 0120     		movs	r0, #1
 253 003a FFF7FEFF 		bl	I2C_Orientation_MasterReadByte
 254              	.LVL37:
 255 003e 2880     		strh	r0, [r5]	@ movhi
 159:Adafruit_BNO055.c ****     ROLL = ROLL + ( I2C_Orientation_MasterReadByte(I2C_Orientation_ACK_DATA) << 8 );
 256              		.loc 1 159 0
 257 0040 0120     		movs	r0, #1
 258 0042 FFF7FEFF 		bl	I2C_Orientation_MasterReadByte
 259              	.LVL38:
 260 0046 2B88     		ldrh	r3, [r5]
 261 0048 03EB0020 		add	r0, r3, r0, lsl #8
 262 004c 2880     		strh	r0, [r5]	@ movhi
 263              		.loc 1 161 0
 264 004e 0120     		movs	r0, #1
ARM GAS  C:\Users\Nathan\AppData\Local\Temp\cc4oyi3Q.s 			page 9


 265 0050 FFF7FEFF 		bl	I2C_Orientation_MasterReadByte
 266              	.LVL39:
 267 0054 2080     		strh	r0, [r4]	@ movhi
 162:Adafruit_BNO055.c ****     PITCH = PITCH + ( I2C_Orientation_MasterReadByte(I2C_Orientation_NAK_DATA) << 8 ); //Send a No 
 268              		.loc 1 162 0
 269 0056 0020     		movs	r0, #0
 270 0058 FFF7FEFF 		bl	I2C_Orientation_MasterReadByte
 271              	.LVL40:
 272 005c 2388     		ldrh	r3, [r4]
 273 005e 03EB0020 		add	r0, r3, r0, lsl #8
 274 0062 2080     		strh	r0, [r4]	@ movhi
 163:Adafruit_BNO055.c ****     
 164:Adafruit_BNO055.c ****     I2C_Orientation_MasterSendStop();
 275              		.loc 1 164 0
 276 0064 FFF7FEFF 		bl	I2C_Orientation_MasterSendStop
 277              	.LVL41:
 165:Adafruit_BNO055.c ****     
 166:Adafruit_BNO055.c ****       
 167:Adafruit_BNO055.c ****     YAW = (YAW * 18000) / 2827;
 278              		.loc 1 167 0
 279 0068 44F25063 		movw	r3, #18000
 280 006c 40F60B31 		movw	r1, #2827
 281 0070 3288     		ldrh	r2, [r6]
 282 0072 5A43     		muls	r2, r3, r2
 283 0074 92FBF1F2 		sdiv	r2, r2, r1
 284 0078 3280     		strh	r2, [r6]	@ movhi
 168:Adafruit_BNO055.c ****     ROLL = (ROLL * 18000) / 2827;
 285              		.loc 1 168 0
 286 007a B5F90020 		ldrsh	r2, [r5]
 287 007e 5A43     		muls	r2, r3, r2
 288 0080 92FBF1F2 		sdiv	r2, r2, r1
 289 0084 2A80     		strh	r2, [r5]	@ movhi
 169:Adafruit_BNO055.c ****     PITCH= (PITCH * 18000) / 2827;
 290              		.loc 1 169 0
 291 0086 B4F90020 		ldrsh	r2, [r4]
 292 008a 5343     		muls	r3, r2, r3
 293 008c 93FBF1F3 		sdiv	r3, r3, r1
 294 0090 2380     		strh	r3, [r4]	@ movhi
 295 0092 70BD     		pop	{r4, r5, r6, pc}
 296              	.L11:
 297              		.align	2
 298              	.L10:
 299 0094 00000000 		.word	YAW
 300 0098 00000000 		.word	ROLL
 301 009c 00000000 		.word	PITCH
 302              		.cfi_endproc
 303              	.LFE65:
 304              		.size	AGM_EulersRefresh, .-AGM_EulersRefresh
 305              		.section	.text.AGM_AccelRefresh,"ax",%progbits
 306              		.align	1
 307              		.global	AGM_AccelRefresh
 308              		.thumb
 309              		.thumb_func
 310              		.type	AGM_AccelRefresh, %function
 311              	AGM_AccelRefresh:
 312              	.LFB66:
 170:Adafruit_BNO055.c ****     
ARM GAS  C:\Users\Nathan\AppData\Local\Temp\cc4oyi3Q.s 			page 10


 171:Adafruit_BNO055.c ****     //------------------- ALTERNATE METHOD ------------------------
 172:Adafruit_BNO055.c ****     // Probably doesn't work. Have no idea how MasterReadBuf is supposed to work
 173:Adafruit_BNO055.c ****     /*
 174:Adafruit_BNO055.c ****     uint16 ORIENTATION[7];
 175:Adafruit_BNO055.c ****     
 176:Adafruit_BNO055.c ****     I2C_Orientation_MasterSendStart(BNO055_ADDRESS_A, WRITE);
 177:Adafruit_BNO055.c ****     I2C_Orientation_MasterWriteByte(BNO055_EULER_H_LSB_ADDR);
 178:Adafruit_BNO055.c ****     I2C_Orientation_MasterSendStop();
 179:Adafruit_BNO055.c **** 
 180:Adafruit_BNO055.c ****     I2C_Orientation_MasterReadBuf(BNO055_ADDRESS_A, ORIENTATION, 6, I2C_Orientation_MODE_COMPLETE_X
 181:Adafruit_BNO055.c ****     */
 182:Adafruit_BNO055.c **** 
 183:Adafruit_BNO055.c ****     return;
 184:Adafruit_BNO055.c **** }
 185:Adafruit_BNO055.c ****     
 186:Adafruit_BNO055.c **** 
 187:Adafruit_BNO055.c **** 
 188:Adafruit_BNO055.c **** 
 189:Adafruit_BNO055.c **** 
 190:Adafruit_BNO055.c **** 
 191:Adafruit_BNO055.c **** 
 192:Adafruit_BNO055.c **** void AGM_AccelRefresh(){
 313              		.loc 1 192 0
 314              		.cfi_startproc
 315              		@ args = 0, pretend = 0, frame = 0
 316              		@ frame_needed = 0, uses_anonymous_args = 0
 317 0000 10B5     		push	{r4, lr}
 318              		.cfi_def_cfa_offset 8
 319              		.cfi_offset 4, -8
 320              		.cfi_offset 14, -4
 193:Adafruit_BNO055.c ****     //Get the linear Acceleration of the chip
 194:Adafruit_BNO055.c ****         
 195:Adafruit_BNO055.c ****     
 196:Adafruit_BNO055.c ****     /* --------------------LINEAR ACCELERATION-----------------------*/
 197:Adafruit_BNO055.c ****     //Send the module the address of the register to read from
 198:Adafruit_BNO055.c ****     I2C_Orientation_MasterSendStart(BNO055_ADDRESS_A, WRITE);
 321              		.loc 1 198 0
 322 0002 0021     		movs	r1, #0
 323 0004 2820     		movs	r0, #40
 324 0006 FFF7FEFF 		bl	I2C_Orientation_MasterSendStart
 325              	.LVL42:
 199:Adafruit_BNO055.c ****     I2C_Orientation_MasterWriteByte(BNO055_LINEAR_ACCEL_DATA_X_LSB_ADDR);
 326              		.loc 1 199 0
 327 000a 2820     		movs	r0, #40
 328 000c FFF7FEFF 		bl	I2C_Orientation_MasterWriteByte
 329              	.LVL43:
 200:Adafruit_BNO055.c ****     I2C_Orientation_MasterSendStop();
 330              		.loc 1 200 0
 331 0010 FFF7FEFF 		bl	I2C_Orientation_MasterSendStop
 332              	.LVL44:
 201:Adafruit_BNO055.c ****     
 202:Adafruit_BNO055.c ****     //Read in data  from the next 6 registers (it will spit out until a NAck)
 203:Adafruit_BNO055.c ****     I2C_Orientation_MasterSendStart(BNO055_ADDRESS_A, READ);
 333              		.loc 1 203 0
 334 0014 0121     		movs	r1, #1
 335 0016 2820     		movs	r0, #40
 336 0018 FFF7FEFF 		bl	I2C_Orientation_MasterSendStart
ARM GAS  C:\Users\Nathan\AppData\Local\Temp\cc4oyi3Q.s 			page 11


 337              	.LVL45:
 204:Adafruit_BNO055.c ****     XACCEL = I2C_Orientation_MasterReadByte(I2C_Orientation_ACK_DATA);
 338              		.loc 1 204 0
 339 001c 0120     		movs	r0, #1
 340 001e FFF7FEFF 		bl	I2C_Orientation_MasterReadByte
 341              	.LVL46:
 342 0022 124C     		ldr	r4, .L13
 343 0024 2080     		strh	r0, [r4]	@ movhi
 205:Adafruit_BNO055.c ****     XACCEL = XACCEL + ( I2C_Orientation_MasterReadByte(I2C_Orientation_ACK_DATA) << 8 );
 344              		.loc 1 205 0
 345 0026 0120     		movs	r0, #1
 346 0028 FFF7FEFF 		bl	I2C_Orientation_MasterReadByte
 347              	.LVL47:
 348 002c 2388     		ldrh	r3, [r4]
 349 002e 03EB0020 		add	r0, r3, r0, lsl #8
 350 0032 2080     		strh	r0, [r4]	@ movhi
 206:Adafruit_BNO055.c **** 
 207:Adafruit_BNO055.c ****     YACCEL = I2C_Orientation_MasterReadByte(I2C_Orientation_ACK_DATA);
 351              		.loc 1 207 0
 352 0034 0120     		movs	r0, #1
 353 0036 FFF7FEFF 		bl	I2C_Orientation_MasterReadByte
 354              	.LVL48:
 355 003a 0D4C     		ldr	r4, .L13+4
 356 003c 2080     		strh	r0, [r4]	@ movhi
 208:Adafruit_BNO055.c ****     YACCEL = YACCEL + ( I2C_Orientation_MasterReadByte(I2C_Orientation_ACK_DATA) << 8 );
 357              		.loc 1 208 0
 358 003e 0120     		movs	r0, #1
 359 0040 FFF7FEFF 		bl	I2C_Orientation_MasterReadByte
 360              	.LVL49:
 361 0044 2388     		ldrh	r3, [r4]
 362 0046 03EB0020 		add	r0, r3, r0, lsl #8
 363 004a 2080     		strh	r0, [r4]	@ movhi
 209:Adafruit_BNO055.c ****     
 210:Adafruit_BNO055.c ****     ZACCEL = I2C_Orientation_MasterReadByte(I2C_Orientation_ACK_DATA);
 364              		.loc 1 210 0
 365 004c 0120     		movs	r0, #1
 366 004e FFF7FEFF 		bl	I2C_Orientation_MasterReadByte
 367              	.LVL50:
 368 0052 084C     		ldr	r4, .L13+8
 369 0054 2080     		strh	r0, [r4]	@ movhi
 211:Adafruit_BNO055.c ****     ZACCEL = ZACCEL + ( I2C_Orientation_MasterReadByte(I2C_Orientation_NAK_DATA) << 8 ); //Send a N
 370              		.loc 1 211 0
 371 0056 0020     		movs	r0, #0
 372 0058 FFF7FEFF 		bl	I2C_Orientation_MasterReadByte
 373              	.LVL51:
 374 005c 2388     		ldrh	r3, [r4]
 375 005e 03EB0020 		add	r0, r3, r0, lsl #8
 376 0062 2080     		strh	r0, [r4]	@ movhi
 212:Adafruit_BNO055.c ****     
 213:Adafruit_BNO055.c ****     I2C_Orientation_MasterSendStop();
 214:Adafruit_BNO055.c ****     
 215:Adafruit_BNO055.c ****     return;
 216:Adafruit_BNO055.c **** }
 377              		.loc 1 216 0
 378 0064 BDE81040 		pop	{r4, lr}
 379              		.cfi_restore 14
 380              		.cfi_restore 4
ARM GAS  C:\Users\Nathan\AppData\Local\Temp\cc4oyi3Q.s 			page 12


 381              		.cfi_def_cfa_offset 0
 213:Adafruit_BNO055.c ****     
 382              		.loc 1 213 0
 383 0068 FFF7FEBF 		b	I2C_Orientation_MasterSendStop
 384              	.LVL52:
 385              	.L14:
 386              		.align	2
 387              	.L13:
 388 006c 00000000 		.word	XACCEL
 389 0070 00000000 		.word	YACCEL
 390 0074 00000000 		.word	ZACCEL
 391              		.cfi_endproc
 392              	.LFE66:
 393              		.size	AGM_AccelRefresh, .-AGM_AccelRefresh
 394              		.section	.text.AGM_GetTemp,"ax",%progbits
 395              		.align	1
 396              		.global	AGM_GetTemp
 397              		.thumb
 398              		.thumb_func
 399              		.type	AGM_GetTemp, %function
 400              	AGM_GetTemp:
 401              	.LFB67:
 217:Adafruit_BNO055.c **** 
 218:Adafruit_BNO055.c **** 
 219:Adafruit_BNO055.c **** 
 220:Adafruit_BNO055.c **** 
 221:Adafruit_BNO055.c **** 
 222:Adafruit_BNO055.c **** 
 223:Adafruit_BNO055.c **** 
 224:Adafruit_BNO055.c **** 
 225:Adafruit_BNO055.c **** void AGM_GetTemp(){
 402              		.loc 1 225 0
 403              		.cfi_startproc
 404              		@ args = 0, pretend = 0, frame = 0
 405              		@ frame_needed = 0, uses_anonymous_args = 0
 406 0000 10B5     		push	{r4, lr}
 407              		.cfi_def_cfa_offset 8
 408              		.cfi_offset 4, -8
 409              		.cfi_offset 14, -4
 226:Adafruit_BNO055.c ****         
 227:Adafruit_BNO055.c ****     
 228:Adafruit_BNO055.c ****     /* --------------------ACCELEROMETER TEMPERATURE-----------------------*/
 229:Adafruit_BNO055.c ****         //Send the module the address of the register to read from
 230:Adafruit_BNO055.c ****     I2C_Orientation_MasterSendStart(BNO055_ADDRESS_A, WRITE);
 410              		.loc 1 230 0
 411 0002 0021     		movs	r1, #0
 412 0004 2820     		movs	r0, #40
 413 0006 FFF7FEFF 		bl	I2C_Orientation_MasterSendStart
 414              	.LVL53:
 231:Adafruit_BNO055.c ****     I2C_Orientation_MasterWriteByte(BNO055_TEMP_ADDR);
 415              		.loc 1 231 0
 416 000a 3420     		movs	r0, #52
 417 000c FFF7FEFF 		bl	I2C_Orientation_MasterWriteByte
 418              	.LVL54:
 232:Adafruit_BNO055.c ****     I2C_Orientation_MasterSendStop();
 419              		.loc 1 232 0
 420 0010 FFF7FEFF 		bl	I2C_Orientation_MasterSendStop
ARM GAS  C:\Users\Nathan\AppData\Local\Temp\cc4oyi3Q.s 			page 13


 421              	.LVL55:
 233:Adafruit_BNO055.c ****     
 234:Adafruit_BNO055.c ****     //Read in data  from the next 6 registers (it will spit out until a NAck)
 235:Adafruit_BNO055.c ****     I2C_Orientation_MasterSendStart(BNO055_ADDRESS_A, READ);
 422              		.loc 1 235 0
 423 0014 0121     		movs	r1, #1
 424 0016 2820     		movs	r0, #40
 425 0018 FFF7FEFF 		bl	I2C_Orientation_MasterSendStart
 426              	.LVL56:
 236:Adafruit_BNO055.c ****     AGMTEMP = I2C_Orientation_MasterReadByte(I2C_Orientation_NAK_DATA);
 427              		.loc 1 236 0
 428 001c 0020     		movs	r0, #0
 429 001e FFF7FEFF 		bl	I2C_Orientation_MasterReadByte
 430              	.LVL57:
 431 0022 044C     		ldr	r4, .L16
 432 0024 2070     		strb	r0, [r4]
 237:Adafruit_BNO055.c ****     I2C_Orientation_MasterSendStop();
 433              		.loc 1 237 0
 434 0026 FFF7FEFF 		bl	I2C_Orientation_MasterSendStop
 435              	.LVL58:
 238:Adafruit_BNO055.c ****     
 239:Adafruit_BNO055.c ****     //IF IN FARENHEIT THEN multiply by 2
 240:Adafruit_BNO055.c ****     AGMTEMP = AGMTEMP * 2;
 436              		.loc 1 240 0
 437 002a 2378     		ldrb	r3, [r4]	@ zero_extendqisi2
 438 002c 5B00     		lsls	r3, r3, #1
 439 002e 2370     		strb	r3, [r4]
 440 0030 10BD     		pop	{r4, pc}
 441              	.L17:
 442 0032 00BF     		.align	2
 443              	.L16:
 444 0034 00000000 		.word	AGMTEMP
 445              		.cfi_endproc
 446              	.LFE67:
 447              		.size	AGM_GetTemp, .-AGM_GetTemp
 448              		.comm	AGMTEMP,1,1
 449              		.comm	ZACCEL,2,2
 450              		.comm	YACCEL,2,2
 451              		.comm	XACCEL,2,2
 452              		.comm	YAW,2,2
 453              		.comm	PITCH,2,2
 454              		.comm	ROLL,2,2
 455              		.text
 456              	.Letext0:
 457              		.file 2 "c:\\program files (x86)\\cypress\\psoc creator\\4.1\\psoc creator\\import\\gnu\\arm\\5.4.
 458              		.file 3 "c:\\program files (x86)\\cypress\\psoc creator\\4.1\\psoc creator\\import\\gnu\\arm\\5.4.
 459              		.file 4 "Generated_Source\\PSoC5/cytypes.h"
 460              		.file 5 "Adafruit_BNO055.h"
 461              		.file 6 "Generated_Source\\PSoC5/core_cm3.h"
 462              		.file 7 "Generated_Source\\PSoC5/I2C_Orientation.h"
 463              		.file 8 "Generated_Source\\PSoC5/CyLib.h"
 464              		.file 9 "Generated_Source\\PSoC5/Timer_1.h"
 465              		.file 10 "Generated_Source\\PSoC5/LED.h"