ARM GAS  C:\Users\Nathan\AppData\Local\Temp\ccFk21DN.s 			page 1


   1              		.syntax unified
   2              		.cpu cortex-m3
   3              		.fpu softvfp
   4              		.eabi_attribute 20, 1
   5              		.eabi_attribute 21, 1
   6              		.eabi_attribute 23, 3
   7              		.eabi_attribute 24, 1
   8              		.eabi_attribute 25, 1
   9              		.eabi_attribute 26, 1
  10              		.eabi_attribute 30, 4
  11              		.eabi_attribute 34, 1
  12              		.eabi_attribute 18, 4
  13              		.thumb
  14              		.syntax unified
  15              		.file	"Aileron.c"
  16              		.text
  17              	.Ltext0:
  18              		.cfi_sections	.debug_frame
  19              		.section	.text.Aileron_Enable,"ax",%progbits
  20              		.align	1
  21              		.global	Aileron_Enable
  22              		.thumb
  23              		.thumb_func
  24              		.type	Aileron_Enable, %function
  25              	Aileron_Enable:
  26              	.LFB2:
  27              		.file 1 "Generated_Source\\PSoC5\\Aileron.c"
   1:Generated_Source\PSoC5/Aileron.c **** /*******************************************************************************
   2:Generated_Source\PSoC5/Aileron.c **** * File Name: Aileron.c
   3:Generated_Source\PSoC5/Aileron.c **** * Version 3.30
   4:Generated_Source\PSoC5/Aileron.c **** *
   5:Generated_Source\PSoC5/Aileron.c **** * Description:
   6:Generated_Source\PSoC5/Aileron.c **** *  The PWM User Module consist of an 8 or 16-bit counter with two 8 or 16-bit
   7:Generated_Source\PSoC5/Aileron.c **** *  comparitors. Each instance of this user module is capable of generating
   8:Generated_Source\PSoC5/Aileron.c **** *  two PWM outputs with the same period. The pulse width is selectable between
   9:Generated_Source\PSoC5/Aileron.c **** *  1 and 255/65535. The period is selectable between 2 and 255/65536 clocks.
  10:Generated_Source\PSoC5/Aileron.c **** *  The compare value output may be configured to be active when the present
  11:Generated_Source\PSoC5/Aileron.c **** *  counter is less than or less than/equal to the compare value.
  12:Generated_Source\PSoC5/Aileron.c **** *  A terminal count output is also provided. It generates a pulse one clock
  13:Generated_Source\PSoC5/Aileron.c **** *  width wide when the counter is equal to zero.
  14:Generated_Source\PSoC5/Aileron.c **** *
  15:Generated_Source\PSoC5/Aileron.c **** * Note:
  16:Generated_Source\PSoC5/Aileron.c **** *
  17:Generated_Source\PSoC5/Aileron.c **** *******************************************************************************
  18:Generated_Source\PSoC5/Aileron.c **** * Copyright 2008-2014, Cypress Semiconductor Corporation.  All rights reserved.
  19:Generated_Source\PSoC5/Aileron.c **** * You may use this file only in accordance with the license, terms, conditions,
  20:Generated_Source\PSoC5/Aileron.c **** * disclaimers, and limitations in the end user license agreement accompanying
  21:Generated_Source\PSoC5/Aileron.c **** * the software package with which this file was provided.
  22:Generated_Source\PSoC5/Aileron.c **** ********************************************************************************/
  23:Generated_Source\PSoC5/Aileron.c **** 
  24:Generated_Source\PSoC5/Aileron.c **** #include "Aileron.h"
  25:Generated_Source\PSoC5/Aileron.c **** 
  26:Generated_Source\PSoC5/Aileron.c **** /* Error message for removed <resource> through optimization */
  27:Generated_Source\PSoC5/Aileron.c **** #ifdef Aileron_PWMUDB_genblk1_ctrlreg__REMOVED
  28:Generated_Source\PSoC5/Aileron.c ****     #error PWM_v3_30 detected with a constant 0 for the enable or \
  29:Generated_Source\PSoC5/Aileron.c ****          constant 1 for reset. This will prevent the component from operating.
  30:Generated_Source\PSoC5/Aileron.c **** #endif /* Aileron_PWMUDB_genblk1_ctrlreg__REMOVED */
ARM GAS  C:\Users\Nathan\AppData\Local\Temp\ccFk21DN.s 			page 2


  31:Generated_Source\PSoC5/Aileron.c **** 
  32:Generated_Source\PSoC5/Aileron.c **** uint8 Aileron_initVar = 0u;
  33:Generated_Source\PSoC5/Aileron.c **** 
  34:Generated_Source\PSoC5/Aileron.c **** 
  35:Generated_Source\PSoC5/Aileron.c **** /*******************************************************************************
  36:Generated_Source\PSoC5/Aileron.c **** * Function Name: Aileron_Start
  37:Generated_Source\PSoC5/Aileron.c **** ********************************************************************************
  38:Generated_Source\PSoC5/Aileron.c **** *
  39:Generated_Source\PSoC5/Aileron.c **** * Summary:
  40:Generated_Source\PSoC5/Aileron.c **** *  The start function initializes the pwm with the default values, the
  41:Generated_Source\PSoC5/Aileron.c **** *  enables the counter to begin counting.  It does not enable interrupts,
  42:Generated_Source\PSoC5/Aileron.c **** *  the EnableInt command should be called if interrupt generation is required.
  43:Generated_Source\PSoC5/Aileron.c **** *
  44:Generated_Source\PSoC5/Aileron.c **** * Parameters:
  45:Generated_Source\PSoC5/Aileron.c **** *  None
  46:Generated_Source\PSoC5/Aileron.c **** *
  47:Generated_Source\PSoC5/Aileron.c **** * Return:
  48:Generated_Source\PSoC5/Aileron.c **** *  None
  49:Generated_Source\PSoC5/Aileron.c **** *
  50:Generated_Source\PSoC5/Aileron.c **** * Global variables:
  51:Generated_Source\PSoC5/Aileron.c **** *  Aileron_initVar: Is modified when this function is called for the
  52:Generated_Source\PSoC5/Aileron.c **** *   first time. Is used to ensure that initialization happens only once.
  53:Generated_Source\PSoC5/Aileron.c **** *
  54:Generated_Source\PSoC5/Aileron.c **** *******************************************************************************/
  55:Generated_Source\PSoC5/Aileron.c **** void Aileron_Start(void) 
  56:Generated_Source\PSoC5/Aileron.c **** {
  57:Generated_Source\PSoC5/Aileron.c ****     /* If not Initialized then initialize all required hardware and software */
  58:Generated_Source\PSoC5/Aileron.c ****     if(Aileron_initVar == 0u)
  59:Generated_Source\PSoC5/Aileron.c ****     {
  60:Generated_Source\PSoC5/Aileron.c ****         Aileron_Init();
  61:Generated_Source\PSoC5/Aileron.c ****         Aileron_initVar = 1u;
  62:Generated_Source\PSoC5/Aileron.c ****     }
  63:Generated_Source\PSoC5/Aileron.c ****     Aileron_Enable();
  64:Generated_Source\PSoC5/Aileron.c **** 
  65:Generated_Source\PSoC5/Aileron.c **** }
  66:Generated_Source\PSoC5/Aileron.c **** 
  67:Generated_Source\PSoC5/Aileron.c **** 
  68:Generated_Source\PSoC5/Aileron.c **** /*******************************************************************************
  69:Generated_Source\PSoC5/Aileron.c **** * Function Name: Aileron_Init
  70:Generated_Source\PSoC5/Aileron.c **** ********************************************************************************
  71:Generated_Source\PSoC5/Aileron.c **** *
  72:Generated_Source\PSoC5/Aileron.c **** * Summary:
  73:Generated_Source\PSoC5/Aileron.c **** *  Initialize component's parameters to the parameters set by user in the
  74:Generated_Source\PSoC5/Aileron.c **** *  customizer of the component placed onto schematic. Usually called in
  75:Generated_Source\PSoC5/Aileron.c **** *  Aileron_Start().
  76:Generated_Source\PSoC5/Aileron.c **** *
  77:Generated_Source\PSoC5/Aileron.c **** * Parameters:
  78:Generated_Source\PSoC5/Aileron.c **** *  None
  79:Generated_Source\PSoC5/Aileron.c **** *
  80:Generated_Source\PSoC5/Aileron.c **** * Return:
  81:Generated_Source\PSoC5/Aileron.c **** *  None
  82:Generated_Source\PSoC5/Aileron.c **** *
  83:Generated_Source\PSoC5/Aileron.c **** *******************************************************************************/
  84:Generated_Source\PSoC5/Aileron.c **** void Aileron_Init(void) 
  85:Generated_Source\PSoC5/Aileron.c **** {
  86:Generated_Source\PSoC5/Aileron.c ****     #if (Aileron_UsingFixedFunction || Aileron_UseControl)
  87:Generated_Source\PSoC5/Aileron.c ****         uint8 ctrl;
ARM GAS  C:\Users\Nathan\AppData\Local\Temp\ccFk21DN.s 			page 3


  88:Generated_Source\PSoC5/Aileron.c ****     #endif /* (Aileron_UsingFixedFunction || Aileron_UseControl) */
  89:Generated_Source\PSoC5/Aileron.c **** 
  90:Generated_Source\PSoC5/Aileron.c ****     #if(!Aileron_UsingFixedFunction)
  91:Generated_Source\PSoC5/Aileron.c ****         #if(Aileron_UseStatus)
  92:Generated_Source\PSoC5/Aileron.c ****             /* Interrupt State Backup for Critical Region*/
  93:Generated_Source\PSoC5/Aileron.c ****             uint8 Aileron_interruptState;
  94:Generated_Source\PSoC5/Aileron.c ****         #endif /* (Aileron_UseStatus) */
  95:Generated_Source\PSoC5/Aileron.c ****     #endif /* (!Aileron_UsingFixedFunction) */
  96:Generated_Source\PSoC5/Aileron.c **** 
  97:Generated_Source\PSoC5/Aileron.c ****     #if (Aileron_UsingFixedFunction)
  98:Generated_Source\PSoC5/Aileron.c ****         /* You are allowed to write the compare value (FF only) */
  99:Generated_Source\PSoC5/Aileron.c ****         Aileron_CONTROL |= Aileron_CFG0_MODE;
 100:Generated_Source\PSoC5/Aileron.c ****         #if (Aileron_DeadBand2_4)
 101:Generated_Source\PSoC5/Aileron.c ****             Aileron_CONTROL |= Aileron_CFG0_DB;
 102:Generated_Source\PSoC5/Aileron.c ****         #endif /* (Aileron_DeadBand2_4) */
 103:Generated_Source\PSoC5/Aileron.c **** 
 104:Generated_Source\PSoC5/Aileron.c ****         ctrl = Aileron_CONTROL3 & ((uint8 )(~Aileron_CTRL_CMPMODE1_MASK));
 105:Generated_Source\PSoC5/Aileron.c ****         Aileron_CONTROL3 = ctrl | Aileron_DEFAULT_COMPARE1_MODE;
 106:Generated_Source\PSoC5/Aileron.c **** 
 107:Generated_Source\PSoC5/Aileron.c ****          /* Clear and Set SYNCTC and SYNCCMP bits of RT1 register */
 108:Generated_Source\PSoC5/Aileron.c ****         Aileron_RT1 &= ((uint8)(~Aileron_RT1_MASK));
 109:Generated_Source\PSoC5/Aileron.c ****         Aileron_RT1 |= Aileron_SYNC;
 110:Generated_Source\PSoC5/Aileron.c **** 
 111:Generated_Source\PSoC5/Aileron.c ****         /*Enable DSI Sync all all inputs of the PWM*/
 112:Generated_Source\PSoC5/Aileron.c ****         Aileron_RT1 &= ((uint8)(~Aileron_SYNCDSI_MASK));
 113:Generated_Source\PSoC5/Aileron.c ****         Aileron_RT1 |= Aileron_SYNCDSI_EN;
 114:Generated_Source\PSoC5/Aileron.c **** 
 115:Generated_Source\PSoC5/Aileron.c ****     #elif (Aileron_UseControl)
 116:Generated_Source\PSoC5/Aileron.c ****         /* Set the default compare mode defined in the parameter */
 117:Generated_Source\PSoC5/Aileron.c ****         ctrl = Aileron_CONTROL & ((uint8)(~Aileron_CTRL_CMPMODE2_MASK)) &
 118:Generated_Source\PSoC5/Aileron.c ****                 ((uint8)(~Aileron_CTRL_CMPMODE1_MASK));
 119:Generated_Source\PSoC5/Aileron.c ****         Aileron_CONTROL = ctrl | Aileron_DEFAULT_COMPARE2_MODE |
 120:Generated_Source\PSoC5/Aileron.c ****                                    Aileron_DEFAULT_COMPARE1_MODE;
 121:Generated_Source\PSoC5/Aileron.c ****     #endif /* (Aileron_UsingFixedFunction) */
 122:Generated_Source\PSoC5/Aileron.c **** 
 123:Generated_Source\PSoC5/Aileron.c ****     #if (!Aileron_UsingFixedFunction)
 124:Generated_Source\PSoC5/Aileron.c ****         #if (Aileron_Resolution == 8)
 125:Generated_Source\PSoC5/Aileron.c ****             /* Set FIFO 0 to 1 byte register for period*/
 126:Generated_Source\PSoC5/Aileron.c ****             Aileron_AUX_CONTROLDP0 |= (Aileron_AUX_CTRL_FIFO0_CLR);
 127:Generated_Source\PSoC5/Aileron.c ****         #else /* (Aileron_Resolution == 16)*/
 128:Generated_Source\PSoC5/Aileron.c ****             /* Set FIFO 0 to 1 byte register for period */
 129:Generated_Source\PSoC5/Aileron.c ****             Aileron_AUX_CONTROLDP0 |= (Aileron_AUX_CTRL_FIFO0_CLR);
 130:Generated_Source\PSoC5/Aileron.c ****             Aileron_AUX_CONTROLDP1 |= (Aileron_AUX_CTRL_FIFO0_CLR);
 131:Generated_Source\PSoC5/Aileron.c ****         #endif /* (Aileron_Resolution == 8) */
 132:Generated_Source\PSoC5/Aileron.c **** 
 133:Generated_Source\PSoC5/Aileron.c ****         Aileron_WriteCounter(Aileron_INIT_PERIOD_VALUE);
 134:Generated_Source\PSoC5/Aileron.c ****     #endif /* (!Aileron_UsingFixedFunction) */
 135:Generated_Source\PSoC5/Aileron.c **** 
 136:Generated_Source\PSoC5/Aileron.c ****     Aileron_WritePeriod(Aileron_INIT_PERIOD_VALUE);
 137:Generated_Source\PSoC5/Aileron.c **** 
 138:Generated_Source\PSoC5/Aileron.c ****         #if (Aileron_UseOneCompareMode)
 139:Generated_Source\PSoC5/Aileron.c ****             Aileron_WriteCompare(Aileron_INIT_COMPARE_VALUE1);
 140:Generated_Source\PSoC5/Aileron.c ****         #else
 141:Generated_Source\PSoC5/Aileron.c ****             Aileron_WriteCompare1(Aileron_INIT_COMPARE_VALUE1);
 142:Generated_Source\PSoC5/Aileron.c ****             Aileron_WriteCompare2(Aileron_INIT_COMPARE_VALUE2);
 143:Generated_Source\PSoC5/Aileron.c ****         #endif /* (Aileron_UseOneCompareMode) */
 144:Generated_Source\PSoC5/Aileron.c **** 
ARM GAS  C:\Users\Nathan\AppData\Local\Temp\ccFk21DN.s 			page 4


 145:Generated_Source\PSoC5/Aileron.c ****         #if (Aileron_KillModeMinTime)
 146:Generated_Source\PSoC5/Aileron.c ****             Aileron_WriteKillTime(Aileron_MinimumKillTime);
 147:Generated_Source\PSoC5/Aileron.c ****         #endif /* (Aileron_KillModeMinTime) */
 148:Generated_Source\PSoC5/Aileron.c **** 
 149:Generated_Source\PSoC5/Aileron.c ****         #if (Aileron_DeadBandUsed)
 150:Generated_Source\PSoC5/Aileron.c ****             Aileron_WriteDeadTime(Aileron_INIT_DEAD_TIME);
 151:Generated_Source\PSoC5/Aileron.c ****         #endif /* (Aileron_DeadBandUsed) */
 152:Generated_Source\PSoC5/Aileron.c **** 
 153:Generated_Source\PSoC5/Aileron.c ****     #if (Aileron_UseStatus || Aileron_UsingFixedFunction)
 154:Generated_Source\PSoC5/Aileron.c ****         Aileron_SetInterruptMode(Aileron_INIT_INTERRUPTS_MODE);
 155:Generated_Source\PSoC5/Aileron.c ****     #endif /* (Aileron_UseStatus || Aileron_UsingFixedFunction) */
 156:Generated_Source\PSoC5/Aileron.c **** 
 157:Generated_Source\PSoC5/Aileron.c ****     #if (Aileron_UsingFixedFunction)
 158:Generated_Source\PSoC5/Aileron.c ****         /* Globally Enable the Fixed Function Block chosen */
 159:Generated_Source\PSoC5/Aileron.c ****         Aileron_GLOBAL_ENABLE |= Aileron_BLOCK_EN_MASK;
 160:Generated_Source\PSoC5/Aileron.c ****         /* Set the Interrupt source to come from the status register */
 161:Generated_Source\PSoC5/Aileron.c ****         Aileron_CONTROL2 |= Aileron_CTRL2_IRQ_SEL;
 162:Generated_Source\PSoC5/Aileron.c ****     #else
 163:Generated_Source\PSoC5/Aileron.c ****         #if(Aileron_UseStatus)
 164:Generated_Source\PSoC5/Aileron.c **** 
 165:Generated_Source\PSoC5/Aileron.c ****             /* CyEnterCriticalRegion and CyExitCriticalRegion are used to mark following region cri
 166:Generated_Source\PSoC5/Aileron.c ****             /* Enter Critical Region*/
 167:Generated_Source\PSoC5/Aileron.c ****             Aileron_interruptState = CyEnterCriticalSection();
 168:Generated_Source\PSoC5/Aileron.c ****             /* Use the interrupt output of the status register for IRQ output */
 169:Generated_Source\PSoC5/Aileron.c ****             Aileron_STATUS_AUX_CTRL |= Aileron_STATUS_ACTL_INT_EN_MASK;
 170:Generated_Source\PSoC5/Aileron.c **** 
 171:Generated_Source\PSoC5/Aileron.c ****              /* Exit Critical Region*/
 172:Generated_Source\PSoC5/Aileron.c ****             CyExitCriticalSection(Aileron_interruptState);
 173:Generated_Source\PSoC5/Aileron.c **** 
 174:Generated_Source\PSoC5/Aileron.c ****             /* Clear the FIFO to enable the Aileron_STATUS_FIFOFULL
 175:Generated_Source\PSoC5/Aileron.c ****                    bit to be set on FIFO full. */
 176:Generated_Source\PSoC5/Aileron.c ****             Aileron_ClearFIFO();
 177:Generated_Source\PSoC5/Aileron.c ****         #endif /* (Aileron_UseStatus) */
 178:Generated_Source\PSoC5/Aileron.c ****     #endif /* (Aileron_UsingFixedFunction) */
 179:Generated_Source\PSoC5/Aileron.c **** }
 180:Generated_Source\PSoC5/Aileron.c **** 
 181:Generated_Source\PSoC5/Aileron.c **** 
 182:Generated_Source\PSoC5/Aileron.c **** /*******************************************************************************
 183:Generated_Source\PSoC5/Aileron.c **** * Function Name: Aileron_Enable
 184:Generated_Source\PSoC5/Aileron.c **** ********************************************************************************
 185:Generated_Source\PSoC5/Aileron.c **** *
 186:Generated_Source\PSoC5/Aileron.c **** * Summary:
 187:Generated_Source\PSoC5/Aileron.c **** *  Enables the PWM block operation
 188:Generated_Source\PSoC5/Aileron.c **** *
 189:Generated_Source\PSoC5/Aileron.c **** * Parameters:
 190:Generated_Source\PSoC5/Aileron.c **** *  None
 191:Generated_Source\PSoC5/Aileron.c **** *
 192:Generated_Source\PSoC5/Aileron.c **** * Return:
 193:Generated_Source\PSoC5/Aileron.c **** *  None
 194:Generated_Source\PSoC5/Aileron.c **** *
 195:Generated_Source\PSoC5/Aileron.c **** * Side Effects:
 196:Generated_Source\PSoC5/Aileron.c **** *  This works only if software enable mode is chosen
 197:Generated_Source\PSoC5/Aileron.c **** *
 198:Generated_Source\PSoC5/Aileron.c **** *******************************************************************************/
 199:Generated_Source\PSoC5/Aileron.c **** void Aileron_Enable(void) 
 200:Generated_Source\PSoC5/Aileron.c **** {
  28              		.loc 1 200 0
ARM GAS  C:\Users\Nathan\AppData\Local\Temp\ccFk21DN.s 			page 5


  29              		.cfi_startproc
  30              		@ args = 0, pretend = 0, frame = 0
  31              		@ frame_needed = 0, uses_anonymous_args = 0
  32              		@ link register save eliminated.
 201:Generated_Source\PSoC5/Aileron.c ****     /* Globally Enable the Fixed Function Block chosen */
 202:Generated_Source\PSoC5/Aileron.c ****     #if (Aileron_UsingFixedFunction)
 203:Generated_Source\PSoC5/Aileron.c ****         Aileron_GLOBAL_ENABLE |= Aileron_BLOCK_EN_MASK;
 204:Generated_Source\PSoC5/Aileron.c ****         Aileron_GLOBAL_STBY_ENABLE |= Aileron_BLOCK_STBY_EN_MASK;
 205:Generated_Source\PSoC5/Aileron.c ****     #endif /* (Aileron_UsingFixedFunction) */
 206:Generated_Source\PSoC5/Aileron.c **** 
 207:Generated_Source\PSoC5/Aileron.c ****     /* Enable the PWM from the control register  */
 208:Generated_Source\PSoC5/Aileron.c ****     #if (Aileron_UseControl || Aileron_UsingFixedFunction)
 209:Generated_Source\PSoC5/Aileron.c ****         Aileron_CONTROL |= Aileron_CTRL_ENABLE;
  33              		.loc 1 209 0
  34 0000 024A     		ldr	r2, .L2
  35 0002 1378     		ldrb	r3, [r2]	@ zero_extendqisi2
  36 0004 43F08003 		orr	r3, r3, #128
  37 0008 1370     		strb	r3, [r2]
  38 000a 7047     		bx	lr
  39              	.L3:
  40              		.align	2
  41              	.L2:
  42 000c 72640040 		.word	1073767538
  43              		.cfi_endproc
  44              	.LFE2:
  45              		.size	Aileron_Enable, .-Aileron_Enable
  46              		.section	.text.Aileron_Stop,"ax",%progbits
  47              		.align	1
  48              		.global	Aileron_Stop
  49              		.thumb
  50              		.thumb_func
  51              		.type	Aileron_Stop, %function
  52              	Aileron_Stop:
  53              	.LFB3:
 210:Generated_Source\PSoC5/Aileron.c ****     #endif /* (Aileron_UseControl || Aileron_UsingFixedFunction) */
 211:Generated_Source\PSoC5/Aileron.c **** }
 212:Generated_Source\PSoC5/Aileron.c **** 
 213:Generated_Source\PSoC5/Aileron.c **** 
 214:Generated_Source\PSoC5/Aileron.c **** /*******************************************************************************
 215:Generated_Source\PSoC5/Aileron.c **** * Function Name: Aileron_Stop
 216:Generated_Source\PSoC5/Aileron.c **** ********************************************************************************
 217:Generated_Source\PSoC5/Aileron.c **** *
 218:Generated_Source\PSoC5/Aileron.c **** * Summary:
 219:Generated_Source\PSoC5/Aileron.c **** *  The stop function halts the PWM, but does not change any modes or disable
 220:Generated_Source\PSoC5/Aileron.c **** *  interrupts.
 221:Generated_Source\PSoC5/Aileron.c **** *
 222:Generated_Source\PSoC5/Aileron.c **** * Parameters:
 223:Generated_Source\PSoC5/Aileron.c **** *  None
 224:Generated_Source\PSoC5/Aileron.c **** *
 225:Generated_Source\PSoC5/Aileron.c **** * Return:
 226:Generated_Source\PSoC5/Aileron.c **** *  None
 227:Generated_Source\PSoC5/Aileron.c **** *
 228:Generated_Source\PSoC5/Aileron.c **** * Side Effects:
 229:Generated_Source\PSoC5/Aileron.c **** *  If the Enable mode is set to Hardware only then this function
 230:Generated_Source\PSoC5/Aileron.c **** *  has no effect on the operation of the PWM
 231:Generated_Source\PSoC5/Aileron.c **** *
 232:Generated_Source\PSoC5/Aileron.c **** *******************************************************************************/
ARM GAS  C:\Users\Nathan\AppData\Local\Temp\ccFk21DN.s 			page 6


 233:Generated_Source\PSoC5/Aileron.c **** void Aileron_Stop(void) 
 234:Generated_Source\PSoC5/Aileron.c **** {
  54              		.loc 1 234 0
  55              		.cfi_startproc
  56              		@ args = 0, pretend = 0, frame = 0
  57              		@ frame_needed = 0, uses_anonymous_args = 0
  58              		@ link register save eliminated.
 235:Generated_Source\PSoC5/Aileron.c ****     #if (Aileron_UseControl || Aileron_UsingFixedFunction)
 236:Generated_Source\PSoC5/Aileron.c ****         Aileron_CONTROL &= ((uint8)(~Aileron_CTRL_ENABLE));
  59              		.loc 1 236 0
  60 0000 024A     		ldr	r2, .L5
  61 0002 1378     		ldrb	r3, [r2]	@ zero_extendqisi2
  62 0004 03F07F03 		and	r3, r3, #127
  63 0008 1370     		strb	r3, [r2]
  64 000a 7047     		bx	lr
  65              	.L6:
  66              		.align	2
  67              	.L5:
  68 000c 72640040 		.word	1073767538
  69              		.cfi_endproc
  70              	.LFE3:
  71              		.size	Aileron_Stop, .-Aileron_Stop
  72              		.section	.text.Aileron_WriteCounter,"ax",%progbits
  73              		.align	1
  74              		.global	Aileron_WriteCounter
  75              		.thumb
  76              		.thumb_func
  77              		.type	Aileron_WriteCounter, %function
  78              	Aileron_WriteCounter:
  79              	.LFB4:
 237:Generated_Source\PSoC5/Aileron.c ****     #endif /* (Aileron_UseControl || Aileron_UsingFixedFunction) */
 238:Generated_Source\PSoC5/Aileron.c **** 
 239:Generated_Source\PSoC5/Aileron.c ****     /* Globally disable the Fixed Function Block chosen */
 240:Generated_Source\PSoC5/Aileron.c ****     #if (Aileron_UsingFixedFunction)
 241:Generated_Source\PSoC5/Aileron.c ****         Aileron_GLOBAL_ENABLE &= ((uint8)(~Aileron_BLOCK_EN_MASK));
 242:Generated_Source\PSoC5/Aileron.c ****         Aileron_GLOBAL_STBY_ENABLE &= ((uint8)(~Aileron_BLOCK_STBY_EN_MASK));
 243:Generated_Source\PSoC5/Aileron.c ****     #endif /* (Aileron_UsingFixedFunction) */
 244:Generated_Source\PSoC5/Aileron.c **** }
 245:Generated_Source\PSoC5/Aileron.c **** 
 246:Generated_Source\PSoC5/Aileron.c **** #if (Aileron_UseOneCompareMode)
 247:Generated_Source\PSoC5/Aileron.c ****     #if (Aileron_CompareMode1SW)
 248:Generated_Source\PSoC5/Aileron.c **** 
 249:Generated_Source\PSoC5/Aileron.c **** 
 250:Generated_Source\PSoC5/Aileron.c ****         /*******************************************************************************
 251:Generated_Source\PSoC5/Aileron.c ****         * Function Name: Aileron_SetCompareMode
 252:Generated_Source\PSoC5/Aileron.c ****         ********************************************************************************
 253:Generated_Source\PSoC5/Aileron.c ****         *
 254:Generated_Source\PSoC5/Aileron.c ****         * Summary:
 255:Generated_Source\PSoC5/Aileron.c ****         *  This function writes the Compare Mode for the pwm output when in Dither mode,
 256:Generated_Source\PSoC5/Aileron.c ****         *  Center Align Mode or One Output Mode.
 257:Generated_Source\PSoC5/Aileron.c ****         *
 258:Generated_Source\PSoC5/Aileron.c ****         * Parameters:
 259:Generated_Source\PSoC5/Aileron.c ****         *  comparemode:  The new compare mode for the PWM output. Use the compare types
 260:Generated_Source\PSoC5/Aileron.c ****         *                defined in the H file as input arguments.
 261:Generated_Source\PSoC5/Aileron.c ****         *
 262:Generated_Source\PSoC5/Aileron.c ****         * Return:
 263:Generated_Source\PSoC5/Aileron.c ****         *  None
ARM GAS  C:\Users\Nathan\AppData\Local\Temp\ccFk21DN.s 			page 7


 264:Generated_Source\PSoC5/Aileron.c ****         *
 265:Generated_Source\PSoC5/Aileron.c ****         *******************************************************************************/
 266:Generated_Source\PSoC5/Aileron.c ****         void Aileron_SetCompareMode(uint8 comparemode) 
 267:Generated_Source\PSoC5/Aileron.c ****         {
 268:Generated_Source\PSoC5/Aileron.c ****             #if(Aileron_UsingFixedFunction)
 269:Generated_Source\PSoC5/Aileron.c **** 
 270:Generated_Source\PSoC5/Aileron.c ****                 #if(0 != Aileron_CTRL_CMPMODE1_SHIFT)
 271:Generated_Source\PSoC5/Aileron.c ****                     uint8 comparemodemasked = ((uint8)((uint8)comparemode << Aileron_CTRL_CMPMODE1_
 272:Generated_Source\PSoC5/Aileron.c ****                 #else
 273:Generated_Source\PSoC5/Aileron.c ****                     uint8 comparemodemasked = comparemode;
 274:Generated_Source\PSoC5/Aileron.c ****                 #endif /* (0 != Aileron_CTRL_CMPMODE1_SHIFT) */
 275:Generated_Source\PSoC5/Aileron.c **** 
 276:Generated_Source\PSoC5/Aileron.c ****                 Aileron_CONTROL3 &= ((uint8)(~Aileron_CTRL_CMPMODE1_MASK)); /*Clear Existing Data *
 277:Generated_Source\PSoC5/Aileron.c ****                 Aileron_CONTROL3 |= comparemodemasked;
 278:Generated_Source\PSoC5/Aileron.c **** 
 279:Generated_Source\PSoC5/Aileron.c ****             #elif (Aileron_UseControl)
 280:Generated_Source\PSoC5/Aileron.c **** 
 281:Generated_Source\PSoC5/Aileron.c ****                 #if(0 != Aileron_CTRL_CMPMODE1_SHIFT)
 282:Generated_Source\PSoC5/Aileron.c ****                     uint8 comparemode1masked = ((uint8)((uint8)comparemode << Aileron_CTRL_CMPMODE1
 283:Generated_Source\PSoC5/Aileron.c ****                                                 Aileron_CTRL_CMPMODE1_MASK;
 284:Generated_Source\PSoC5/Aileron.c ****                 #else
 285:Generated_Source\PSoC5/Aileron.c ****                     uint8 comparemode1masked = comparemode & Aileron_CTRL_CMPMODE1_MASK;
 286:Generated_Source\PSoC5/Aileron.c ****                 #endif /* (0 != Aileron_CTRL_CMPMODE1_SHIFT) */
 287:Generated_Source\PSoC5/Aileron.c **** 
 288:Generated_Source\PSoC5/Aileron.c ****                 #if(0 != Aileron_CTRL_CMPMODE2_SHIFT)
 289:Generated_Source\PSoC5/Aileron.c ****                     uint8 comparemode2masked = ((uint8)((uint8)comparemode << Aileron_CTRL_CMPMODE2
 290:Generated_Source\PSoC5/Aileron.c ****                                                Aileron_CTRL_CMPMODE2_MASK;
 291:Generated_Source\PSoC5/Aileron.c ****                 #else
 292:Generated_Source\PSoC5/Aileron.c ****                     uint8 comparemode2masked = comparemode & Aileron_CTRL_CMPMODE2_MASK;
 293:Generated_Source\PSoC5/Aileron.c ****                 #endif /* (0 != Aileron_CTRL_CMPMODE2_SHIFT) */
 294:Generated_Source\PSoC5/Aileron.c **** 
 295:Generated_Source\PSoC5/Aileron.c ****                 /*Clear existing mode */
 296:Generated_Source\PSoC5/Aileron.c ****                 Aileron_CONTROL &= ((uint8)(~(Aileron_CTRL_CMPMODE1_MASK |
 297:Generated_Source\PSoC5/Aileron.c ****                                             Aileron_CTRL_CMPMODE2_MASK)));
 298:Generated_Source\PSoC5/Aileron.c ****                 Aileron_CONTROL |= (comparemode1masked | comparemode2masked);
 299:Generated_Source\PSoC5/Aileron.c **** 
 300:Generated_Source\PSoC5/Aileron.c ****             #else
 301:Generated_Source\PSoC5/Aileron.c ****                 uint8 temp = comparemode;
 302:Generated_Source\PSoC5/Aileron.c ****             #endif /* (Aileron_UsingFixedFunction) */
 303:Generated_Source\PSoC5/Aileron.c ****         }
 304:Generated_Source\PSoC5/Aileron.c ****     #endif /* Aileron_CompareMode1SW */
 305:Generated_Source\PSoC5/Aileron.c **** 
 306:Generated_Source\PSoC5/Aileron.c **** #else /* UseOneCompareMode */
 307:Generated_Source\PSoC5/Aileron.c **** 
 308:Generated_Source\PSoC5/Aileron.c ****     #if (Aileron_CompareMode1SW)
 309:Generated_Source\PSoC5/Aileron.c **** 
 310:Generated_Source\PSoC5/Aileron.c **** 
 311:Generated_Source\PSoC5/Aileron.c ****         /*******************************************************************************
 312:Generated_Source\PSoC5/Aileron.c ****         * Function Name: Aileron_SetCompareMode1
 313:Generated_Source\PSoC5/Aileron.c ****         ********************************************************************************
 314:Generated_Source\PSoC5/Aileron.c ****         *
 315:Generated_Source\PSoC5/Aileron.c ****         * Summary:
 316:Generated_Source\PSoC5/Aileron.c ****         *  This function writes the Compare Mode for the pwm or pwm1 output
 317:Generated_Source\PSoC5/Aileron.c ****         *
 318:Generated_Source\PSoC5/Aileron.c ****         * Parameters:
 319:Generated_Source\PSoC5/Aileron.c ****         *  comparemode:  The new compare mode for the PWM output. Use the compare types
 320:Generated_Source\PSoC5/Aileron.c ****         *                defined in the H file as input arguments.
ARM GAS  C:\Users\Nathan\AppData\Local\Temp\ccFk21DN.s 			page 8


 321:Generated_Source\PSoC5/Aileron.c ****         *
 322:Generated_Source\PSoC5/Aileron.c ****         * Return:
 323:Generated_Source\PSoC5/Aileron.c ****         *  None
 324:Generated_Source\PSoC5/Aileron.c ****         *
 325:Generated_Source\PSoC5/Aileron.c ****         *******************************************************************************/
 326:Generated_Source\PSoC5/Aileron.c ****         void Aileron_SetCompareMode1(uint8 comparemode) 
 327:Generated_Source\PSoC5/Aileron.c ****         {
 328:Generated_Source\PSoC5/Aileron.c ****             #if(0 != Aileron_CTRL_CMPMODE1_SHIFT)
 329:Generated_Source\PSoC5/Aileron.c ****                 uint8 comparemodemasked = ((uint8)((uint8)comparemode << Aileron_CTRL_CMPMODE1_SHIF
 330:Generated_Source\PSoC5/Aileron.c ****                                            Aileron_CTRL_CMPMODE1_MASK;
 331:Generated_Source\PSoC5/Aileron.c ****             #else
 332:Generated_Source\PSoC5/Aileron.c ****                 uint8 comparemodemasked = comparemode & Aileron_CTRL_CMPMODE1_MASK;
 333:Generated_Source\PSoC5/Aileron.c ****             #endif /* (0 != Aileron_CTRL_CMPMODE1_SHIFT) */
 334:Generated_Source\PSoC5/Aileron.c **** 
 335:Generated_Source\PSoC5/Aileron.c ****             #if (Aileron_UseControl)
 336:Generated_Source\PSoC5/Aileron.c ****                 Aileron_CONTROL &= ((uint8)(~Aileron_CTRL_CMPMODE1_MASK)); /*Clear existing mode */
 337:Generated_Source\PSoC5/Aileron.c ****                 Aileron_CONTROL |= comparemodemasked;
 338:Generated_Source\PSoC5/Aileron.c ****             #endif /* (Aileron_UseControl) */
 339:Generated_Source\PSoC5/Aileron.c ****         }
 340:Generated_Source\PSoC5/Aileron.c ****     #endif /* Aileron_CompareMode1SW */
 341:Generated_Source\PSoC5/Aileron.c **** 
 342:Generated_Source\PSoC5/Aileron.c **** #if (Aileron_CompareMode2SW)
 343:Generated_Source\PSoC5/Aileron.c **** 
 344:Generated_Source\PSoC5/Aileron.c **** 
 345:Generated_Source\PSoC5/Aileron.c ****     /*******************************************************************************
 346:Generated_Source\PSoC5/Aileron.c ****     * Function Name: Aileron_SetCompareMode2
 347:Generated_Source\PSoC5/Aileron.c ****     ********************************************************************************
 348:Generated_Source\PSoC5/Aileron.c ****     *
 349:Generated_Source\PSoC5/Aileron.c ****     * Summary:
 350:Generated_Source\PSoC5/Aileron.c ****     *  This function writes the Compare Mode for the pwm or pwm2 output
 351:Generated_Source\PSoC5/Aileron.c ****     *
 352:Generated_Source\PSoC5/Aileron.c ****     * Parameters:
 353:Generated_Source\PSoC5/Aileron.c ****     *  comparemode:  The new compare mode for the PWM output. Use the compare types
 354:Generated_Source\PSoC5/Aileron.c ****     *                defined in the H file as input arguments.
 355:Generated_Source\PSoC5/Aileron.c ****     *
 356:Generated_Source\PSoC5/Aileron.c ****     * Return:
 357:Generated_Source\PSoC5/Aileron.c ****     *  None
 358:Generated_Source\PSoC5/Aileron.c ****     *
 359:Generated_Source\PSoC5/Aileron.c ****     *******************************************************************************/
 360:Generated_Source\PSoC5/Aileron.c ****     void Aileron_SetCompareMode2(uint8 comparemode) 
 361:Generated_Source\PSoC5/Aileron.c ****     {
 362:Generated_Source\PSoC5/Aileron.c **** 
 363:Generated_Source\PSoC5/Aileron.c ****         #if(0 != Aileron_CTRL_CMPMODE2_SHIFT)
 364:Generated_Source\PSoC5/Aileron.c ****             uint8 comparemodemasked = ((uint8)((uint8)comparemode << Aileron_CTRL_CMPMODE2_SHIFT)) 
 365:Generated_Source\PSoC5/Aileron.c ****                                                  Aileron_CTRL_CMPMODE2_MASK;
 366:Generated_Source\PSoC5/Aileron.c ****         #else
 367:Generated_Source\PSoC5/Aileron.c ****             uint8 comparemodemasked = comparemode & Aileron_CTRL_CMPMODE2_MASK;
 368:Generated_Source\PSoC5/Aileron.c ****         #endif /* (0 != Aileron_CTRL_CMPMODE2_SHIFT) */
 369:Generated_Source\PSoC5/Aileron.c **** 
 370:Generated_Source\PSoC5/Aileron.c ****         #if (Aileron_UseControl)
 371:Generated_Source\PSoC5/Aileron.c ****             Aileron_CONTROL &= ((uint8)(~Aileron_CTRL_CMPMODE2_MASK)); /*Clear existing mode */
 372:Generated_Source\PSoC5/Aileron.c ****             Aileron_CONTROL |= comparemodemasked;
 373:Generated_Source\PSoC5/Aileron.c ****         #endif /* (Aileron_UseControl) */
 374:Generated_Source\PSoC5/Aileron.c ****     }
 375:Generated_Source\PSoC5/Aileron.c ****     #endif /*Aileron_CompareMode2SW */
 376:Generated_Source\PSoC5/Aileron.c **** 
 377:Generated_Source\PSoC5/Aileron.c **** #endif /* UseOneCompareMode */
ARM GAS  C:\Users\Nathan\AppData\Local\Temp\ccFk21DN.s 			page 9


 378:Generated_Source\PSoC5/Aileron.c **** 
 379:Generated_Source\PSoC5/Aileron.c **** 
 380:Generated_Source\PSoC5/Aileron.c **** #if (!Aileron_UsingFixedFunction)
 381:Generated_Source\PSoC5/Aileron.c **** 
 382:Generated_Source\PSoC5/Aileron.c **** 
 383:Generated_Source\PSoC5/Aileron.c ****     /*******************************************************************************
 384:Generated_Source\PSoC5/Aileron.c ****     * Function Name: Aileron_WriteCounter
 385:Generated_Source\PSoC5/Aileron.c ****     ********************************************************************************
 386:Generated_Source\PSoC5/Aileron.c ****     *
 387:Generated_Source\PSoC5/Aileron.c ****     * Summary:
 388:Generated_Source\PSoC5/Aileron.c ****     *  Writes a new counter value directly to the counter register. This will be
 389:Generated_Source\PSoC5/Aileron.c ****     *  implemented for that currently running period and only that period. This API
 390:Generated_Source\PSoC5/Aileron.c ****     *  is valid only for UDB implementation and not available for fixed function
 391:Generated_Source\PSoC5/Aileron.c ****     *  PWM implementation.
 392:Generated_Source\PSoC5/Aileron.c ****     *
 393:Generated_Source\PSoC5/Aileron.c ****     * Parameters:
 394:Generated_Source\PSoC5/Aileron.c ****     *  counter:  The period new period counter value.
 395:Generated_Source\PSoC5/Aileron.c ****     *
 396:Generated_Source\PSoC5/Aileron.c ****     * Return:
 397:Generated_Source\PSoC5/Aileron.c ****     *  None
 398:Generated_Source\PSoC5/Aileron.c ****     *
 399:Generated_Source\PSoC5/Aileron.c ****     * Side Effects:
 400:Generated_Source\PSoC5/Aileron.c ****     *  The PWM Period will be reloaded when a counter value will be a zero
 401:Generated_Source\PSoC5/Aileron.c ****     *
 402:Generated_Source\PSoC5/Aileron.c ****     *******************************************************************************/
 403:Generated_Source\PSoC5/Aileron.c ****     void Aileron_WriteCounter(uint16 counter) \
 404:Generated_Source\PSoC5/Aileron.c ****                                        
 405:Generated_Source\PSoC5/Aileron.c ****     {
  80              		.loc 1 405 0
  81              		.cfi_startproc
  82              		@ args = 0, pretend = 0, frame = 0
  83              		@ frame_needed = 0, uses_anonymous_args = 0
  84              		@ link register save eliminated.
  85              	.LVL0:
 406:Generated_Source\PSoC5/Aileron.c ****         CY_SET_REG16(Aileron_COUNTER_LSB_PTR, counter);
  86              		.loc 1 406 0
  87 0000 014B     		ldr	r3, .L8
  88 0002 1880     		strh	r0, [r3]	@ movhi
  89 0004 7047     		bx	lr
  90              	.L9:
  91 0006 00BF     		.align	2
  92              	.L8:
  93 0008 18680040 		.word	1073768472
  94              		.cfi_endproc
  95              	.LFE4:
  96              		.size	Aileron_WriteCounter, .-Aileron_WriteCounter
  97              		.section	.text.Aileron_ReadCounter,"ax",%progbits
  98              		.align	1
  99              		.global	Aileron_ReadCounter
 100              		.thumb
 101              		.thumb_func
 102              		.type	Aileron_ReadCounter, %function
 103              	Aileron_ReadCounter:
 104              	.LFB5:
 407:Generated_Source\PSoC5/Aileron.c ****     }
 408:Generated_Source\PSoC5/Aileron.c **** 
 409:Generated_Source\PSoC5/Aileron.c **** 
ARM GAS  C:\Users\Nathan\AppData\Local\Temp\ccFk21DN.s 			page 10


 410:Generated_Source\PSoC5/Aileron.c ****     /*******************************************************************************
 411:Generated_Source\PSoC5/Aileron.c ****     * Function Name: Aileron_ReadCounter
 412:Generated_Source\PSoC5/Aileron.c ****     ********************************************************************************
 413:Generated_Source\PSoC5/Aileron.c ****     *
 414:Generated_Source\PSoC5/Aileron.c ****     * Summary:
 415:Generated_Source\PSoC5/Aileron.c ****     *  This function returns the current value of the counter.  It doesn't matter
 416:Generated_Source\PSoC5/Aileron.c ****     *  if the counter is enabled or running.
 417:Generated_Source\PSoC5/Aileron.c ****     *
 418:Generated_Source\PSoC5/Aileron.c ****     * Parameters:
 419:Generated_Source\PSoC5/Aileron.c ****     *  None
 420:Generated_Source\PSoC5/Aileron.c ****     *
 421:Generated_Source\PSoC5/Aileron.c ****     * Return:
 422:Generated_Source\PSoC5/Aileron.c ****     *  The current value of the counter.
 423:Generated_Source\PSoC5/Aileron.c ****     *
 424:Generated_Source\PSoC5/Aileron.c ****     *******************************************************************************/
 425:Generated_Source\PSoC5/Aileron.c ****     uint16 Aileron_ReadCounter(void) 
 426:Generated_Source\PSoC5/Aileron.c ****     {
 105              		.loc 1 426 0
 106              		.cfi_startproc
 107              		@ args = 0, pretend = 0, frame = 0
 108              		@ frame_needed = 0, uses_anonymous_args = 0
 109              		@ link register save eliminated.
 427:Generated_Source\PSoC5/Aileron.c ****         /* Force capture by reading Accumulator */
 428:Generated_Source\PSoC5/Aileron.c ****         /* Must first do a software capture to be able to read the counter */
 429:Generated_Source\PSoC5/Aileron.c ****         /* It is up to the user code to make sure there isn't already captured data in the FIFO */
 430:Generated_Source\PSoC5/Aileron.c ****           (void)CY_GET_REG8(Aileron_COUNTERCAP_LSB_PTR_8BIT);
 110              		.loc 1 430 0
 111 0000 024B     		ldr	r3, .L11
 112 0002 1B78     		ldrb	r3, [r3]	@ zero_extendqisi2
 431:Generated_Source\PSoC5/Aileron.c **** 
 432:Generated_Source\PSoC5/Aileron.c ****         /* Read the data from the FIFO */
 433:Generated_Source\PSoC5/Aileron.c ****         return (CY_GET_REG16(Aileron_CAPTURE_LSB_PTR));
 113              		.loc 1 433 0
 114 0004 024B     		ldr	r3, .L11+4
 115 0006 1888     		ldrh	r0, [r3]
 434:Generated_Source\PSoC5/Aileron.c ****     }
 116              		.loc 1 434 0
 117 0008 80B2     		uxth	r0, r0
 118 000a 7047     		bx	lr
 119              	.L12:
 120              		.align	2
 121              	.L11:
 122 000c 1C640040 		.word	1073767452
 123 0010 B8680040 		.word	1073768632
 124              		.cfi_endproc
 125              	.LFE5:
 126              		.size	Aileron_ReadCounter, .-Aileron_ReadCounter
 127              		.section	.text.Aileron_ClearFIFO,"ax",%progbits
 128              		.align	1
 129              		.global	Aileron_ClearFIFO
 130              		.thumb
 131              		.thumb_func
 132              		.type	Aileron_ClearFIFO, %function
 133              	Aileron_ClearFIFO:
 134              	.LFB6:
 435:Generated_Source\PSoC5/Aileron.c **** 
 436:Generated_Source\PSoC5/Aileron.c ****     #if (Aileron_UseStatus)
ARM GAS  C:\Users\Nathan\AppData\Local\Temp\ccFk21DN.s 			page 11


 437:Generated_Source\PSoC5/Aileron.c **** 
 438:Generated_Source\PSoC5/Aileron.c **** 
 439:Generated_Source\PSoC5/Aileron.c ****         /*******************************************************************************
 440:Generated_Source\PSoC5/Aileron.c ****         * Function Name: Aileron_ClearFIFO
 441:Generated_Source\PSoC5/Aileron.c ****         ********************************************************************************
 442:Generated_Source\PSoC5/Aileron.c ****         *
 443:Generated_Source\PSoC5/Aileron.c ****         * Summary:
 444:Generated_Source\PSoC5/Aileron.c ****         *  This function clears all capture data from the capture FIFO
 445:Generated_Source\PSoC5/Aileron.c ****         *
 446:Generated_Source\PSoC5/Aileron.c ****         * Parameters:
 447:Generated_Source\PSoC5/Aileron.c ****         *  None
 448:Generated_Source\PSoC5/Aileron.c ****         *
 449:Generated_Source\PSoC5/Aileron.c ****         * Return:
 450:Generated_Source\PSoC5/Aileron.c ****         *  None
 451:Generated_Source\PSoC5/Aileron.c ****         *
 452:Generated_Source\PSoC5/Aileron.c ****         *******************************************************************************/
 453:Generated_Source\PSoC5/Aileron.c ****         void Aileron_ClearFIFO(void) 
 454:Generated_Source\PSoC5/Aileron.c ****         {
 135              		.loc 1 454 0
 136              		.cfi_startproc
 137              		@ args = 0, pretend = 0, frame = 0
 138              		@ frame_needed = 0, uses_anonymous_args = 0
 139              		@ link register save eliminated.
 140              	.LBB16:
 141              	.LBB17:
 455:Generated_Source\PSoC5/Aileron.c ****             while(0u != (Aileron_ReadStatusRegister() & Aileron_STATUS_FIFONEMPTY))
 456:Generated_Source\PSoC5/Aileron.c ****             {
 457:Generated_Source\PSoC5/Aileron.c ****                 (void)Aileron_ReadCapture();
 458:Generated_Source\PSoC5/Aileron.c ****             }
 459:Generated_Source\PSoC5/Aileron.c ****         }
 460:Generated_Source\PSoC5/Aileron.c **** 
 461:Generated_Source\PSoC5/Aileron.c ****     #endif /* Aileron_UseStatus */
 462:Generated_Source\PSoC5/Aileron.c **** 
 463:Generated_Source\PSoC5/Aileron.c **** #endif /* !Aileron_UsingFixedFunction */
 464:Generated_Source\PSoC5/Aileron.c **** 
 465:Generated_Source\PSoC5/Aileron.c **** 
 466:Generated_Source\PSoC5/Aileron.c **** /*******************************************************************************
 467:Generated_Source\PSoC5/Aileron.c **** * Function Name: Aileron_WritePeriod
 468:Generated_Source\PSoC5/Aileron.c **** ********************************************************************************
 469:Generated_Source\PSoC5/Aileron.c **** *
 470:Generated_Source\PSoC5/Aileron.c **** * Summary:
 471:Generated_Source\PSoC5/Aileron.c **** *  This function is used to change the period of the counter.  The new period
 472:Generated_Source\PSoC5/Aileron.c **** *  will be loaded the next time terminal count is detected.
 473:Generated_Source\PSoC5/Aileron.c **** *
 474:Generated_Source\PSoC5/Aileron.c **** * Parameters:
 475:Generated_Source\PSoC5/Aileron.c **** *  period:  Period value. May be between 1 and (2^Resolution)-1.  A value of 0
 476:Generated_Source\PSoC5/Aileron.c **** *           will result in the counter remaining at zero.
 477:Generated_Source\PSoC5/Aileron.c **** *
 478:Generated_Source\PSoC5/Aileron.c **** * Return:
 479:Generated_Source\PSoC5/Aileron.c **** *  None
 480:Generated_Source\PSoC5/Aileron.c **** *
 481:Generated_Source\PSoC5/Aileron.c **** *******************************************************************************/
 482:Generated_Source\PSoC5/Aileron.c **** void Aileron_WritePeriod(uint16 period) 
 483:Generated_Source\PSoC5/Aileron.c **** {
 484:Generated_Source\PSoC5/Aileron.c ****     #if(Aileron_UsingFixedFunction)
 485:Generated_Source\PSoC5/Aileron.c ****         CY_SET_REG16(Aileron_PERIOD_LSB_PTR, (uint16)period);
 486:Generated_Source\PSoC5/Aileron.c ****     #else
ARM GAS  C:\Users\Nathan\AppData\Local\Temp\ccFk21DN.s 			page 12


 487:Generated_Source\PSoC5/Aileron.c ****         CY_SET_REG16(Aileron_PERIOD_LSB_PTR, period);
 488:Generated_Source\PSoC5/Aileron.c ****     #endif /* (Aileron_UsingFixedFunction) */
 489:Generated_Source\PSoC5/Aileron.c **** }
 490:Generated_Source\PSoC5/Aileron.c **** 
 491:Generated_Source\PSoC5/Aileron.c **** #if (Aileron_UseOneCompareMode)
 492:Generated_Source\PSoC5/Aileron.c **** 
 493:Generated_Source\PSoC5/Aileron.c **** 
 494:Generated_Source\PSoC5/Aileron.c ****     /*******************************************************************************
 495:Generated_Source\PSoC5/Aileron.c ****     * Function Name: Aileron_WriteCompare
 496:Generated_Source\PSoC5/Aileron.c ****     ********************************************************************************
 497:Generated_Source\PSoC5/Aileron.c ****     *
 498:Generated_Source\PSoC5/Aileron.c ****     * Summary:
 499:Generated_Source\PSoC5/Aileron.c ****     *  This funtion is used to change the compare1 value when the PWM is in Dither
 500:Generated_Source\PSoC5/Aileron.c ****     *  mode. The compare output will reflect the new value on the next UDB clock.
 501:Generated_Source\PSoC5/Aileron.c ****     *  The compare output will be driven high when the present counter value is
 502:Generated_Source\PSoC5/Aileron.c ****     *  compared to the compare value based on the compare mode defined in
 503:Generated_Source\PSoC5/Aileron.c ****     *  Dither Mode.
 504:Generated_Source\PSoC5/Aileron.c ****     *
 505:Generated_Source\PSoC5/Aileron.c ****     * Parameters:
 506:Generated_Source\PSoC5/Aileron.c ****     *  compare:  New compare value.
 507:Generated_Source\PSoC5/Aileron.c ****     *
 508:Generated_Source\PSoC5/Aileron.c ****     * Return:
 509:Generated_Source\PSoC5/Aileron.c ****     *  None
 510:Generated_Source\PSoC5/Aileron.c ****     *
 511:Generated_Source\PSoC5/Aileron.c ****     * Side Effects:
 512:Generated_Source\PSoC5/Aileron.c ****     *  This function is only available if the PWM mode parameter is set to
 513:Generated_Source\PSoC5/Aileron.c ****     *  Dither Mode, Center Aligned Mode or One Output Mode
 514:Generated_Source\PSoC5/Aileron.c ****     *
 515:Generated_Source\PSoC5/Aileron.c ****     *******************************************************************************/
 516:Generated_Source\PSoC5/Aileron.c ****     void Aileron_WriteCompare(uint16 compare) \
 517:Generated_Source\PSoC5/Aileron.c ****                                        
 518:Generated_Source\PSoC5/Aileron.c ****     {
 519:Generated_Source\PSoC5/Aileron.c ****         #if(Aileron_UsingFixedFunction)
 520:Generated_Source\PSoC5/Aileron.c ****             CY_SET_REG16(Aileron_COMPARE1_LSB_PTR, (uint16)compare);
 521:Generated_Source\PSoC5/Aileron.c ****         #else
 522:Generated_Source\PSoC5/Aileron.c ****             CY_SET_REG16(Aileron_COMPARE1_LSB_PTR, compare);
 523:Generated_Source\PSoC5/Aileron.c ****         #endif /* (Aileron_UsingFixedFunction) */
 524:Generated_Source\PSoC5/Aileron.c **** 
 525:Generated_Source\PSoC5/Aileron.c ****         #if (Aileron_PWMMode == Aileron__B_PWM__DITHER)
 526:Generated_Source\PSoC5/Aileron.c ****             #if(Aileron_UsingFixedFunction)
 527:Generated_Source\PSoC5/Aileron.c ****                 CY_SET_REG16(Aileron_COMPARE2_LSB_PTR, (uint16)(compare + 1u));
 528:Generated_Source\PSoC5/Aileron.c ****             #else
 529:Generated_Source\PSoC5/Aileron.c ****                 CY_SET_REG16(Aileron_COMPARE2_LSB_PTR, (compare + 1u));
 530:Generated_Source\PSoC5/Aileron.c ****             #endif /* (Aileron_UsingFixedFunction) */
 531:Generated_Source\PSoC5/Aileron.c ****         #endif /* (Aileron_PWMMode == Aileron__B_PWM__DITHER) */
 532:Generated_Source\PSoC5/Aileron.c ****     }
 533:Generated_Source\PSoC5/Aileron.c **** 
 534:Generated_Source\PSoC5/Aileron.c **** 
 535:Generated_Source\PSoC5/Aileron.c **** #else
 536:Generated_Source\PSoC5/Aileron.c **** 
 537:Generated_Source\PSoC5/Aileron.c **** 
 538:Generated_Source\PSoC5/Aileron.c ****     /*******************************************************************************
 539:Generated_Source\PSoC5/Aileron.c ****     * Function Name: Aileron_WriteCompare1
 540:Generated_Source\PSoC5/Aileron.c ****     ********************************************************************************
 541:Generated_Source\PSoC5/Aileron.c ****     *
 542:Generated_Source\PSoC5/Aileron.c ****     * Summary:
 543:Generated_Source\PSoC5/Aileron.c ****     *  This funtion is used to change the compare1 value.  The compare output will
ARM GAS  C:\Users\Nathan\AppData\Local\Temp\ccFk21DN.s 			page 13


 544:Generated_Source\PSoC5/Aileron.c ****     *  reflect the new value on the next UDB clock.  The compare output will be
 545:Generated_Source\PSoC5/Aileron.c ****     *  driven high when the present counter value is less than or less than or
 546:Generated_Source\PSoC5/Aileron.c ****     *  equal to the compare register, depending on the mode.
 547:Generated_Source\PSoC5/Aileron.c ****     *
 548:Generated_Source\PSoC5/Aileron.c ****     * Parameters:
 549:Generated_Source\PSoC5/Aileron.c ****     *  compare:  New compare value.
 550:Generated_Source\PSoC5/Aileron.c ****     *
 551:Generated_Source\PSoC5/Aileron.c ****     * Return:
 552:Generated_Source\PSoC5/Aileron.c ****     *  None
 553:Generated_Source\PSoC5/Aileron.c ****     *
 554:Generated_Source\PSoC5/Aileron.c ****     *******************************************************************************/
 555:Generated_Source\PSoC5/Aileron.c ****     void Aileron_WriteCompare1(uint16 compare) \
 556:Generated_Source\PSoC5/Aileron.c ****                                         
 557:Generated_Source\PSoC5/Aileron.c ****     {
 558:Generated_Source\PSoC5/Aileron.c ****         #if(Aileron_UsingFixedFunction)
 559:Generated_Source\PSoC5/Aileron.c ****             CY_SET_REG16(Aileron_COMPARE1_LSB_PTR, (uint16)compare);
 560:Generated_Source\PSoC5/Aileron.c ****         #else
 561:Generated_Source\PSoC5/Aileron.c ****             CY_SET_REG16(Aileron_COMPARE1_LSB_PTR, compare);
 562:Generated_Source\PSoC5/Aileron.c ****         #endif /* (Aileron_UsingFixedFunction) */
 563:Generated_Source\PSoC5/Aileron.c ****     }
 564:Generated_Source\PSoC5/Aileron.c **** 
 565:Generated_Source\PSoC5/Aileron.c **** 
 566:Generated_Source\PSoC5/Aileron.c ****     /*******************************************************************************
 567:Generated_Source\PSoC5/Aileron.c ****     * Function Name: Aileron_WriteCompare2
 568:Generated_Source\PSoC5/Aileron.c ****     ********************************************************************************
 569:Generated_Source\PSoC5/Aileron.c ****     *
 570:Generated_Source\PSoC5/Aileron.c ****     * Summary:
 571:Generated_Source\PSoC5/Aileron.c ****     *  This funtion is used to change the compare value, for compare1 output.
 572:Generated_Source\PSoC5/Aileron.c ****     *  The compare output will reflect the new value on the next UDB clock.
 573:Generated_Source\PSoC5/Aileron.c ****     *  The compare output will be driven high when the present counter value is
 574:Generated_Source\PSoC5/Aileron.c ****     *  less than or less than or equal to the compare register, depending on the
 575:Generated_Source\PSoC5/Aileron.c ****     *  mode.
 576:Generated_Source\PSoC5/Aileron.c ****     *
 577:Generated_Source\PSoC5/Aileron.c ****     * Parameters:
 578:Generated_Source\PSoC5/Aileron.c ****     *  compare:  New compare value.
 579:Generated_Source\PSoC5/Aileron.c ****     *
 580:Generated_Source\PSoC5/Aileron.c ****     * Return:
 581:Generated_Source\PSoC5/Aileron.c ****     *  None
 582:Generated_Source\PSoC5/Aileron.c ****     *
 583:Generated_Source\PSoC5/Aileron.c ****     *******************************************************************************/
 584:Generated_Source\PSoC5/Aileron.c ****     void Aileron_WriteCompare2(uint16 compare) \
 585:Generated_Source\PSoC5/Aileron.c ****                                         
 586:Generated_Source\PSoC5/Aileron.c ****     {
 587:Generated_Source\PSoC5/Aileron.c ****         #if(Aileron_UsingFixedFunction)
 588:Generated_Source\PSoC5/Aileron.c ****             CY_SET_REG16(Aileron_COMPARE2_LSB_PTR, compare);
 589:Generated_Source\PSoC5/Aileron.c ****         #else
 590:Generated_Source\PSoC5/Aileron.c ****             CY_SET_REG16(Aileron_COMPARE2_LSB_PTR, compare);
 591:Generated_Source\PSoC5/Aileron.c ****         #endif /* (Aileron_UsingFixedFunction) */
 592:Generated_Source\PSoC5/Aileron.c ****     }
 593:Generated_Source\PSoC5/Aileron.c **** #endif /* UseOneCompareMode */
 594:Generated_Source\PSoC5/Aileron.c **** 
 595:Generated_Source\PSoC5/Aileron.c **** #if (Aileron_DeadBandUsed)
 596:Generated_Source\PSoC5/Aileron.c **** 
 597:Generated_Source\PSoC5/Aileron.c **** 
 598:Generated_Source\PSoC5/Aileron.c ****     /*******************************************************************************
 599:Generated_Source\PSoC5/Aileron.c ****     * Function Name: Aileron_WriteDeadTime
 600:Generated_Source\PSoC5/Aileron.c ****     ********************************************************************************
ARM GAS  C:\Users\Nathan\AppData\Local\Temp\ccFk21DN.s 			page 14


 601:Generated_Source\PSoC5/Aileron.c ****     *
 602:Generated_Source\PSoC5/Aileron.c ****     * Summary:
 603:Generated_Source\PSoC5/Aileron.c ****     *  This function writes the dead-band counts to the corresponding register
 604:Generated_Source\PSoC5/Aileron.c ****     *
 605:Generated_Source\PSoC5/Aileron.c ****     * Parameters:
 606:Generated_Source\PSoC5/Aileron.c ****     *  deadtime:  Number of counts for dead time
 607:Generated_Source\PSoC5/Aileron.c ****     *
 608:Generated_Source\PSoC5/Aileron.c ****     * Return:
 609:Generated_Source\PSoC5/Aileron.c ****     *  None
 610:Generated_Source\PSoC5/Aileron.c ****     *
 611:Generated_Source\PSoC5/Aileron.c ****     *******************************************************************************/
 612:Generated_Source\PSoC5/Aileron.c ****     void Aileron_WriteDeadTime(uint8 deadtime) 
 613:Generated_Source\PSoC5/Aileron.c ****     {
 614:Generated_Source\PSoC5/Aileron.c ****         /* If using the Dead Band 1-255 mode then just write the register */
 615:Generated_Source\PSoC5/Aileron.c ****         #if(!Aileron_DeadBand2_4)
 616:Generated_Source\PSoC5/Aileron.c ****             CY_SET_REG8(Aileron_DEADBAND_COUNT_PTR, deadtime);
 617:Generated_Source\PSoC5/Aileron.c ****         #else
 618:Generated_Source\PSoC5/Aileron.c ****             /* Otherwise the data has to be masked and offset */
 619:Generated_Source\PSoC5/Aileron.c ****             /* Clear existing data */
 620:Generated_Source\PSoC5/Aileron.c ****             Aileron_DEADBAND_COUNT &= ((uint8)(~Aileron_DEADBAND_COUNT_MASK));
 621:Generated_Source\PSoC5/Aileron.c **** 
 622:Generated_Source\PSoC5/Aileron.c ****             /* Set new dead time */
 623:Generated_Source\PSoC5/Aileron.c ****             #if(Aileron_DEADBAND_COUNT_SHIFT)
 624:Generated_Source\PSoC5/Aileron.c ****                 Aileron_DEADBAND_COUNT |= ((uint8)((uint8)deadtime << Aileron_DEADBAND_COUNT_SHIFT)
 625:Generated_Source\PSoC5/Aileron.c ****                                                     Aileron_DEADBAND_COUNT_MASK;
 626:Generated_Source\PSoC5/Aileron.c ****             #else
 627:Generated_Source\PSoC5/Aileron.c ****                 Aileron_DEADBAND_COUNT |= deadtime & Aileron_DEADBAND_COUNT_MASK;
 628:Generated_Source\PSoC5/Aileron.c ****             #endif /* (Aileron_DEADBAND_COUNT_SHIFT) */
 629:Generated_Source\PSoC5/Aileron.c **** 
 630:Generated_Source\PSoC5/Aileron.c ****         #endif /* (!Aileron_DeadBand2_4) */
 631:Generated_Source\PSoC5/Aileron.c ****     }
 632:Generated_Source\PSoC5/Aileron.c **** 
 633:Generated_Source\PSoC5/Aileron.c **** 
 634:Generated_Source\PSoC5/Aileron.c ****     /*******************************************************************************
 635:Generated_Source\PSoC5/Aileron.c ****     * Function Name: Aileron_ReadDeadTime
 636:Generated_Source\PSoC5/Aileron.c ****     ********************************************************************************
 637:Generated_Source\PSoC5/Aileron.c ****     *
 638:Generated_Source\PSoC5/Aileron.c ****     * Summary:
 639:Generated_Source\PSoC5/Aileron.c ****     *  This function reads the dead-band counts from the corresponding register
 640:Generated_Source\PSoC5/Aileron.c ****     *
 641:Generated_Source\PSoC5/Aileron.c ****     * Parameters:
 642:Generated_Source\PSoC5/Aileron.c ****     *  None
 643:Generated_Source\PSoC5/Aileron.c ****     *
 644:Generated_Source\PSoC5/Aileron.c ****     * Return:
 645:Generated_Source\PSoC5/Aileron.c ****     *  Dead Band Counts
 646:Generated_Source\PSoC5/Aileron.c ****     *
 647:Generated_Source\PSoC5/Aileron.c ****     *******************************************************************************/
 648:Generated_Source\PSoC5/Aileron.c ****     uint8 Aileron_ReadDeadTime(void) 
 649:Generated_Source\PSoC5/Aileron.c ****     {
 650:Generated_Source\PSoC5/Aileron.c ****         /* If using the Dead Band 1-255 mode then just read the register */
 651:Generated_Source\PSoC5/Aileron.c ****         #if(!Aileron_DeadBand2_4)
 652:Generated_Source\PSoC5/Aileron.c ****             return (CY_GET_REG8(Aileron_DEADBAND_COUNT_PTR));
 653:Generated_Source\PSoC5/Aileron.c ****         #else
 654:Generated_Source\PSoC5/Aileron.c **** 
 655:Generated_Source\PSoC5/Aileron.c ****             /* Otherwise the data has to be masked and offset */
 656:Generated_Source\PSoC5/Aileron.c ****             #if(Aileron_DEADBAND_COUNT_SHIFT)
 657:Generated_Source\PSoC5/Aileron.c ****                 return ((uint8)(((uint8)(Aileron_DEADBAND_COUNT & Aileron_DEADBAND_COUNT_MASK)) >>
ARM GAS  C:\Users\Nathan\AppData\Local\Temp\ccFk21DN.s 			page 15


 658:Generated_Source\PSoC5/Aileron.c ****                                                                            Aileron_DEADBAND_COUNT_S
 659:Generated_Source\PSoC5/Aileron.c ****             #else
 660:Generated_Source\PSoC5/Aileron.c ****                 return (Aileron_DEADBAND_COUNT & Aileron_DEADBAND_COUNT_MASK);
 661:Generated_Source\PSoC5/Aileron.c ****             #endif /* (Aileron_DEADBAND_COUNT_SHIFT) */
 662:Generated_Source\PSoC5/Aileron.c ****         #endif /* (!Aileron_DeadBand2_4) */
 663:Generated_Source\PSoC5/Aileron.c ****     }
 664:Generated_Source\PSoC5/Aileron.c **** #endif /* DeadBandUsed */
 665:Generated_Source\PSoC5/Aileron.c **** 
 666:Generated_Source\PSoC5/Aileron.c **** #if (Aileron_UseStatus || Aileron_UsingFixedFunction)
 667:Generated_Source\PSoC5/Aileron.c **** 
 668:Generated_Source\PSoC5/Aileron.c **** 
 669:Generated_Source\PSoC5/Aileron.c ****     /*******************************************************************************
 670:Generated_Source\PSoC5/Aileron.c ****     * Function Name: Aileron_SetInterruptMode
 671:Generated_Source\PSoC5/Aileron.c ****     ********************************************************************************
 672:Generated_Source\PSoC5/Aileron.c ****     *
 673:Generated_Source\PSoC5/Aileron.c ****     * Summary:
 674:Generated_Source\PSoC5/Aileron.c ****     *  This function configures the interrupts mask control of theinterrupt
 675:Generated_Source\PSoC5/Aileron.c ****     *  source status register.
 676:Generated_Source\PSoC5/Aileron.c ****     *
 677:Generated_Source\PSoC5/Aileron.c ****     * Parameters:
 678:Generated_Source\PSoC5/Aileron.c ****     *  uint8 interruptMode: Bit field containing the interrupt sources enabled
 679:Generated_Source\PSoC5/Aileron.c ****     *
 680:Generated_Source\PSoC5/Aileron.c ****     * Return:
 681:Generated_Source\PSoC5/Aileron.c ****     *  None
 682:Generated_Source\PSoC5/Aileron.c ****     *
 683:Generated_Source\PSoC5/Aileron.c ****     *******************************************************************************/
 684:Generated_Source\PSoC5/Aileron.c ****     void Aileron_SetInterruptMode(uint8 interruptMode) 
 685:Generated_Source\PSoC5/Aileron.c ****     {
 686:Generated_Source\PSoC5/Aileron.c ****         CY_SET_REG8(Aileron_STATUS_MASK_PTR, interruptMode);
 687:Generated_Source\PSoC5/Aileron.c ****     }
 688:Generated_Source\PSoC5/Aileron.c **** 
 689:Generated_Source\PSoC5/Aileron.c **** 
 690:Generated_Source\PSoC5/Aileron.c ****     /*******************************************************************************
 691:Generated_Source\PSoC5/Aileron.c ****     * Function Name: Aileron_ReadStatusRegister
 692:Generated_Source\PSoC5/Aileron.c ****     ********************************************************************************
 693:Generated_Source\PSoC5/Aileron.c ****     *
 694:Generated_Source\PSoC5/Aileron.c ****     * Summary:
 695:Generated_Source\PSoC5/Aileron.c ****     *  This function returns the current state of the status register.
 696:Generated_Source\PSoC5/Aileron.c ****     *
 697:Generated_Source\PSoC5/Aileron.c ****     * Parameters:
 698:Generated_Source\PSoC5/Aileron.c ****     *  None
 699:Generated_Source\PSoC5/Aileron.c ****     *
 700:Generated_Source\PSoC5/Aileron.c ****     * Return:
 701:Generated_Source\PSoC5/Aileron.c ****     *  uint8 : Current status register value. The status register bits are:
 702:Generated_Source\PSoC5/Aileron.c ****     *  [7:6] : Unused(0)
 703:Generated_Source\PSoC5/Aileron.c ****     *  [5]   : Kill event output
 704:Generated_Source\PSoC5/Aileron.c ****     *  [4]   : FIFO not empty
 705:Generated_Source\PSoC5/Aileron.c ****     *  [3]   : FIFO full
 706:Generated_Source\PSoC5/Aileron.c ****     *  [2]   : Terminal count
 707:Generated_Source\PSoC5/Aileron.c ****     *  [1]   : Compare output 2
 708:Generated_Source\PSoC5/Aileron.c ****     *  [0]   : Compare output 1
 709:Generated_Source\PSoC5/Aileron.c ****     *
 710:Generated_Source\PSoC5/Aileron.c ****     *******************************************************************************/
 711:Generated_Source\PSoC5/Aileron.c ****     uint8 Aileron_ReadStatusRegister(void) 
 712:Generated_Source\PSoC5/Aileron.c ****     {
 713:Generated_Source\PSoC5/Aileron.c ****         return (CY_GET_REG8(Aileron_STATUS_PTR));
 142              		.loc 1 713 0
ARM GAS  C:\Users\Nathan\AppData\Local\Temp\ccFk21DN.s 			page 16


 143 0000 034A     		ldr	r2, .L18
 144              	.LBE17:
 145              	.LBE16:
 146              	.LBB19:
 147              	.LBB20:
 714:Generated_Source\PSoC5/Aileron.c ****     }
 715:Generated_Source\PSoC5/Aileron.c **** 
 716:Generated_Source\PSoC5/Aileron.c **** #endif /* (Aileron_UseStatus || Aileron_UsingFixedFunction) */
 717:Generated_Source\PSoC5/Aileron.c **** 
 718:Generated_Source\PSoC5/Aileron.c **** 
 719:Generated_Source\PSoC5/Aileron.c **** #if (Aileron_UseControl)
 720:Generated_Source\PSoC5/Aileron.c **** 
 721:Generated_Source\PSoC5/Aileron.c **** 
 722:Generated_Source\PSoC5/Aileron.c ****     /*******************************************************************************
 723:Generated_Source\PSoC5/Aileron.c ****     * Function Name: Aileron_ReadControlRegister
 724:Generated_Source\PSoC5/Aileron.c ****     ********************************************************************************
 725:Generated_Source\PSoC5/Aileron.c ****     *
 726:Generated_Source\PSoC5/Aileron.c ****     * Summary:
 727:Generated_Source\PSoC5/Aileron.c ****     *  Returns the current state of the control register. This API is available
 728:Generated_Source\PSoC5/Aileron.c ****     *  only if the control register is not removed.
 729:Generated_Source\PSoC5/Aileron.c ****     *
 730:Generated_Source\PSoC5/Aileron.c ****     * Parameters:
 731:Generated_Source\PSoC5/Aileron.c ****     *  None
 732:Generated_Source\PSoC5/Aileron.c ****     *
 733:Generated_Source\PSoC5/Aileron.c ****     * Return:
 734:Generated_Source\PSoC5/Aileron.c ****     *  uint8 : Current control register value
 735:Generated_Source\PSoC5/Aileron.c ****     *
 736:Generated_Source\PSoC5/Aileron.c ****     *******************************************************************************/
 737:Generated_Source\PSoC5/Aileron.c ****     uint8 Aileron_ReadControlRegister(void) 
 738:Generated_Source\PSoC5/Aileron.c ****     {
 739:Generated_Source\PSoC5/Aileron.c ****         uint8 result;
 740:Generated_Source\PSoC5/Aileron.c **** 
 741:Generated_Source\PSoC5/Aileron.c ****         result = CY_GET_REG8(Aileron_CONTROL_PTR);
 742:Generated_Source\PSoC5/Aileron.c ****         return (result);
 743:Generated_Source\PSoC5/Aileron.c ****     }
 744:Generated_Source\PSoC5/Aileron.c **** 
 745:Generated_Source\PSoC5/Aileron.c **** 
 746:Generated_Source\PSoC5/Aileron.c ****     /*******************************************************************************
 747:Generated_Source\PSoC5/Aileron.c ****     * Function Name: Aileron_WriteControlRegister
 748:Generated_Source\PSoC5/Aileron.c ****     ********************************************************************************
 749:Generated_Source\PSoC5/Aileron.c ****     *
 750:Generated_Source\PSoC5/Aileron.c ****     * Summary:
 751:Generated_Source\PSoC5/Aileron.c ****     *  Sets the bit field of the control register. This API is available only if
 752:Generated_Source\PSoC5/Aileron.c ****     *  the control register is not removed.
 753:Generated_Source\PSoC5/Aileron.c ****     *
 754:Generated_Source\PSoC5/Aileron.c ****     * Parameters:
 755:Generated_Source\PSoC5/Aileron.c ****     *  uint8 control: Control register bit field, The status register bits are:
 756:Generated_Source\PSoC5/Aileron.c ****     *  [7]   : PWM Enable
 757:Generated_Source\PSoC5/Aileron.c ****     *  [6]   : Reset
 758:Generated_Source\PSoC5/Aileron.c ****     *  [5:3] : Compare Mode2
 759:Generated_Source\PSoC5/Aileron.c ****     *  [2:0] : Compare Mode2
 760:Generated_Source\PSoC5/Aileron.c ****     *
 761:Generated_Source\PSoC5/Aileron.c ****     * Return:
 762:Generated_Source\PSoC5/Aileron.c ****     *  None
 763:Generated_Source\PSoC5/Aileron.c ****     *
 764:Generated_Source\PSoC5/Aileron.c ****     *******************************************************************************/
 765:Generated_Source\PSoC5/Aileron.c ****     void Aileron_WriteControlRegister(uint8 control) 
ARM GAS  C:\Users\Nathan\AppData\Local\Temp\ccFk21DN.s 			page 17


 766:Generated_Source\PSoC5/Aileron.c ****     {
 767:Generated_Source\PSoC5/Aileron.c ****         CY_SET_REG8(Aileron_CONTROL_PTR, control);
 768:Generated_Source\PSoC5/Aileron.c ****     }
 769:Generated_Source\PSoC5/Aileron.c **** 
 770:Generated_Source\PSoC5/Aileron.c **** #endif /* (Aileron_UseControl) */
 771:Generated_Source\PSoC5/Aileron.c **** 
 772:Generated_Source\PSoC5/Aileron.c **** 
 773:Generated_Source\PSoC5/Aileron.c **** #if (!Aileron_UsingFixedFunction)
 774:Generated_Source\PSoC5/Aileron.c **** 
 775:Generated_Source\PSoC5/Aileron.c **** 
 776:Generated_Source\PSoC5/Aileron.c ****     /*******************************************************************************
 777:Generated_Source\PSoC5/Aileron.c ****     * Function Name: Aileron_ReadCapture
 778:Generated_Source\PSoC5/Aileron.c ****     ********************************************************************************
 779:Generated_Source\PSoC5/Aileron.c ****     *
 780:Generated_Source\PSoC5/Aileron.c ****     * Summary:
 781:Generated_Source\PSoC5/Aileron.c ****     *  Reads the capture value from the capture FIFO.
 782:Generated_Source\PSoC5/Aileron.c ****     *
 783:Generated_Source\PSoC5/Aileron.c ****     * Parameters:
 784:Generated_Source\PSoC5/Aileron.c ****     *  None
 785:Generated_Source\PSoC5/Aileron.c ****     *
 786:Generated_Source\PSoC5/Aileron.c ****     * Return:
 787:Generated_Source\PSoC5/Aileron.c ****     *  uint8/uint16: The current capture value
 788:Generated_Source\PSoC5/Aileron.c ****     *
 789:Generated_Source\PSoC5/Aileron.c ****     *******************************************************************************/
 790:Generated_Source\PSoC5/Aileron.c ****     uint16 Aileron_ReadCapture(void) 
 791:Generated_Source\PSoC5/Aileron.c ****     {
 792:Generated_Source\PSoC5/Aileron.c ****         return (CY_GET_REG16(Aileron_CAPTURE_LSB_PTR));
 148              		.loc 1 792 0
 149 0002 0449     		ldr	r1, .L18+4
 150              	.L14:
 151              	.LBE20:
 152              	.LBE19:
 153              	.LBB22:
 154              	.LBB18:
 713:Generated_Source\PSoC5/Aileron.c ****     }
 155              		.loc 1 713 0
 156 0004 1378     		ldrb	r3, [r2]	@ zero_extendqisi2
 157              	.LBE18:
 158              	.LBE22:
 455:Generated_Source\PSoC5/Aileron.c ****             while(0u != (Aileron_ReadStatusRegister() & Aileron_STATUS_FIFONEMPTY))
 159              		.loc 1 455 0
 160 0006 DB06     		lsls	r3, r3, #27
 161 0008 01D5     		bpl	.L17
 162              	.LBB23:
 163              	.LBB21:
 164              		.loc 1 792 0
 165 000a 0B88     		ldrh	r3, [r1]
 166 000c FAE7     		b	.L14
 167              	.L17:
 168              	.LBE21:
 169              	.LBE23:
 459:Generated_Source\PSoC5/Aileron.c **** 
 170              		.loc 1 459 0
 171 000e 7047     		bx	lr
 172              	.L19:
 173              		.align	2
 174              	.L18:
ARM GAS  C:\Users\Nathan\AppData\Local\Temp\ccFk21DN.s 			page 18


 175 0010 60640040 		.word	1073767520
 176 0014 B8680040 		.word	1073768632
 177              		.cfi_endproc
 178              	.LFE6:
 179              		.size	Aileron_ClearFIFO, .-Aileron_ClearFIFO
 180              		.section	.text.Aileron_Init,"ax",%progbits
 181              		.align	1
 182              		.global	Aileron_Init
 183              		.thumb
 184              		.thumb_func
 185              		.type	Aileron_Init, %function
 186              	Aileron_Init:
 187              	.LFB1:
  85:Generated_Source\PSoC5/Aileron.c ****     #if (Aileron_UsingFixedFunction || Aileron_UseControl)
 188              		.loc 1 85 0
 189              		.cfi_startproc
 190              		@ args = 0, pretend = 0, frame = 0
 191              		@ frame_needed = 0, uses_anonymous_args = 0
 192 0000 08B5     		push	{r3, lr}
 193              		.cfi_def_cfa_offset 8
 194              		.cfi_offset 3, -8
 195              		.cfi_offset 14, -4
 117:Generated_Source\PSoC5/Aileron.c ****                 ((uint8)(~Aileron_CTRL_CMPMODE1_MASK));
 196              		.loc 1 117 0
 197 0002 194A     		ldr	r2, .L21
 198 0004 1378     		ldrb	r3, [r2]	@ zero_extendqisi2
 199              	.LVL1:
 119:Generated_Source\PSoC5/Aileron.c ****                                    Aileron_DEFAULT_COMPARE1_MODE;
 200              		.loc 1 119 0
 201 0006 03F0C003 		and	r3, r3, #192
 202              	.LVL2:
 203 000a 43F00903 		orr	r3, r3, #9
 204 000e 1370     		strb	r3, [r2]
 129:Generated_Source\PSoC5/Aileron.c ****             Aileron_AUX_CONTROLDP1 |= (Aileron_AUX_CTRL_FIFO0_CLR);
 205              		.loc 1 129 0
 206 0010 92F82A30 		ldrb	r3, [r2, #42]	@ zero_extendqisi2
 207 0014 43F00103 		orr	r3, r3, #1
 208 0018 82F82A30 		strb	r3, [r2, #42]
 130:Generated_Source\PSoC5/Aileron.c ****         #endif /* (Aileron_Resolution == 8) */
 209              		.loc 1 130 0
 210 001c 92F82B30 		ldrb	r3, [r2, #43]	@ zero_extendqisi2
 211 0020 43F00103 		orr	r3, r3, #1
 212 0024 82F82B30 		strb	r3, [r2, #43]
 213              	.LVL3:
 214              	.LBB24:
 215              	.LBB25:
 406:Generated_Source\PSoC5/Aileron.c ****     }
 216              		.loc 1 406 0
 217 0028 44F62063 		movw	r3, #20000
 218 002c A2F8A633 		strh	r3, [r2, #934]	@ movhi
 219              	.LVL4:
 220              	.LBE25:
 221              	.LBE24:
 222              	.LBB26:
 223              	.LBB27:
 487:Generated_Source\PSoC5/Aileron.c ****     #endif /* (Aileron_UsingFixedFunction) */
 224              		.loc 1 487 0
ARM GAS  C:\Users\Nathan\AppData\Local\Temp\ccFk21DN.s 			page 19


 225 0030 A2F82634 		strh	r3, [r2, #1062]	@ movhi
 226              	.LVL5:
 227              	.LBE27:
 228              	.LBE26:
 229              	.LBB28:
 230              	.LBB29:
 561:Generated_Source\PSoC5/Aileron.c ****         #endif /* (Aileron_UsingFixedFunction) */
 231              		.loc 1 561 0
 232 0034 40F2DC52 		movw	r2, #1500
 233 0038 0C4B     		ldr	r3, .L21+4
 234 003a 1A80     		strh	r2, [r3]	@ movhi
 235              	.LVL6:
 236              	.LBE29:
 237              	.LBE28:
 238              	.LBB30:
 239              	.LBB31:
 590:Generated_Source\PSoC5/Aileron.c ****         #endif /* (Aileron_UsingFixedFunction) */
 240              		.loc 1 590 0
 241 003c 40F2E152 		movw	r2, #1505
 242              	.LBE31:
 243              	.LBE30:
 244              	.LBB33:
 245              	.LBB34:
 686:Generated_Source\PSoC5/Aileron.c ****     }
 246              		.loc 1 686 0
 247 0040 A3F57673 		sub	r3, r3, #984
 248              	.LBE34:
 249              	.LBE33:
 250              	.LBB36:
 251              	.LBB32:
 590:Generated_Source\PSoC5/Aileron.c ****         #endif /* (Aileron_UsingFixedFunction) */
 252              		.loc 1 590 0
 253 0044 A3F8F823 		strh	r2, [r3, #1016]	@ movhi
 254              	.LVL7:
 255              	.LBE32:
 256              	.LBE36:
 257              	.LBB37:
 258              	.LBB35:
 686:Generated_Source\PSoC5/Aileron.c ****     }
 259              		.loc 1 686 0
 260 0048 0022     		movs	r2, #0
 261 004a 1A70     		strb	r2, [r3]
 262              	.LVL8:
 263              	.LBE35:
 264              	.LBE37:
 167:Generated_Source\PSoC5/Aileron.c ****             /* Use the interrupt output of the status register for IRQ output */
 265              		.loc 1 167 0
 266 004c FFF7FEFF 		bl	CyEnterCriticalSection
 267              	.LVL9:
 169:Generated_Source\PSoC5/Aileron.c **** 
 268              		.loc 1 169 0
 269 0050 074A     		ldr	r2, .L21+8
 270 0052 1378     		ldrb	r3, [r2]	@ zero_extendqisi2
 271 0054 43F01003 		orr	r3, r3, #16
 272 0058 1370     		strb	r3, [r2]
 172:Generated_Source\PSoC5/Aileron.c **** 
 273              		.loc 1 172 0
ARM GAS  C:\Users\Nathan\AppData\Local\Temp\ccFk21DN.s 			page 20


 274 005a FFF7FEFF 		bl	CyExitCriticalSection
 275              	.LVL10:
 179:Generated_Source\PSoC5/Aileron.c **** 
 276              		.loc 1 179 0
 277 005e BDE80840 		pop	{r3, lr}
 278              		.cfi_restore 14
 279              		.cfi_restore 3
 280              		.cfi_def_cfa_offset 0
 176:Generated_Source\PSoC5/Aileron.c ****         #endif /* (Aileron_UseStatus) */
 281              		.loc 1 176 0
 282 0062 FFF7FEBF 		b	Aileron_ClearFIFO
 283              	.LVL11:
 284              	.L22:
 285 0066 00BF     		.align	2
 286              	.L21:
 287 0068 72640040 		.word	1073767538
 288 006c 58680040 		.word	1073768536
 289 0070 90640040 		.word	1073767568
 290              		.cfi_endproc
 291              	.LFE1:
 292              		.size	Aileron_Init, .-Aileron_Init
 293              		.section	.text.Aileron_Start,"ax",%progbits
 294              		.align	1
 295              		.global	Aileron_Start
 296              		.thumb
 297              		.thumb_func
 298              		.type	Aileron_Start, %function
 299              	Aileron_Start:
 300              	.LFB0:
  56:Generated_Source\PSoC5/Aileron.c ****     /* If not Initialized then initialize all required hardware and software */
 301              		.loc 1 56 0
 302              		.cfi_startproc
 303              		@ args = 0, pretend = 0, frame = 0
 304              		@ frame_needed = 0, uses_anonymous_args = 0
 305 0000 10B5     		push	{r4, lr}
 306              		.cfi_def_cfa_offset 8
 307              		.cfi_offset 4, -8
 308              		.cfi_offset 14, -4
  58:Generated_Source\PSoC5/Aileron.c ****     {
 309              		.loc 1 58 0
 310 0002 054C     		ldr	r4, .L25
 311 0004 2378     		ldrb	r3, [r4]	@ zero_extendqisi2
 312 0006 1BB9     		cbnz	r3, .L24
  60:Generated_Source\PSoC5/Aileron.c ****         Aileron_initVar = 1u;
 313              		.loc 1 60 0
 314 0008 FFF7FEFF 		bl	Aileron_Init
 315              	.LVL12:
  61:Generated_Source\PSoC5/Aileron.c ****     }
 316              		.loc 1 61 0
 317 000c 0123     		movs	r3, #1
 318 000e 2370     		strb	r3, [r4]
 319              	.L24:
  65:Generated_Source\PSoC5/Aileron.c **** 
 320              		.loc 1 65 0
 321 0010 BDE81040 		pop	{r4, lr}
 322              		.cfi_restore 14
 323              		.cfi_restore 4
ARM GAS  C:\Users\Nathan\AppData\Local\Temp\ccFk21DN.s 			page 21


 324              		.cfi_def_cfa_offset 0
  63:Generated_Source\PSoC5/Aileron.c **** 
 325              		.loc 1 63 0
 326 0014 FFF7FEBF 		b	Aileron_Enable
 327              	.LVL13:
 328              	.L26:
 329              		.align	2
 330              	.L25:
 331 0018 00000000 		.word	.LANCHOR0
 332              		.cfi_endproc
 333              	.LFE0:
 334              		.size	Aileron_Start, .-Aileron_Start
 335              		.section	.text.Aileron_WritePeriod,"ax",%progbits
 336              		.align	1
 337              		.global	Aileron_WritePeriod
 338              		.thumb
 339              		.thumb_func
 340              		.type	Aileron_WritePeriod, %function
 341              	Aileron_WritePeriod:
 342              	.LFB7:
 483:Generated_Source\PSoC5/Aileron.c ****     #if(Aileron_UsingFixedFunction)
 343              		.loc 1 483 0
 344              		.cfi_startproc
 345              		@ args = 0, pretend = 0, frame = 0
 346              		@ frame_needed = 0, uses_anonymous_args = 0
 347              		@ link register save eliminated.
 348              	.LVL14:
 487:Generated_Source\PSoC5/Aileron.c ****     #endif /* (Aileron_UsingFixedFunction) */
 349              		.loc 1 487 0
 350 0000 014B     		ldr	r3, .L28
 351 0002 1880     		strh	r0, [r3]	@ movhi
 352 0004 7047     		bx	lr
 353              	.L29:
 354 0006 00BF     		.align	2
 355              	.L28:
 356 0008 98680040 		.word	1073768600
 357              		.cfi_endproc
 358              	.LFE7:
 359              		.size	Aileron_WritePeriod, .-Aileron_WritePeriod
 360              		.section	.text.Aileron_WriteCompare1,"ax",%progbits
 361              		.align	1
 362              		.global	Aileron_WriteCompare1
 363              		.thumb
 364              		.thumb_func
 365              		.type	Aileron_WriteCompare1, %function
 366              	Aileron_WriteCompare1:
 367              	.LFB8:
 557:Generated_Source\PSoC5/Aileron.c ****         #if(Aileron_UsingFixedFunction)
 368              		.loc 1 557 0
 369              		.cfi_startproc
 370              		@ args = 0, pretend = 0, frame = 0
 371              		@ frame_needed = 0, uses_anonymous_args = 0
 372              		@ link register save eliminated.
 373              	.LVL15:
 561:Generated_Source\PSoC5/Aileron.c ****         #endif /* (Aileron_UsingFixedFunction) */
 374              		.loc 1 561 0
 375 0000 014B     		ldr	r3, .L31
ARM GAS  C:\Users\Nathan\AppData\Local\Temp\ccFk21DN.s 			page 22


 376 0002 1880     		strh	r0, [r3]	@ movhi
 377 0004 7047     		bx	lr
 378              	.L32:
 379 0006 00BF     		.align	2
 380              	.L31:
 381 0008 58680040 		.word	1073768536
 382              		.cfi_endproc
 383              	.LFE8:
 384              		.size	Aileron_WriteCompare1, .-Aileron_WriteCompare1
 385              		.section	.text.Aileron_WriteCompare2,"ax",%progbits
 386              		.align	1
 387              		.global	Aileron_WriteCompare2
 388              		.thumb
 389              		.thumb_func
 390              		.type	Aileron_WriteCompare2, %function
 391              	Aileron_WriteCompare2:
 392              	.LFB9:
 586:Generated_Source\PSoC5/Aileron.c ****         #if(Aileron_UsingFixedFunction)
 393              		.loc 1 586 0
 394              		.cfi_startproc
 395              		@ args = 0, pretend = 0, frame = 0
 396              		@ frame_needed = 0, uses_anonymous_args = 0
 397              		@ link register save eliminated.
 398              	.LVL16:
 590:Generated_Source\PSoC5/Aileron.c ****         #endif /* (Aileron_UsingFixedFunction) */
 399              		.loc 1 590 0
 400 0000 014B     		ldr	r3, .L34
 401 0002 1880     		strh	r0, [r3]	@ movhi
 402 0004 7047     		bx	lr
 403              	.L35:
 404 0006 00BF     		.align	2
 405              	.L34:
 406 0008 78680040 		.word	1073768568
 407              		.cfi_endproc
 408              	.LFE9:
 409              		.size	Aileron_WriteCompare2, .-Aileron_WriteCompare2
 410              		.section	.text.Aileron_SetInterruptMode,"ax",%progbits
 411              		.align	1
 412              		.global	Aileron_SetInterruptMode
 413              		.thumb
 414              		.thumb_func
 415              		.type	Aileron_SetInterruptMode, %function
 416              	Aileron_SetInterruptMode:
 417              	.LFB10:
 685:Generated_Source\PSoC5/Aileron.c ****         CY_SET_REG8(Aileron_STATUS_MASK_PTR, interruptMode);
 418              		.loc 1 685 0
 419              		.cfi_startproc
 420              		@ args = 0, pretend = 0, frame = 0
 421              		@ frame_needed = 0, uses_anonymous_args = 0
 422              		@ link register save eliminated.
 423              	.LVL17:
 686:Generated_Source\PSoC5/Aileron.c ****     }
 424              		.loc 1 686 0
 425 0000 014B     		ldr	r3, .L37
 426 0002 1870     		strb	r0, [r3]
 427 0004 7047     		bx	lr
 428              	.L38:
ARM GAS  C:\Users\Nathan\AppData\Local\Temp\ccFk21DN.s 			page 23


 429 0006 00BF     		.align	2
 430              	.L37:
 431 0008 80640040 		.word	1073767552
 432              		.cfi_endproc
 433              	.LFE10:
 434              		.size	Aileron_SetInterruptMode, .-Aileron_SetInterruptMode
 435              		.section	.text.Aileron_ReadStatusRegister,"ax",%progbits
 436              		.align	1
 437              		.global	Aileron_ReadStatusRegister
 438              		.thumb
 439              		.thumb_func
 440              		.type	Aileron_ReadStatusRegister, %function
 441              	Aileron_ReadStatusRegister:
 442              	.LFB11:
 712:Generated_Source\PSoC5/Aileron.c ****         return (CY_GET_REG8(Aileron_STATUS_PTR));
 443              		.loc 1 712 0
 444              		.cfi_startproc
 445              		@ args = 0, pretend = 0, frame = 0
 446              		@ frame_needed = 0, uses_anonymous_args = 0
 447              		@ link register save eliminated.
 713:Generated_Source\PSoC5/Aileron.c ****     }
 448              		.loc 1 713 0
 449 0000 014B     		ldr	r3, .L40
 450 0002 1878     		ldrb	r0, [r3]	@ zero_extendqisi2
 714:Generated_Source\PSoC5/Aileron.c **** 
 451              		.loc 1 714 0
 452 0004 7047     		bx	lr
 453              	.L41:
 454 0006 00BF     		.align	2
 455              	.L40:
 456 0008 60640040 		.word	1073767520
 457              		.cfi_endproc
 458              	.LFE11:
 459              		.size	Aileron_ReadStatusRegister, .-Aileron_ReadStatusRegister
 460              		.section	.text.Aileron_ReadControlRegister,"ax",%progbits
 461              		.align	1
 462              		.global	Aileron_ReadControlRegister
 463              		.thumb
 464              		.thumb_func
 465              		.type	Aileron_ReadControlRegister, %function
 466              	Aileron_ReadControlRegister:
 467              	.LFB12:
 738:Generated_Source\PSoC5/Aileron.c ****         uint8 result;
 468              		.loc 1 738 0
 469              		.cfi_startproc
 470              		@ args = 0, pretend = 0, frame = 0
 471              		@ frame_needed = 0, uses_anonymous_args = 0
 472              		@ link register save eliminated.
 741:Generated_Source\PSoC5/Aileron.c ****         return (result);
 473              		.loc 1 741 0
 474 0000 014B     		ldr	r3, .L43
 475 0002 1878     		ldrb	r0, [r3]	@ zero_extendqisi2
 476              	.LVL18:
 743:Generated_Source\PSoC5/Aileron.c **** 
 477              		.loc 1 743 0
 478 0004 7047     		bx	lr
 479              	.L44:
ARM GAS  C:\Users\Nathan\AppData\Local\Temp\ccFk21DN.s 			page 24


 480 0006 00BF     		.align	2
 481              	.L43:
 482 0008 72640040 		.word	1073767538
 483              		.cfi_endproc
 484              	.LFE12:
 485              		.size	Aileron_ReadControlRegister, .-Aileron_ReadControlRegister
 486              		.section	.text.Aileron_WriteControlRegister,"ax",%progbits
 487              		.align	1
 488              		.global	Aileron_WriteControlRegister
 489              		.thumb
 490              		.thumb_func
 491              		.type	Aileron_WriteControlRegister, %function
 492              	Aileron_WriteControlRegister:
 493              	.LFB13:
 766:Generated_Source\PSoC5/Aileron.c ****         CY_SET_REG8(Aileron_CONTROL_PTR, control);
 494              		.loc 1 766 0
 495              		.cfi_startproc
 496              		@ args = 0, pretend = 0, frame = 0
 497              		@ frame_needed = 0, uses_anonymous_args = 0
 498              		@ link register save eliminated.
 499              	.LVL19:
 767:Generated_Source\PSoC5/Aileron.c ****     }
 500              		.loc 1 767 0
 501 0000 014B     		ldr	r3, .L46
 502 0002 1870     		strb	r0, [r3]
 503 0004 7047     		bx	lr
 504              	.L47:
 505 0006 00BF     		.align	2
 506              	.L46:
 507 0008 72640040 		.word	1073767538
 508              		.cfi_endproc
 509              	.LFE13:
 510              		.size	Aileron_WriteControlRegister, .-Aileron_WriteControlRegister
 511              		.section	.text.Aileron_ReadCapture,"ax",%progbits
 512              		.align	1
 513              		.global	Aileron_ReadCapture
 514              		.thumb
 515              		.thumb_func
 516              		.type	Aileron_ReadCapture, %function
 517              	Aileron_ReadCapture:
 518              	.LFB14:
 791:Generated_Source\PSoC5/Aileron.c ****         return (CY_GET_REG16(Aileron_CAPTURE_LSB_PTR));
 519              		.loc 1 791 0
 520              		.cfi_startproc
 521              		@ args = 0, pretend = 0, frame = 0
 522              		@ frame_needed = 0, uses_anonymous_args = 0
 523              		@ link register save eliminated.
 524              		.loc 1 792 0
 525 0000 014B     		ldr	r3, .L49
 526 0002 1888     		ldrh	r0, [r3]
 793:Generated_Source\PSoC5/Aileron.c ****     }
 527              		.loc 1 793 0
 528 0004 80B2     		uxth	r0, r0
 529 0006 7047     		bx	lr
 530              	.L50:
 531              		.align	2
 532              	.L49:
ARM GAS  C:\Users\Nathan\AppData\Local\Temp\ccFk21DN.s 			page 25


 533 0008 B8680040 		.word	1073768632
 534              		.cfi_endproc
 535              	.LFE14:
 536              		.size	Aileron_ReadCapture, .-Aileron_ReadCapture
 537              		.section	.text.Aileron_ReadCompare1,"ax",%progbits
 538              		.align	1
 539              		.global	Aileron_ReadCompare1
 540              		.thumb
 541              		.thumb_func
 542              		.type	Aileron_ReadCompare1, %function
 543              	Aileron_ReadCompare1:
 544              	.LFB15:
 794:Generated_Source\PSoC5/Aileron.c **** 
 795:Generated_Source\PSoC5/Aileron.c **** #endif /* (!Aileron_UsingFixedFunction) */
 796:Generated_Source\PSoC5/Aileron.c **** 
 797:Generated_Source\PSoC5/Aileron.c **** 
 798:Generated_Source\PSoC5/Aileron.c **** #if (Aileron_UseOneCompareMode)
 799:Generated_Source\PSoC5/Aileron.c **** 
 800:Generated_Source\PSoC5/Aileron.c **** 
 801:Generated_Source\PSoC5/Aileron.c ****     /*******************************************************************************
 802:Generated_Source\PSoC5/Aileron.c ****     * Function Name: Aileron_ReadCompare
 803:Generated_Source\PSoC5/Aileron.c ****     ********************************************************************************
 804:Generated_Source\PSoC5/Aileron.c ****     *
 805:Generated_Source\PSoC5/Aileron.c ****     * Summary:
 806:Generated_Source\PSoC5/Aileron.c ****     *  Reads the compare value for the compare output when the PWM Mode parameter is
 807:Generated_Source\PSoC5/Aileron.c ****     *  set to Dither mode, Center Aligned mode, or One Output mode.
 808:Generated_Source\PSoC5/Aileron.c ****     *
 809:Generated_Source\PSoC5/Aileron.c ****     * Parameters:
 810:Generated_Source\PSoC5/Aileron.c ****     *  None
 811:Generated_Source\PSoC5/Aileron.c ****     *
 812:Generated_Source\PSoC5/Aileron.c ****     * Return:
 813:Generated_Source\PSoC5/Aileron.c ****     *  uint8/uint16: Current compare value
 814:Generated_Source\PSoC5/Aileron.c ****     *
 815:Generated_Source\PSoC5/Aileron.c ****     *******************************************************************************/
 816:Generated_Source\PSoC5/Aileron.c ****     uint16 Aileron_ReadCompare(void) 
 817:Generated_Source\PSoC5/Aileron.c ****     {
 818:Generated_Source\PSoC5/Aileron.c ****         #if(Aileron_UsingFixedFunction)
 819:Generated_Source\PSoC5/Aileron.c ****             return ((uint16)CY_GET_REG16(Aileron_COMPARE1_LSB_PTR));
 820:Generated_Source\PSoC5/Aileron.c ****         #else
 821:Generated_Source\PSoC5/Aileron.c ****             return (CY_GET_REG16(Aileron_COMPARE1_LSB_PTR));
 822:Generated_Source\PSoC5/Aileron.c ****         #endif /* (Aileron_UsingFixedFunction) */
 823:Generated_Source\PSoC5/Aileron.c ****     }
 824:Generated_Source\PSoC5/Aileron.c **** 
 825:Generated_Source\PSoC5/Aileron.c **** #else
 826:Generated_Source\PSoC5/Aileron.c **** 
 827:Generated_Source\PSoC5/Aileron.c **** 
 828:Generated_Source\PSoC5/Aileron.c ****     /*******************************************************************************
 829:Generated_Source\PSoC5/Aileron.c ****     * Function Name: Aileron_ReadCompare1
 830:Generated_Source\PSoC5/Aileron.c ****     ********************************************************************************
 831:Generated_Source\PSoC5/Aileron.c ****     *
 832:Generated_Source\PSoC5/Aileron.c ****     * Summary:
 833:Generated_Source\PSoC5/Aileron.c ****     *  Reads the compare value for the compare1 output.
 834:Generated_Source\PSoC5/Aileron.c ****     *
 835:Generated_Source\PSoC5/Aileron.c ****     * Parameters:
 836:Generated_Source\PSoC5/Aileron.c ****     *  None
 837:Generated_Source\PSoC5/Aileron.c ****     *
 838:Generated_Source\PSoC5/Aileron.c ****     * Return:
ARM GAS  C:\Users\Nathan\AppData\Local\Temp\ccFk21DN.s 			page 26


 839:Generated_Source\PSoC5/Aileron.c ****     *  uint8/uint16: Current compare value.
 840:Generated_Source\PSoC5/Aileron.c ****     *
 841:Generated_Source\PSoC5/Aileron.c ****     *******************************************************************************/
 842:Generated_Source\PSoC5/Aileron.c ****     uint16 Aileron_ReadCompare1(void) 
 843:Generated_Source\PSoC5/Aileron.c ****     {
 545              		.loc 1 843 0
 546              		.cfi_startproc
 547              		@ args = 0, pretend = 0, frame = 0
 548              		@ frame_needed = 0, uses_anonymous_args = 0
 549              		@ link register save eliminated.
 844:Generated_Source\PSoC5/Aileron.c ****         return (CY_GET_REG16(Aileron_COMPARE1_LSB_PTR));
 550              		.loc 1 844 0
 551 0000 014B     		ldr	r3, .L52
 552 0002 1888     		ldrh	r0, [r3]
 845:Generated_Source\PSoC5/Aileron.c ****     }
 553              		.loc 1 845 0
 554 0004 80B2     		uxth	r0, r0
 555 0006 7047     		bx	lr
 556              	.L53:
 557              		.align	2
 558              	.L52:
 559 0008 58680040 		.word	1073768536
 560              		.cfi_endproc
 561              	.LFE15:
 562              		.size	Aileron_ReadCompare1, .-Aileron_ReadCompare1
 563              		.section	.text.Aileron_ReadCompare2,"ax",%progbits
 564              		.align	1
 565              		.global	Aileron_ReadCompare2
 566              		.thumb
 567              		.thumb_func
 568              		.type	Aileron_ReadCompare2, %function
 569              	Aileron_ReadCompare2:
 570              	.LFB16:
 846:Generated_Source\PSoC5/Aileron.c **** 
 847:Generated_Source\PSoC5/Aileron.c **** 
 848:Generated_Source\PSoC5/Aileron.c ****     /*******************************************************************************
 849:Generated_Source\PSoC5/Aileron.c ****     * Function Name: Aileron_ReadCompare2
 850:Generated_Source\PSoC5/Aileron.c ****     ********************************************************************************
 851:Generated_Source\PSoC5/Aileron.c ****     *
 852:Generated_Source\PSoC5/Aileron.c ****     * Summary:
 853:Generated_Source\PSoC5/Aileron.c ****     *  Reads the compare value for the compare2 output.
 854:Generated_Source\PSoC5/Aileron.c ****     *
 855:Generated_Source\PSoC5/Aileron.c ****     * Parameters:
 856:Generated_Source\PSoC5/Aileron.c ****     *  None
 857:Generated_Source\PSoC5/Aileron.c ****     *
 858:Generated_Source\PSoC5/Aileron.c ****     * Return:
 859:Generated_Source\PSoC5/Aileron.c ****     *  uint8/uint16: Current compare value.
 860:Generated_Source\PSoC5/Aileron.c ****     *
 861:Generated_Source\PSoC5/Aileron.c ****     *******************************************************************************/
 862:Generated_Source\PSoC5/Aileron.c ****     uint16 Aileron_ReadCompare2(void) 
 863:Generated_Source\PSoC5/Aileron.c ****     {
 571              		.loc 1 863 0
 572              		.cfi_startproc
 573              		@ args = 0, pretend = 0, frame = 0
 574              		@ frame_needed = 0, uses_anonymous_args = 0
 575              		@ link register save eliminated.
 864:Generated_Source\PSoC5/Aileron.c ****         return (CY_GET_REG16(Aileron_COMPARE2_LSB_PTR));
ARM GAS  C:\Users\Nathan\AppData\Local\Temp\ccFk21DN.s 			page 27


 576              		.loc 1 864 0
 577 0000 014B     		ldr	r3, .L55
 578 0002 1888     		ldrh	r0, [r3]
 865:Generated_Source\PSoC5/Aileron.c ****     }
 579              		.loc 1 865 0
 580 0004 80B2     		uxth	r0, r0
 581 0006 7047     		bx	lr
 582              	.L56:
 583              		.align	2
 584              	.L55:
 585 0008 78680040 		.word	1073768568
 586              		.cfi_endproc
 587              	.LFE16:
 588              		.size	Aileron_ReadCompare2, .-Aileron_ReadCompare2
 589              		.section	.text.Aileron_ReadPeriod,"ax",%progbits
 590              		.align	1
 591              		.global	Aileron_ReadPeriod
 592              		.thumb
 593              		.thumb_func
 594              		.type	Aileron_ReadPeriod, %function
 595              	Aileron_ReadPeriod:
 596              	.LFB17:
 866:Generated_Source\PSoC5/Aileron.c **** 
 867:Generated_Source\PSoC5/Aileron.c **** #endif /* (Aileron_UseOneCompareMode) */
 868:Generated_Source\PSoC5/Aileron.c **** 
 869:Generated_Source\PSoC5/Aileron.c **** 
 870:Generated_Source\PSoC5/Aileron.c **** /*******************************************************************************
 871:Generated_Source\PSoC5/Aileron.c **** * Function Name: Aileron_ReadPeriod
 872:Generated_Source\PSoC5/Aileron.c **** ********************************************************************************
 873:Generated_Source\PSoC5/Aileron.c **** *
 874:Generated_Source\PSoC5/Aileron.c **** * Summary:
 875:Generated_Source\PSoC5/Aileron.c **** *  Reads the period value used by the PWM hardware.
 876:Generated_Source\PSoC5/Aileron.c **** *
 877:Generated_Source\PSoC5/Aileron.c **** * Parameters:
 878:Generated_Source\PSoC5/Aileron.c **** *  None
 879:Generated_Source\PSoC5/Aileron.c **** *
 880:Generated_Source\PSoC5/Aileron.c **** * Return:
 881:Generated_Source\PSoC5/Aileron.c **** *  uint8/16: Period value
 882:Generated_Source\PSoC5/Aileron.c **** *
 883:Generated_Source\PSoC5/Aileron.c **** *******************************************************************************/
 884:Generated_Source\PSoC5/Aileron.c **** uint16 Aileron_ReadPeriod(void) 
 885:Generated_Source\PSoC5/Aileron.c **** {
 597              		.loc 1 885 0
 598              		.cfi_startproc
 599              		@ args = 0, pretend = 0, frame = 0
 600              		@ frame_needed = 0, uses_anonymous_args = 0
 601              		@ link register save eliminated.
 886:Generated_Source\PSoC5/Aileron.c ****     #if(Aileron_UsingFixedFunction)
 887:Generated_Source\PSoC5/Aileron.c ****         return ((uint16)CY_GET_REG16(Aileron_PERIOD_LSB_PTR));
 888:Generated_Source\PSoC5/Aileron.c ****     #else
 889:Generated_Source\PSoC5/Aileron.c ****         return (CY_GET_REG16(Aileron_PERIOD_LSB_PTR));
 602              		.loc 1 889 0
 603 0000 014B     		ldr	r3, .L58
 604 0002 1888     		ldrh	r0, [r3]
 890:Generated_Source\PSoC5/Aileron.c ****     #endif /* (Aileron_UsingFixedFunction) */
 891:Generated_Source\PSoC5/Aileron.c **** }
 605              		.loc 1 891 0
ARM GAS  C:\Users\Nathan\AppData\Local\Temp\ccFk21DN.s 			page 28


 606 0004 80B2     		uxth	r0, r0
 607 0006 7047     		bx	lr
 608              	.L59:
 609              		.align	2
 610              	.L58:
 611 0008 98680040 		.word	1073768600
 612              		.cfi_endproc
 613              	.LFE17:
 614              		.size	Aileron_ReadPeriod, .-Aileron_ReadPeriod
 615              		.global	Aileron_initVar
 616              		.bss
 617              		.set	.LANCHOR0,. + 0
 618              		.type	Aileron_initVar, %object
 619              		.size	Aileron_initVar, 1
 620              	Aileron_initVar:
 621 0000 00       		.space	1
 622              		.text
 623              	.Letext0:
 624              		.file 2 "Generated_Source\\PSoC5\\cytypes.h"
 625              		.file 3 "Generated_Source\\PSoC5\\CyLib.h"