ARM GAS  C:\Users\Nathan\AppData\Local\Temp\cc9udqvE.s 			page 1


   1              		.syntax unified
   2              		.cpu cortex-m3
   3              		.fpu softvfp
   4              		.eabi_attribute 20, 1
   5              		.eabi_attribute 21, 1
   6              		.eabi_attribute 23, 3
   7              		.eabi_attribute 24, 1
   8              		.eabi_attribute 25, 1
   9              		.eabi_attribute 26, 1
  10              		.eabi_attribute 30, 4
  11              		.eabi_attribute 34, 1
  12              		.eabi_attribute 18, 4
  13              		.thumb
  14              		.syntax unified
  15              		.file	"Counter_Duration_PM.c"
  16              		.text
  17              	.Ltext0:
  18              		.cfi_sections	.debug_frame
  19              		.section	.text.Counter_Duration_SaveConfig,"ax",%progbits
  20              		.align	1
  21              		.global	Counter_Duration_SaveConfig
  22              		.thumb
  23              		.thumb_func
  24              		.type	Counter_Duration_SaveConfig, %function
  25              	Counter_Duration_SaveConfig:
  26              	.LFB0:
  27              		.file 1 "Generated_Source\\PSoC5\\Counter_Duration_PM.c"
   1:Generated_Source\PSoC5/Counter_Duration_PM.c **** /*******************************************************************************
   2:Generated_Source\PSoC5/Counter_Duration_PM.c **** * File Name: Counter_Duration_PM.c  
   3:Generated_Source\PSoC5/Counter_Duration_PM.c **** * Version 3.0
   4:Generated_Source\PSoC5/Counter_Duration_PM.c **** *
   5:Generated_Source\PSoC5/Counter_Duration_PM.c **** *  Description:
   6:Generated_Source\PSoC5/Counter_Duration_PM.c **** *    This file provides the power management source code to API for the
   7:Generated_Source\PSoC5/Counter_Duration_PM.c **** *    Counter.  
   8:Generated_Source\PSoC5/Counter_Duration_PM.c **** *
   9:Generated_Source\PSoC5/Counter_Duration_PM.c **** *   Note:
  10:Generated_Source\PSoC5/Counter_Duration_PM.c **** *     None
  11:Generated_Source\PSoC5/Counter_Duration_PM.c **** *
  12:Generated_Source\PSoC5/Counter_Duration_PM.c **** ********************************************************************************
  13:Generated_Source\PSoC5/Counter_Duration_PM.c **** * Copyright 2008-2012, Cypress Semiconductor Corporation.  All rights reserved.
  14:Generated_Source\PSoC5/Counter_Duration_PM.c **** * You may use this file only in accordance with the license, terms, conditions, 
  15:Generated_Source\PSoC5/Counter_Duration_PM.c **** * disclaimers, and limitations in the end user license agreement accompanying 
  16:Generated_Source\PSoC5/Counter_Duration_PM.c **** * the software package with which this file was provided.
  17:Generated_Source\PSoC5/Counter_Duration_PM.c **** *******************************************************************************/
  18:Generated_Source\PSoC5/Counter_Duration_PM.c **** 
  19:Generated_Source\PSoC5/Counter_Duration_PM.c **** #include "Counter_Duration.h"
  20:Generated_Source\PSoC5/Counter_Duration_PM.c **** 
  21:Generated_Source\PSoC5/Counter_Duration_PM.c **** static Counter_Duration_backupStruct Counter_Duration_backup;
  22:Generated_Source\PSoC5/Counter_Duration_PM.c **** 
  23:Generated_Source\PSoC5/Counter_Duration_PM.c **** 
  24:Generated_Source\PSoC5/Counter_Duration_PM.c **** /*******************************************************************************
  25:Generated_Source\PSoC5/Counter_Duration_PM.c **** * Function Name: Counter_Duration_SaveConfig
  26:Generated_Source\PSoC5/Counter_Duration_PM.c **** ********************************************************************************
  27:Generated_Source\PSoC5/Counter_Duration_PM.c **** * Summary:
  28:Generated_Source\PSoC5/Counter_Duration_PM.c **** *     Save the current user configuration
  29:Generated_Source\PSoC5/Counter_Duration_PM.c **** *
  30:Generated_Source\PSoC5/Counter_Duration_PM.c **** * Parameters:  
ARM GAS  C:\Users\Nathan\AppData\Local\Temp\cc9udqvE.s 			page 2


  31:Generated_Source\PSoC5/Counter_Duration_PM.c **** *  void
  32:Generated_Source\PSoC5/Counter_Duration_PM.c **** *
  33:Generated_Source\PSoC5/Counter_Duration_PM.c **** * Return: 
  34:Generated_Source\PSoC5/Counter_Duration_PM.c **** *  void
  35:Generated_Source\PSoC5/Counter_Duration_PM.c **** *
  36:Generated_Source\PSoC5/Counter_Duration_PM.c **** * Global variables:
  37:Generated_Source\PSoC5/Counter_Duration_PM.c **** *  Counter_Duration_backup:  Variables of this global structure are modified to 
  38:Generated_Source\PSoC5/Counter_Duration_PM.c **** *  store the values of non retention configuration registers when Sleep() API is 
  39:Generated_Source\PSoC5/Counter_Duration_PM.c **** *  called.
  40:Generated_Source\PSoC5/Counter_Duration_PM.c **** *
  41:Generated_Source\PSoC5/Counter_Duration_PM.c **** *******************************************************************************/
  42:Generated_Source\PSoC5/Counter_Duration_PM.c **** void Counter_Duration_SaveConfig(void) 
  43:Generated_Source\PSoC5/Counter_Duration_PM.c **** {
  28              		.loc 1 43 0
  29              		.cfi_startproc
  30              		@ args = 0, pretend = 0, frame = 0
  31              		@ frame_needed = 0, uses_anonymous_args = 0
  32 0000 10B5     		push	{r4, lr}
  33              		.cfi_def_cfa_offset 8
  34              		.cfi_offset 4, -8
  35              		.cfi_offset 14, -4
  44:Generated_Source\PSoC5/Counter_Duration_PM.c ****     #if (!Counter_Duration_UsingFixedFunction)
  45:Generated_Source\PSoC5/Counter_Duration_PM.c **** 
  46:Generated_Source\PSoC5/Counter_Duration_PM.c ****         Counter_Duration_backup.CounterUdb = Counter_Duration_ReadCounter();
  36              		.loc 1 46 0
  37 0002 FFF7FEFF 		bl	Counter_Duration_ReadCounter
  38              	.LVL0:
  39 0006 034C     		ldr	r4, .L2
  40 0008 6060     		str	r0, [r4, #4]
  47:Generated_Source\PSoC5/Counter_Duration_PM.c **** 
  48:Generated_Source\PSoC5/Counter_Duration_PM.c ****         #if(!Counter_Duration_ControlRegRemoved)
  49:Generated_Source\PSoC5/Counter_Duration_PM.c ****             Counter_Duration_backup.CounterControlRegister = Counter_Duration_ReadControlRegister()
  41              		.loc 1 49 0
  42 000a FFF7FEFF 		bl	Counter_Duration_ReadControlRegister
  43              	.LVL1:
  44 000e 2072     		strb	r0, [r4, #8]
  45 0010 10BD     		pop	{r4, pc}
  46              	.L3:
  47 0012 00BF     		.align	2
  48              	.L2:
  49 0014 00000000 		.word	.LANCHOR0
  50              		.cfi_endproc
  51              	.LFE0:
  52              		.size	Counter_Duration_SaveConfig, .-Counter_Duration_SaveConfig
  53              		.section	.text.Counter_Duration_RestoreConfig,"ax",%progbits
  54              		.align	1
  55              		.global	Counter_Duration_RestoreConfig
  56              		.thumb
  57              		.thumb_func
  58              		.type	Counter_Duration_RestoreConfig, %function
  59              	Counter_Duration_RestoreConfig:
  60              	.LFB1:
  50:Generated_Source\PSoC5/Counter_Duration_PM.c ****         #endif /* (!Counter_Duration_ControlRegRemoved) */
  51:Generated_Source\PSoC5/Counter_Duration_PM.c **** 
  52:Generated_Source\PSoC5/Counter_Duration_PM.c ****     #endif /* (!Counter_Duration_UsingFixedFunction) */
  53:Generated_Source\PSoC5/Counter_Duration_PM.c **** }
  54:Generated_Source\PSoC5/Counter_Duration_PM.c **** 
ARM GAS  C:\Users\Nathan\AppData\Local\Temp\cc9udqvE.s 			page 3


  55:Generated_Source\PSoC5/Counter_Duration_PM.c **** 
  56:Generated_Source\PSoC5/Counter_Duration_PM.c **** /*******************************************************************************
  57:Generated_Source\PSoC5/Counter_Duration_PM.c **** * Function Name: Counter_Duration_RestoreConfig
  58:Generated_Source\PSoC5/Counter_Duration_PM.c **** ********************************************************************************
  59:Generated_Source\PSoC5/Counter_Duration_PM.c **** *
  60:Generated_Source\PSoC5/Counter_Duration_PM.c **** * Summary:
  61:Generated_Source\PSoC5/Counter_Duration_PM.c **** *  Restores the current user configuration.
  62:Generated_Source\PSoC5/Counter_Duration_PM.c **** *
  63:Generated_Source\PSoC5/Counter_Duration_PM.c **** * Parameters:  
  64:Generated_Source\PSoC5/Counter_Duration_PM.c **** *  void
  65:Generated_Source\PSoC5/Counter_Duration_PM.c **** *
  66:Generated_Source\PSoC5/Counter_Duration_PM.c **** * Return: 
  67:Generated_Source\PSoC5/Counter_Duration_PM.c **** *  void
  68:Generated_Source\PSoC5/Counter_Duration_PM.c **** *
  69:Generated_Source\PSoC5/Counter_Duration_PM.c **** * Global variables:
  70:Generated_Source\PSoC5/Counter_Duration_PM.c **** *  Counter_Duration_backup:  Variables of this global structure are used to 
  71:Generated_Source\PSoC5/Counter_Duration_PM.c **** *  restore the values of non retention registers on wakeup from sleep mode.
  72:Generated_Source\PSoC5/Counter_Duration_PM.c **** *
  73:Generated_Source\PSoC5/Counter_Duration_PM.c **** *******************************************************************************/
  74:Generated_Source\PSoC5/Counter_Duration_PM.c **** void Counter_Duration_RestoreConfig(void) 
  75:Generated_Source\PSoC5/Counter_Duration_PM.c **** {      
  61              		.loc 1 75 0
  62              		.cfi_startproc
  63              		@ args = 0, pretend = 0, frame = 0
  64              		@ frame_needed = 0, uses_anonymous_args = 0
  65 0000 10B5     		push	{r4, lr}
  66              		.cfi_def_cfa_offset 8
  67              		.cfi_offset 4, -8
  68              		.cfi_offset 14, -4
  76:Generated_Source\PSoC5/Counter_Duration_PM.c ****     #if (!Counter_Duration_UsingFixedFunction)
  77:Generated_Source\PSoC5/Counter_Duration_PM.c **** 
  78:Generated_Source\PSoC5/Counter_Duration_PM.c ****        Counter_Duration_WriteCounter(Counter_Duration_backup.CounterUdb);
  69              		.loc 1 78 0
  70 0002 044C     		ldr	r4, .L5
  71 0004 6068     		ldr	r0, [r4, #4]
  72 0006 FFF7FEFF 		bl	Counter_Duration_WriteCounter
  73              	.LVL2:
  79:Generated_Source\PSoC5/Counter_Duration_PM.c **** 
  80:Generated_Source\PSoC5/Counter_Duration_PM.c ****         #if(!Counter_Duration_ControlRegRemoved)
  81:Generated_Source\PSoC5/Counter_Duration_PM.c ****             Counter_Duration_WriteControlRegister(Counter_Duration_backup.CounterControlRegister);
  74              		.loc 1 81 0
  75 000a 207A     		ldrb	r0, [r4, #8]	@ zero_extendqisi2
  82:Generated_Source\PSoC5/Counter_Duration_PM.c ****         #endif /* (!Counter_Duration_ControlRegRemoved) */
  83:Generated_Source\PSoC5/Counter_Duration_PM.c **** 
  84:Generated_Source\PSoC5/Counter_Duration_PM.c ****     #endif /* (!Counter_Duration_UsingFixedFunction) */
  85:Generated_Source\PSoC5/Counter_Duration_PM.c **** }
  76              		.loc 1 85 0
  77 000c BDE81040 		pop	{r4, lr}
  78              		.cfi_restore 14
  79              		.cfi_restore 4
  80              		.cfi_def_cfa_offset 0
  81:Generated_Source\PSoC5/Counter_Duration_PM.c ****         #endif /* (!Counter_Duration_ControlRegRemoved) */
  81              		.loc 1 81 0
  82 0010 FFF7FEBF 		b	Counter_Duration_WriteControlRegister
  83              	.LVL3:
  84              	.L6:
  85              		.align	2
ARM GAS  C:\Users\Nathan\AppData\Local\Temp\cc9udqvE.s 			page 4


  86              	.L5:
  87 0014 00000000 		.word	.LANCHOR0
  88              		.cfi_endproc
  89              	.LFE1:
  90              		.size	Counter_Duration_RestoreConfig, .-Counter_Duration_RestoreConfig
  91              		.section	.text.Counter_Duration_Sleep,"ax",%progbits
  92              		.align	1
  93              		.global	Counter_Duration_Sleep
  94              		.thumb
  95              		.thumb_func
  96              		.type	Counter_Duration_Sleep, %function
  97              	Counter_Duration_Sleep:
  98              	.LFB2:
  86:Generated_Source\PSoC5/Counter_Duration_PM.c **** 
  87:Generated_Source\PSoC5/Counter_Duration_PM.c **** 
  88:Generated_Source\PSoC5/Counter_Duration_PM.c **** /*******************************************************************************
  89:Generated_Source\PSoC5/Counter_Duration_PM.c **** * Function Name: Counter_Duration_Sleep
  90:Generated_Source\PSoC5/Counter_Duration_PM.c **** ********************************************************************************
  91:Generated_Source\PSoC5/Counter_Duration_PM.c **** * Summary:
  92:Generated_Source\PSoC5/Counter_Duration_PM.c **** *     Stop and Save the user configuration
  93:Generated_Source\PSoC5/Counter_Duration_PM.c **** *
  94:Generated_Source\PSoC5/Counter_Duration_PM.c **** * Parameters:  
  95:Generated_Source\PSoC5/Counter_Duration_PM.c **** *  void
  96:Generated_Source\PSoC5/Counter_Duration_PM.c **** *
  97:Generated_Source\PSoC5/Counter_Duration_PM.c **** * Return: 
  98:Generated_Source\PSoC5/Counter_Duration_PM.c **** *  void
  99:Generated_Source\PSoC5/Counter_Duration_PM.c **** *
 100:Generated_Source\PSoC5/Counter_Duration_PM.c **** * Global variables:
 101:Generated_Source\PSoC5/Counter_Duration_PM.c **** *  Counter_Duration_backup.enableState:  Is modified depending on the enable 
 102:Generated_Source\PSoC5/Counter_Duration_PM.c **** *  state of the block before entering sleep mode.
 103:Generated_Source\PSoC5/Counter_Duration_PM.c **** *
 104:Generated_Source\PSoC5/Counter_Duration_PM.c **** *******************************************************************************/
 105:Generated_Source\PSoC5/Counter_Duration_PM.c **** void Counter_Duration_Sleep(void) 
 106:Generated_Source\PSoC5/Counter_Duration_PM.c **** {
  99              		.loc 1 106 0
 100              		.cfi_startproc
 101              		@ args = 0, pretend = 0, frame = 0
 102              		@ frame_needed = 0, uses_anonymous_args = 0
 103 0000 08B5     		push	{r3, lr}
 104              		.cfi_def_cfa_offset 8
 105              		.cfi_offset 3, -8
 106              		.cfi_offset 14, -4
 107:Generated_Source\PSoC5/Counter_Duration_PM.c ****     #if(!Counter_Duration_ControlRegRemoved)
 108:Generated_Source\PSoC5/Counter_Duration_PM.c ****         /* Save Counter's enable state */
 109:Generated_Source\PSoC5/Counter_Duration_PM.c ****         if(Counter_Duration_CTRL_ENABLE == (Counter_Duration_CONTROL & Counter_Duration_CTRL_ENABLE
 107              		.loc 1 109 0
 108 0002 074B     		ldr	r3, .L11
 109 0004 1B78     		ldrb	r3, [r3]	@ zero_extendqisi2
 110 0006 13F0800F 		tst	r3, #128
 111 000a 064B     		ldr	r3, .L11+4
 110:Generated_Source\PSoC5/Counter_Duration_PM.c ****         {
 111:Generated_Source\PSoC5/Counter_Duration_PM.c ****             /* Counter is enabled */
 112:Generated_Source\PSoC5/Counter_Duration_PM.c ****             Counter_Duration_backup.CounterEnableState = 1u;
 112              		.loc 1 112 0
 113 000c 14BF     		ite	ne
 114 000e 0122     		movne	r2, #1
 113:Generated_Source\PSoC5/Counter_Duration_PM.c ****         }
ARM GAS  C:\Users\Nathan\AppData\Local\Temp\cc9udqvE.s 			page 5


 114:Generated_Source\PSoC5/Counter_Duration_PM.c ****         else
 115:Generated_Source\PSoC5/Counter_Duration_PM.c ****         {
 116:Generated_Source\PSoC5/Counter_Duration_PM.c ****             /* Counter is disabled */
 117:Generated_Source\PSoC5/Counter_Duration_PM.c ****             Counter_Duration_backup.CounterEnableState = 0u;
 115              		.loc 1 117 0
 116 0010 0022     		moveq	r2, #0
 117 0012 1A70     		strb	r2, [r3]
 118:Generated_Source\PSoC5/Counter_Duration_PM.c ****         }
 119:Generated_Source\PSoC5/Counter_Duration_PM.c ****     #else
 120:Generated_Source\PSoC5/Counter_Duration_PM.c ****         Counter_Duration_backup.CounterEnableState = 1u;
 121:Generated_Source\PSoC5/Counter_Duration_PM.c ****         if(Counter_Duration_backup.CounterEnableState != 0u)
 122:Generated_Source\PSoC5/Counter_Duration_PM.c ****         {
 123:Generated_Source\PSoC5/Counter_Duration_PM.c ****             Counter_Duration_backup.CounterEnableState = 0u;
 124:Generated_Source\PSoC5/Counter_Duration_PM.c ****         }
 125:Generated_Source\PSoC5/Counter_Duration_PM.c ****     #endif /* (!Counter_Duration_ControlRegRemoved) */
 126:Generated_Source\PSoC5/Counter_Duration_PM.c ****     
 127:Generated_Source\PSoC5/Counter_Duration_PM.c ****     Counter_Duration_Stop();
 118              		.loc 1 127 0
 119 0014 FFF7FEFF 		bl	Counter_Duration_Stop
 120              	.LVL4:
 128:Generated_Source\PSoC5/Counter_Duration_PM.c ****     Counter_Duration_SaveConfig();
 129:Generated_Source\PSoC5/Counter_Duration_PM.c **** }
 121              		.loc 1 129 0
 122 0018 BDE80840 		pop	{r3, lr}
 123              		.cfi_restore 14
 124              		.cfi_restore 3
 125              		.cfi_def_cfa_offset 0
 128:Generated_Source\PSoC5/Counter_Duration_PM.c ****     Counter_Duration_SaveConfig();
 126              		.loc 1 128 0
 127 001c FFF7FEBF 		b	Counter_Duration_SaveConfig
 128              	.LVL5:
 129              	.L12:
 130              		.align	2
 131              	.L11:
 132 0020 75650040 		.word	1073767797
 133 0024 00000000 		.word	.LANCHOR0
 134              		.cfi_endproc
 135              	.LFE2:
 136              		.size	Counter_Duration_Sleep, .-Counter_Duration_Sleep
 137              		.section	.text.Counter_Duration_Wakeup,"ax",%progbits
 138              		.align	1
 139              		.global	Counter_Duration_Wakeup
 140              		.thumb
 141              		.thumb_func
 142              		.type	Counter_Duration_Wakeup, %function
 143              	Counter_Duration_Wakeup:
 144              	.LFB3:
 130:Generated_Source\PSoC5/Counter_Duration_PM.c **** 
 131:Generated_Source\PSoC5/Counter_Duration_PM.c **** 
 132:Generated_Source\PSoC5/Counter_Duration_PM.c **** /*******************************************************************************
 133:Generated_Source\PSoC5/Counter_Duration_PM.c **** * Function Name: Counter_Duration_Wakeup
 134:Generated_Source\PSoC5/Counter_Duration_PM.c **** ********************************************************************************
 135:Generated_Source\PSoC5/Counter_Duration_PM.c **** *
 136:Generated_Source\PSoC5/Counter_Duration_PM.c **** * Summary:
 137:Generated_Source\PSoC5/Counter_Duration_PM.c **** *  Restores and enables the user configuration
 138:Generated_Source\PSoC5/Counter_Duration_PM.c **** *  
 139:Generated_Source\PSoC5/Counter_Duration_PM.c **** * Parameters:  
ARM GAS  C:\Users\Nathan\AppData\Local\Temp\cc9udqvE.s 			page 6


 140:Generated_Source\PSoC5/Counter_Duration_PM.c **** *  void
 141:Generated_Source\PSoC5/Counter_Duration_PM.c **** *
 142:Generated_Source\PSoC5/Counter_Duration_PM.c **** * Return: 
 143:Generated_Source\PSoC5/Counter_Duration_PM.c **** *  void
 144:Generated_Source\PSoC5/Counter_Duration_PM.c **** *
 145:Generated_Source\PSoC5/Counter_Duration_PM.c **** * Global variables:
 146:Generated_Source\PSoC5/Counter_Duration_PM.c **** *  Counter_Duration_backup.enableState:  Is used to restore the enable state of 
 147:Generated_Source\PSoC5/Counter_Duration_PM.c **** *  block on wakeup from sleep mode.
 148:Generated_Source\PSoC5/Counter_Duration_PM.c **** *
 149:Generated_Source\PSoC5/Counter_Duration_PM.c **** *******************************************************************************/
 150:Generated_Source\PSoC5/Counter_Duration_PM.c **** void Counter_Duration_Wakeup(void) 
 151:Generated_Source\PSoC5/Counter_Duration_PM.c **** {
 145              		.loc 1 151 0
 146              		.cfi_startproc
 147              		@ args = 0, pretend = 0, frame = 0
 148              		@ frame_needed = 0, uses_anonymous_args = 0
 149 0000 08B5     		push	{r3, lr}
 150              		.cfi_def_cfa_offset 8
 151              		.cfi_offset 3, -8
 152              		.cfi_offset 14, -4
 152:Generated_Source\PSoC5/Counter_Duration_PM.c ****     Counter_Duration_RestoreConfig();
 153              		.loc 1 152 0
 154 0002 FFF7FEFF 		bl	Counter_Duration_RestoreConfig
 155              	.LVL6:
 153:Generated_Source\PSoC5/Counter_Duration_PM.c ****     #if(!Counter_Duration_ControlRegRemoved)
 154:Generated_Source\PSoC5/Counter_Duration_PM.c ****         if(Counter_Duration_backup.CounterEnableState == 1u)
 156              		.loc 1 154 0
 157 0006 044B     		ldr	r3, .L16
 158 0008 1B78     		ldrb	r3, [r3]	@ zero_extendqisi2
 159 000a 012B     		cmp	r3, #1
 160 000c 03D1     		bne	.L13
 155:Generated_Source\PSoC5/Counter_Duration_PM.c ****         {
 156:Generated_Source\PSoC5/Counter_Duration_PM.c ****             /* Enable Counter's operation */
 157:Generated_Source\PSoC5/Counter_Duration_PM.c ****             Counter_Duration_Enable();
 158:Generated_Source\PSoC5/Counter_Duration_PM.c ****         } /* Do nothing if Counter was disabled before */    
 159:Generated_Source\PSoC5/Counter_Duration_PM.c ****     #endif /* (!Counter_Duration_ControlRegRemoved) */
 160:Generated_Source\PSoC5/Counter_Duration_PM.c ****     
 161:Generated_Source\PSoC5/Counter_Duration_PM.c **** }
 161              		.loc 1 161 0
 162 000e BDE80840 		pop	{r3, lr}
 163              		.cfi_remember_state
 164              		.cfi_restore 14
 165              		.cfi_restore 3
 166              		.cfi_def_cfa_offset 0
 157:Generated_Source\PSoC5/Counter_Duration_PM.c ****         } /* Do nothing if Counter was disabled before */    
 167              		.loc 1 157 0
 168 0012 FFF7FEBF 		b	Counter_Duration_Enable
 169              	.LVL7:
 170              	.L13:
 171              		.cfi_restore_state
 172 0016 08BD     		pop	{r3, pc}
 173              	.L17:
 174              		.align	2
 175              	.L16:
 176 0018 00000000 		.word	.LANCHOR0
 177              		.cfi_endproc
 178              	.LFE3:
ARM GAS  C:\Users\Nathan\AppData\Local\Temp\cc9udqvE.s 			page 7


 179              		.size	Counter_Duration_Wakeup, .-Counter_Duration_Wakeup
 180              		.bss
 181              		.align	2
 182              		.set	.LANCHOR0,. + 0
 183              		.type	Counter_Duration_backup, %object
 184              		.size	Counter_Duration_backup, 12
 185              	Counter_Duration_backup:
 186 0000 00000000 		.space	12
 186      00000000 
 186      00000000 
 187              		.text
 188              	.Letext0:
 189              		.file 2 "Generated_Source\\PSoC5\\cytypes.h"
 190              		.file 3 "Generated_Source\\PSoC5\\Counter_Duration.h"