ARM GAS  C:\Users\Nathan\AppData\Local\Temp\ccLOwdHz.s 			page 1


   1              		.syntax unified
   2              		.cpu cortex-m3
   3              		.fpu softvfp
   4              		.eabi_attribute 20, 1
   5              		.eabi_attribute 21, 1
   6              		.eabi_attribute 23, 3
   7              		.eabi_attribute 24, 1
   8              		.eabi_attribute 25, 1
   9              		.eabi_attribute 26, 1
  10              		.eabi_attribute 30, 4
  11              		.eabi_attribute 34, 1
  12              		.eabi_attribute 18, 4
  13              		.thumb
  14              		.syntax unified
  15              		.file	"cyfitter_cfg.c"
  16              		.text
  17              	.Ltext0:
  18              		.cfi_sections	.debug_frame
  19              		.section	.text.SetAnalogRoutingPumps,"ax",%progbits
  20              		.align	1
  21              		.global	SetAnalogRoutingPumps
  22              		.thumb
  23              		.thumb_func
  24              		.type	SetAnalogRoutingPumps, %function
  25              	SetAnalogRoutingPumps:
  26              	.LFB7:
  27              		.file 1 "Generated_Source\\PSoC5\\cyfitter_cfg.c"
   1:Generated_Source\PSoC5/cyfitter_cfg.c **** 
   2:Generated_Source\PSoC5/cyfitter_cfg.c **** /*******************************************************************************
   3:Generated_Source\PSoC5/cyfitter_cfg.c **** * File Name: cyfitter_cfg.c
   4:Generated_Source\PSoC5/cyfitter_cfg.c **** * 
   5:Generated_Source\PSoC5/cyfitter_cfg.c **** * PSoC Creator  4.1 Update 1
   6:Generated_Source\PSoC5/cyfitter_cfg.c **** *
   7:Generated_Source\PSoC5/cyfitter_cfg.c **** * Description:
   8:Generated_Source\PSoC5/cyfitter_cfg.c **** * This file contains device initialization code.
   9:Generated_Source\PSoC5/cyfitter_cfg.c **** * Except for the user defined sections in CyClockStartupError(), this file should not be modified.
  10:Generated_Source\PSoC5/cyfitter_cfg.c **** * This file is automatically generated by PSoC Creator.
  11:Generated_Source\PSoC5/cyfitter_cfg.c **** *
  12:Generated_Source\PSoC5/cyfitter_cfg.c **** ********************************************************************************
  13:Generated_Source\PSoC5/cyfitter_cfg.c **** * Copyright (c) 2007-2017 Cypress Semiconductor.  All rights reserved.
  14:Generated_Source\PSoC5/cyfitter_cfg.c **** * You may use this file only in accordance with the license, terms, conditions, 
  15:Generated_Source\PSoC5/cyfitter_cfg.c **** * disclaimers, and limitations in the end user license agreement accompanying 
  16:Generated_Source\PSoC5/cyfitter_cfg.c **** * the software package with which this file was provided.
  17:Generated_Source\PSoC5/cyfitter_cfg.c **** ********************************************************************************/
  18:Generated_Source\PSoC5/cyfitter_cfg.c **** 
  19:Generated_Source\PSoC5/cyfitter_cfg.c **** #include <string.h>
  20:Generated_Source\PSoC5/cyfitter_cfg.c **** #include "cytypes.h"
  21:Generated_Source\PSoC5/cyfitter_cfg.c **** #include "cydevice_trm.h"
  22:Generated_Source\PSoC5/cyfitter_cfg.c **** #include "cyfitter.h"
  23:Generated_Source\PSoC5/cyfitter_cfg.c **** #include "CyLib.h"
  24:Generated_Source\PSoC5/cyfitter_cfg.c **** #include "cyfitter_cfg.h"
  25:Generated_Source\PSoC5/cyfitter_cfg.c **** #include "cyapicallbacks.h"
  26:Generated_Source\PSoC5/cyfitter_cfg.c **** 
  27:Generated_Source\PSoC5/cyfitter_cfg.c **** #define CY_NEED_CYCLOCKSTARTUPERROR 1
  28:Generated_Source\PSoC5/cyfitter_cfg.c **** 
  29:Generated_Source\PSoC5/cyfitter_cfg.c **** 
  30:Generated_Source\PSoC5/cyfitter_cfg.c **** #if defined(__GNUC__) || defined(__ARMCC_VERSION)
ARM GAS  C:\Users\Nathan\AppData\Local\Temp\ccLOwdHz.s 			page 2


  31:Generated_Source\PSoC5/cyfitter_cfg.c ****     #define CYPACKED 
  32:Generated_Source\PSoC5/cyfitter_cfg.c ****     #define CYPACKED_ATTR __attribute__ ((packed))
  33:Generated_Source\PSoC5/cyfitter_cfg.c ****     #define CYALIGNED __attribute__ ((aligned))
  34:Generated_Source\PSoC5/cyfitter_cfg.c ****     #define CY_CFG_UNUSED __attribute__ ((unused))
  35:Generated_Source\PSoC5/cyfitter_cfg.c ****     #ifndef CY_CFG_SECTION
  36:Generated_Source\PSoC5/cyfitter_cfg.c ****         #define CY_CFG_SECTION __attribute__ ((section(".psocinit")))
  37:Generated_Source\PSoC5/cyfitter_cfg.c ****     #endif
  38:Generated_Source\PSoC5/cyfitter_cfg.c ****     
  39:Generated_Source\PSoC5/cyfitter_cfg.c ****     #if defined(__ARMCC_VERSION)
  40:Generated_Source\PSoC5/cyfitter_cfg.c ****         #define CY_CFG_MEMORY_BARRIER() __memory_changed()
  41:Generated_Source\PSoC5/cyfitter_cfg.c ****     #else
  42:Generated_Source\PSoC5/cyfitter_cfg.c ****         #define CY_CFG_MEMORY_BARRIER() __sync_synchronize()
  43:Generated_Source\PSoC5/cyfitter_cfg.c ****     #endif
  44:Generated_Source\PSoC5/cyfitter_cfg.c ****     
  45:Generated_Source\PSoC5/cyfitter_cfg.c **** #elif defined(__ICCARM__)
  46:Generated_Source\PSoC5/cyfitter_cfg.c ****     #include <intrinsics.h>
  47:Generated_Source\PSoC5/cyfitter_cfg.c **** 
  48:Generated_Source\PSoC5/cyfitter_cfg.c ****     #define CYPACKED __packed
  49:Generated_Source\PSoC5/cyfitter_cfg.c ****     #define CYPACKED_ATTR 
  50:Generated_Source\PSoC5/cyfitter_cfg.c ****     #define CYALIGNED _Pragma("data_alignment=4")
  51:Generated_Source\PSoC5/cyfitter_cfg.c ****     #define CY_CFG_UNUSED _Pragma("diag_suppress=Pe177")
  52:Generated_Source\PSoC5/cyfitter_cfg.c ****     #define CY_CFG_SECTION _Pragma("location=\".psocinit\"")
  53:Generated_Source\PSoC5/cyfitter_cfg.c ****     
  54:Generated_Source\PSoC5/cyfitter_cfg.c ****     #define CY_CFG_MEMORY_BARRIER() __DMB()
  55:Generated_Source\PSoC5/cyfitter_cfg.c ****     
  56:Generated_Source\PSoC5/cyfitter_cfg.c **** #else
  57:Generated_Source\PSoC5/cyfitter_cfg.c ****     #error Unsupported toolchain
  58:Generated_Source\PSoC5/cyfitter_cfg.c **** #endif
  59:Generated_Source\PSoC5/cyfitter_cfg.c **** 
  60:Generated_Source\PSoC5/cyfitter_cfg.c **** #ifndef CYCODE
  61:Generated_Source\PSoC5/cyfitter_cfg.c ****     #define CYCODE
  62:Generated_Source\PSoC5/cyfitter_cfg.c **** #endif
  63:Generated_Source\PSoC5/cyfitter_cfg.c **** #ifndef CYDATA
  64:Generated_Source\PSoC5/cyfitter_cfg.c ****     #define CYDATA
  65:Generated_Source\PSoC5/cyfitter_cfg.c **** #endif
  66:Generated_Source\PSoC5/cyfitter_cfg.c **** #ifndef CYFAR
  67:Generated_Source\PSoC5/cyfitter_cfg.c ****     #define CYFAR
  68:Generated_Source\PSoC5/cyfitter_cfg.c **** #endif
  69:Generated_Source\PSoC5/cyfitter_cfg.c **** #ifndef CYXDATA
  70:Generated_Source\PSoC5/cyfitter_cfg.c ****     #define CYXDATA
  71:Generated_Source\PSoC5/cyfitter_cfg.c **** #endif
  72:Generated_Source\PSoC5/cyfitter_cfg.c **** 
  73:Generated_Source\PSoC5/cyfitter_cfg.c **** 
  74:Generated_Source\PSoC5/cyfitter_cfg.c **** CY_CFG_UNUSED
  75:Generated_Source\PSoC5/cyfitter_cfg.c **** static void CYMEMZERO(void *s, size_t n);
  76:Generated_Source\PSoC5/cyfitter_cfg.c **** CY_CFG_UNUSED
  77:Generated_Source\PSoC5/cyfitter_cfg.c **** static void CYMEMZERO(void *s, size_t n)
  78:Generated_Source\PSoC5/cyfitter_cfg.c **** {
  79:Generated_Source\PSoC5/cyfitter_cfg.c **** 	(void)memset(s, 0, n);
  80:Generated_Source\PSoC5/cyfitter_cfg.c **** }
  81:Generated_Source\PSoC5/cyfitter_cfg.c **** CY_CFG_UNUSED
  82:Generated_Source\PSoC5/cyfitter_cfg.c **** static void CYCONFIGCPY(void *dest, const void *src, size_t n);
  83:Generated_Source\PSoC5/cyfitter_cfg.c **** CY_CFG_UNUSED
  84:Generated_Source\PSoC5/cyfitter_cfg.c **** static void CYCONFIGCPY(void *dest, const void *src, size_t n)
  85:Generated_Source\PSoC5/cyfitter_cfg.c **** {
  86:Generated_Source\PSoC5/cyfitter_cfg.c **** 	(void)memcpy(dest, src, n);
  87:Generated_Source\PSoC5/cyfitter_cfg.c **** }
ARM GAS  C:\Users\Nathan\AppData\Local\Temp\ccLOwdHz.s 			page 3


  88:Generated_Source\PSoC5/cyfitter_cfg.c **** CY_CFG_UNUSED
  89:Generated_Source\PSoC5/cyfitter_cfg.c **** static void CYCONFIGCPYCODE(void *dest, const void *src, size_t n);
  90:Generated_Source\PSoC5/cyfitter_cfg.c **** CY_CFG_UNUSED
  91:Generated_Source\PSoC5/cyfitter_cfg.c **** static void CYCONFIGCPYCODE(void *dest, const void *src, size_t n)
  92:Generated_Source\PSoC5/cyfitter_cfg.c **** {
  93:Generated_Source\PSoC5/cyfitter_cfg.c **** 	(void)memcpy(dest, src, n);
  94:Generated_Source\PSoC5/cyfitter_cfg.c **** }
  95:Generated_Source\PSoC5/cyfitter_cfg.c **** 
  96:Generated_Source\PSoC5/cyfitter_cfg.c **** 
  97:Generated_Source\PSoC5/cyfitter_cfg.c **** 
  98:Generated_Source\PSoC5/cyfitter_cfg.c **** 
  99:Generated_Source\PSoC5/cyfitter_cfg.c **** /* Clock startup error codes                                                   */
 100:Generated_Source\PSoC5/cyfitter_cfg.c **** #define CYCLOCKSTART_NO_ERROR    0u
 101:Generated_Source\PSoC5/cyfitter_cfg.c **** #define CYCLOCKSTART_XTAL_ERROR  1u
 102:Generated_Source\PSoC5/cyfitter_cfg.c **** #define CYCLOCKSTART_32KHZ_ERROR 2u
 103:Generated_Source\PSoC5/cyfitter_cfg.c **** #define CYCLOCKSTART_PLL_ERROR   3u
 104:Generated_Source\PSoC5/cyfitter_cfg.c **** #define CYCLOCKSTART_FLL_ERROR   4u
 105:Generated_Source\PSoC5/cyfitter_cfg.c **** 
 106:Generated_Source\PSoC5/cyfitter_cfg.c **** 
 107:Generated_Source\PSoC5/cyfitter_cfg.c **** #ifdef CY_NEED_CYCLOCKSTARTUPERROR
 108:Generated_Source\PSoC5/cyfitter_cfg.c **** /*******************************************************************************
 109:Generated_Source\PSoC5/cyfitter_cfg.c **** * Function Name: CyClockStartupError
 110:Generated_Source\PSoC5/cyfitter_cfg.c **** ********************************************************************************
 111:Generated_Source\PSoC5/cyfitter_cfg.c **** * Summary:
 112:Generated_Source\PSoC5/cyfitter_cfg.c **** *  If an error is encountered during clock configuration (crystal startup error,
 113:Generated_Source\PSoC5/cyfitter_cfg.c **** *  PLL lock error, etc.), the system will end up here.  Unless reimplemented by
 114:Generated_Source\PSoC5/cyfitter_cfg.c **** *  the customer, this function will stop in an infinite loop.
 115:Generated_Source\PSoC5/cyfitter_cfg.c **** *
 116:Generated_Source\PSoC5/cyfitter_cfg.c **** * Parameters:
 117:Generated_Source\PSoC5/cyfitter_cfg.c **** *   void
 118:Generated_Source\PSoC5/cyfitter_cfg.c **** *
 119:Generated_Source\PSoC5/cyfitter_cfg.c **** * Return:
 120:Generated_Source\PSoC5/cyfitter_cfg.c **** *   void
 121:Generated_Source\PSoC5/cyfitter_cfg.c **** *
 122:Generated_Source\PSoC5/cyfitter_cfg.c **** *******************************************************************************/
 123:Generated_Source\PSoC5/cyfitter_cfg.c **** CY_CFG_UNUSED
 124:Generated_Source\PSoC5/cyfitter_cfg.c **** static void CyClockStartupError(uint8 errorCode);
 125:Generated_Source\PSoC5/cyfitter_cfg.c **** CY_CFG_UNUSED
 126:Generated_Source\PSoC5/cyfitter_cfg.c **** static void CyClockStartupError(uint8 errorCode)
 127:Generated_Source\PSoC5/cyfitter_cfg.c **** {
 128:Generated_Source\PSoC5/cyfitter_cfg.c ****     /* To remove the compiler warning if errorCode not used. */
 129:Generated_Source\PSoC5/cyfitter_cfg.c **** #if defined(CY_PSOC3) && (CY_PSOC3)
 130:Generated_Source\PSoC5/cyfitter_cfg.c ****     errorCode = errorCode;
 131:Generated_Source\PSoC5/cyfitter_cfg.c **** #else
 132:Generated_Source\PSoC5/cyfitter_cfg.c ****     (void)errorCode;
 133:Generated_Source\PSoC5/cyfitter_cfg.c **** #endif /* CY_PSOC3 */
 134:Generated_Source\PSoC5/cyfitter_cfg.c **** 
 135:Generated_Source\PSoC5/cyfitter_cfg.c ****     /* If we have a clock startup error (bad MHz crystal, PLL lock, etc.),  */
 136:Generated_Source\PSoC5/cyfitter_cfg.c ****     /* we will end up here to allow the customer to implement something to  */
 137:Generated_Source\PSoC5/cyfitter_cfg.c ****     /* deal with the clock condition.                                       */
 138:Generated_Source\PSoC5/cyfitter_cfg.c **** 
 139:Generated_Source\PSoC5/cyfitter_cfg.c **** #ifdef CY_CFG_CLOCK_STARTUP_ERROR_CALLBACK
 140:Generated_Source\PSoC5/cyfitter_cfg.c ****     CY_CFG_Clock_Startup_ErrorCallback();
 141:Generated_Source\PSoC5/cyfitter_cfg.c **** #else
 142:Generated_Source\PSoC5/cyfitter_cfg.c ****     /*  If not using CY_CFG_CLOCK_STARTUP_ERROR_CALLBACK, place your clock startup code here. */
 143:Generated_Source\PSoC5/cyfitter_cfg.c ****     /* `#START CyClockStartupError` */
 144:Generated_Source\PSoC5/cyfitter_cfg.c **** 
ARM GAS  C:\Users\Nathan\AppData\Local\Temp\ccLOwdHz.s 			page 4


 145:Generated_Source\PSoC5/cyfitter_cfg.c **** 
 146:Generated_Source\PSoC5/cyfitter_cfg.c **** 
 147:Generated_Source\PSoC5/cyfitter_cfg.c ****     /* `#END` */
 148:Generated_Source\PSoC5/cyfitter_cfg.c **** 
 149:Generated_Source\PSoC5/cyfitter_cfg.c ****     while(1) {}
 150:Generated_Source\PSoC5/cyfitter_cfg.c **** #endif /* CY_CFG_CLOCK_STARTUP_ERROR_CALLBACK */
 151:Generated_Source\PSoC5/cyfitter_cfg.c **** }
 152:Generated_Source\PSoC5/cyfitter_cfg.c **** #endif
 153:Generated_Source\PSoC5/cyfitter_cfg.c **** 
 154:Generated_Source\PSoC5/cyfitter_cfg.c **** #define CY_CFG_BASE_ADDR_COUNT 40u
 155:Generated_Source\PSoC5/cyfitter_cfg.c **** CYPACKED typedef struct
 156:Generated_Source\PSoC5/cyfitter_cfg.c **** {
 157:Generated_Source\PSoC5/cyfitter_cfg.c **** 	uint8 offset;
 158:Generated_Source\PSoC5/cyfitter_cfg.c **** 	uint8 value;
 159:Generated_Source\PSoC5/cyfitter_cfg.c **** } CYPACKED_ATTR cy_cfg_addrvalue_t;
 160:Generated_Source\PSoC5/cyfitter_cfg.c **** 
 161:Generated_Source\PSoC5/cyfitter_cfg.c **** #define cy_cfg_addr_table ((const uint32 CYFAR *)0x48000000u)
 162:Generated_Source\PSoC5/cyfitter_cfg.c **** #define cy_cfg_data_table ((const cy_cfg_addrvalue_t CYFAR *)0x480000A0u)
 163:Generated_Source\PSoC5/cyfitter_cfg.c **** 
 164:Generated_Source\PSoC5/cyfitter_cfg.c **** /* IOPORT_7 Address: CYDEV_PRTDSI_PRT12_BASE Size (bytes): 6 */
 165:Generated_Source\PSoC5/cyfitter_cfg.c **** #define BS_IOPORT_7_VAL ((const uint8 CYFAR *)0x48000E90u)
 166:Generated_Source\PSoC5/cyfitter_cfg.c **** 
 167:Generated_Source\PSoC5/cyfitter_cfg.c **** /* UDB_1_3_0_CONFIG Address: CYDEV_UCFG_B0_P2_U0_BASE Size (bytes): 128 */
 168:Generated_Source\PSoC5/cyfitter_cfg.c **** #define BS_UDB_1_3_0_CONFIG_VAL ((const uint8 CYFAR *)0x48000E98u)
 169:Generated_Source\PSoC5/cyfitter_cfg.c **** 
 170:Generated_Source\PSoC5/cyfitter_cfg.c **** /* UDB_0_3_1_CONFIG Address: CYDEV_UCFG_B0_P5_U1_BASE Size (bytes): 128 */
 171:Generated_Source\PSoC5/cyfitter_cfg.c **** #define BS_UDB_0_3_1_CONFIG_VAL ((const uint8 CYFAR *)0x48000F18u)
 172:Generated_Source\PSoC5/cyfitter_cfg.c **** 
 173:Generated_Source\PSoC5/cyfitter_cfg.c **** /* UDB_1_0_0_CONFIG Address: CYDEV_UCFG_B1_P2_U0_BASE Size (bytes): 128 */
 174:Generated_Source\PSoC5/cyfitter_cfg.c **** #define BS_UDB_1_0_0_CONFIG_VAL ((const uint8 CYFAR *)0x48000F98u)
 175:Generated_Source\PSoC5/cyfitter_cfg.c **** 
 176:Generated_Source\PSoC5/cyfitter_cfg.c **** /* UDB_1_1_0_CONFIG Address: CYDEV_UCFG_B1_P3_U1_BASE Size (bytes): 128 */
 177:Generated_Source\PSoC5/cyfitter_cfg.c **** #define BS_UDB_1_1_0_CONFIG_VAL ((const uint8 CYFAR *)0x48001018u)
 178:Generated_Source\PSoC5/cyfitter_cfg.c **** 
 179:Generated_Source\PSoC5/cyfitter_cfg.c **** /* UCFG_BCTL0 Address: CYREG_BCTL0_MDCLK_EN Size (bytes): 16 */
 180:Generated_Source\PSoC5/cyfitter_cfg.c **** #define BS_UCFG_BCTL0_VAL ((const uint8 CYFAR *)0x48001098u)
 181:Generated_Source\PSoC5/cyfitter_cfg.c **** 
 182:Generated_Source\PSoC5/cyfitter_cfg.c **** /* IOPINS0_0 Address: CYREG_PRT0_DR Size (bytes): 10 */
 183:Generated_Source\PSoC5/cyfitter_cfg.c **** #define BS_IOPINS0_0_VAL ((const uint8 CYFAR *)0x480010A8u)
 184:Generated_Source\PSoC5/cyfitter_cfg.c **** 
 185:Generated_Source\PSoC5/cyfitter_cfg.c **** /* IOPINS0_7 Address: CYREG_PRT12_DR Size (bytes): 10 */
 186:Generated_Source\PSoC5/cyfitter_cfg.c **** #define BS_IOPINS0_7_VAL ((const uint8 CYFAR *)0x480010B4u)
 187:Generated_Source\PSoC5/cyfitter_cfg.c **** 
 188:Generated_Source\PSoC5/cyfitter_cfg.c **** /* IOPINS1_7 Address: CYREG_PRT12_DR + 0x0000000Bu Size (bytes): 5 */
 189:Generated_Source\PSoC5/cyfitter_cfg.c **** #define BS_IOPINS1_7_VAL ((const uint8 CYFAR *)0x480010C0u)
 190:Generated_Source\PSoC5/cyfitter_cfg.c **** 
 191:Generated_Source\PSoC5/cyfitter_cfg.c **** /* IOPINS0_1 Address: CYREG_PRT1_DM0 Size (bytes): 8 */
 192:Generated_Source\PSoC5/cyfitter_cfg.c **** #define BS_IOPINS0_1_VAL ((const uint8 CYFAR *)0x480010C8u)
 193:Generated_Source\PSoC5/cyfitter_cfg.c **** 
 194:Generated_Source\PSoC5/cyfitter_cfg.c **** /* IOPINS0_2 Address: CYREG_PRT2_DR Size (bytes): 10 */
 195:Generated_Source\PSoC5/cyfitter_cfg.c **** #define BS_IOPINS0_2_VAL ((const uint8 CYFAR *)0x480010D0u)
 196:Generated_Source\PSoC5/cyfitter_cfg.c **** 
 197:Generated_Source\PSoC5/cyfitter_cfg.c **** /* IOPINS0_3 Address: CYREG_PRT3_DM0 Size (bytes): 8 */
 198:Generated_Source\PSoC5/cyfitter_cfg.c **** #define BS_IOPINS0_3_VAL ((const uint8 CYFAR *)0x480010DCu)
 199:Generated_Source\PSoC5/cyfitter_cfg.c **** 
 200:Generated_Source\PSoC5/cyfitter_cfg.c **** 
 201:Generated_Source\PSoC5/cyfitter_cfg.c **** /*******************************************************************************
ARM GAS  C:\Users\Nathan\AppData\Local\Temp\ccLOwdHz.s 			page 5


 202:Generated_Source\PSoC5/cyfitter_cfg.c **** * Function Name: cfg_write_bytes32
 203:Generated_Source\PSoC5/cyfitter_cfg.c **** ********************************************************************************
 204:Generated_Source\PSoC5/cyfitter_cfg.c **** * Summary:
 205:Generated_Source\PSoC5/cyfitter_cfg.c **** *  This function is used for setting up the chip configuration areas that
 206:Generated_Source\PSoC5/cyfitter_cfg.c **** *  contain relatively sparse data.
 207:Generated_Source\PSoC5/cyfitter_cfg.c **** *
 208:Generated_Source\PSoC5/cyfitter_cfg.c **** * Parameters:
 209:Generated_Source\PSoC5/cyfitter_cfg.c **** *   void
 210:Generated_Source\PSoC5/cyfitter_cfg.c **** *
 211:Generated_Source\PSoC5/cyfitter_cfg.c **** * Return:
 212:Generated_Source\PSoC5/cyfitter_cfg.c **** *   void
 213:Generated_Source\PSoC5/cyfitter_cfg.c **** *
 214:Generated_Source\PSoC5/cyfitter_cfg.c **** *******************************************************************************/
 215:Generated_Source\PSoC5/cyfitter_cfg.c **** static void cfg_write_bytes32(const uint32 addr_table[], const cy_cfg_addrvalue_t data_table[]);
 216:Generated_Source\PSoC5/cyfitter_cfg.c **** static void cfg_write_bytes32(const uint32 addr_table[], const cy_cfg_addrvalue_t data_table[])
 217:Generated_Source\PSoC5/cyfitter_cfg.c **** {
 218:Generated_Source\PSoC5/cyfitter_cfg.c **** 	/* For 32-bit little-endian architectures */
 219:Generated_Source\PSoC5/cyfitter_cfg.c **** 	uint32 i, j = 0u;
 220:Generated_Source\PSoC5/cyfitter_cfg.c **** 	for (i = 0u; i < CY_CFG_BASE_ADDR_COUNT; i++)
 221:Generated_Source\PSoC5/cyfitter_cfg.c **** 	{
 222:Generated_Source\PSoC5/cyfitter_cfg.c **** 		uint32 baseAddr = addr_table[i];
 223:Generated_Source\PSoC5/cyfitter_cfg.c **** 		uint8 count = (uint8)baseAddr;
 224:Generated_Source\PSoC5/cyfitter_cfg.c **** 		baseAddr &= 0xFFFFFF00u;
 225:Generated_Source\PSoC5/cyfitter_cfg.c **** 		while (count != 0u)
 226:Generated_Source\PSoC5/cyfitter_cfg.c **** 		{
 227:Generated_Source\PSoC5/cyfitter_cfg.c **** 			CY_SET_REG8((void *)(baseAddr + data_table[j].offset), data_table[j].value);
 228:Generated_Source\PSoC5/cyfitter_cfg.c **** 			j++;
 229:Generated_Source\PSoC5/cyfitter_cfg.c **** 			count--;
 230:Generated_Source\PSoC5/cyfitter_cfg.c **** 		}
 231:Generated_Source\PSoC5/cyfitter_cfg.c **** 	}
 232:Generated_Source\PSoC5/cyfitter_cfg.c **** }
 233:Generated_Source\PSoC5/cyfitter_cfg.c **** 
 234:Generated_Source\PSoC5/cyfitter_cfg.c **** /*******************************************************************************
 235:Generated_Source\PSoC5/cyfitter_cfg.c **** * Function Name: ClockSetup
 236:Generated_Source\PSoC5/cyfitter_cfg.c **** ********************************************************************************
 237:Generated_Source\PSoC5/cyfitter_cfg.c **** *
 238:Generated_Source\PSoC5/cyfitter_cfg.c **** * Summary:
 239:Generated_Source\PSoC5/cyfitter_cfg.c **** *  Performs the initialization of all of the clocks in the device based on the
 240:Generated_Source\PSoC5/cyfitter_cfg.c **** *  settings in the Clock tab of the DWR.  This includes enabling the requested
 241:Generated_Source\PSoC5/cyfitter_cfg.c **** *  clocks and setting the necessary dividers to produce the desired frequency. 
 242:Generated_Source\PSoC5/cyfitter_cfg.c **** *
 243:Generated_Source\PSoC5/cyfitter_cfg.c **** * Parameters:
 244:Generated_Source\PSoC5/cyfitter_cfg.c **** *  void
 245:Generated_Source\PSoC5/cyfitter_cfg.c **** *
 246:Generated_Source\PSoC5/cyfitter_cfg.c **** * Return:
 247:Generated_Source\PSoC5/cyfitter_cfg.c **** *  void
 248:Generated_Source\PSoC5/cyfitter_cfg.c **** *
 249:Generated_Source\PSoC5/cyfitter_cfg.c **** *******************************************************************************/
 250:Generated_Source\PSoC5/cyfitter_cfg.c **** static void ClockSetup(void);
 251:Generated_Source\PSoC5/cyfitter_cfg.c **** static void ClockSetup(void)
 252:Generated_Source\PSoC5/cyfitter_cfg.c **** {
 253:Generated_Source\PSoC5/cyfitter_cfg.c **** 	uint32 timeout;
 254:Generated_Source\PSoC5/cyfitter_cfg.c **** 	uint8 pllLock;
 255:Generated_Source\PSoC5/cyfitter_cfg.c **** 
 256:Generated_Source\PSoC5/cyfitter_cfg.c **** 
 257:Generated_Source\PSoC5/cyfitter_cfg.c **** 	/* Configure Digital Clocks based on settings from Clock DWR */
 258:Generated_Source\PSoC5/cyfitter_cfg.c **** 	CY_SET_XTND_REG16((void CYFAR *)(CYREG_CLKDIST_DCFG0_CFG0), 0x0000u);
ARM GAS  C:\Users\Nathan\AppData\Local\Temp\ccLOwdHz.s 			page 6


 259:Generated_Source\PSoC5/cyfitter_cfg.c **** 	CY_SET_XTND_REG8((void CYFAR *)(CYREG_CLKDIST_DCFG0_CFG0 + 0x2u), 0x58u);
 260:Generated_Source\PSoC5/cyfitter_cfg.c **** 	CY_SET_XTND_REG16((void CYFAR *)(CYREG_CLKDIST_DCFG1_CFG0), 0x0137u);
 261:Generated_Source\PSoC5/cyfitter_cfg.c **** 	CY_SET_XTND_REG8((void CYFAR *)(CYREG_CLKDIST_DCFG1_CFG0 + 0x2u), 0x18u);
 262:Generated_Source\PSoC5/cyfitter_cfg.c **** 	CY_SET_XTND_REG16((void CYFAR *)(CYREG_CLKDIST_DCFG2_CFG0), 0x0001u);
 263:Generated_Source\PSoC5/cyfitter_cfg.c **** 	CY_SET_XTND_REG8((void CYFAR *)(CYREG_CLKDIST_DCFG2_CFG0 + 0x2u), 0x18u);
 264:Generated_Source\PSoC5/cyfitter_cfg.c **** 	CY_SET_XTND_REG16((void CYFAR *)(CYREG_CLKDIST_DCFG3_CFG0), 0x0017u);
 265:Generated_Source\PSoC5/cyfitter_cfg.c **** 	CY_SET_XTND_REG8((void CYFAR *)(CYREG_CLKDIST_DCFG3_CFG0 + 0x2u), 0x18u);
 266:Generated_Source\PSoC5/cyfitter_cfg.c **** 	CY_SET_XTND_REG16((void CYFAR *)(CYREG_CLKDIST_DCFG4_CFG0), 0x0138u);
 267:Generated_Source\PSoC5/cyfitter_cfg.c **** 	CY_SET_XTND_REG8((void CYFAR *)(CYREG_CLKDIST_DCFG4_CFG0 + 0x2u), 0x18u);
 268:Generated_Source\PSoC5/cyfitter_cfg.c **** 	CY_SET_XTND_REG16((void CYFAR *)(CYREG_CLKDIST_DCFG5_CFG0), 0x5DBFu);
 269:Generated_Source\PSoC5/cyfitter_cfg.c **** 	CY_SET_XTND_REG8((void CYFAR *)(CYREG_CLKDIST_DCFG5_CFG0 + 0x2u), 0x18u);
 270:Generated_Source\PSoC5/cyfitter_cfg.c **** 
 271:Generated_Source\PSoC5/cyfitter_cfg.c **** 	/* Configure ILO based on settings from Clock DWR */
 272:Generated_Source\PSoC5/cyfitter_cfg.c **** 	CY_SET_XTND_REG8((void CYFAR *)(CYREG_SLOWCLK_ILO_CR0), 0x02u);
 273:Generated_Source\PSoC5/cyfitter_cfg.c **** 	CY_SET_XTND_REG8((void CYFAR *)(CYREG_CLKDIST_CR), 0x08u);
 274:Generated_Source\PSoC5/cyfitter_cfg.c **** 
 275:Generated_Source\PSoC5/cyfitter_cfg.c **** 	/* Configure IMO based on settings from Clock DWR */
 276:Generated_Source\PSoC5/cyfitter_cfg.c **** 	CY_SET_XTND_REG8((void CYFAR *)(CYREG_FASTCLK_IMO_CR), 0x03u);
 277:Generated_Source\PSoC5/cyfitter_cfg.c **** 	CY_SET_XTND_REG8((void CYFAR *)(CYREG_IMO_TR1), (CY_GET_XTND_REG8((void CYFAR *)CYREG_FLSHID_CUST_
 278:Generated_Source\PSoC5/cyfitter_cfg.c **** 
 279:Generated_Source\PSoC5/cyfitter_cfg.c **** 	/* Configure PLL based on settings from Clock DWR */
 280:Generated_Source\PSoC5/cyfitter_cfg.c **** 	CY_SET_XTND_REG16((void CYFAR *)(CYREG_FASTCLK_PLL_P), 0x0008u);
 281:Generated_Source\PSoC5/cyfitter_cfg.c **** 	CY_SET_XTND_REG16((void CYFAR *)(CYREG_FASTCLK_PLL_CFG0), 0x1251u);
 282:Generated_Source\PSoC5/cyfitter_cfg.c **** 	/* Wait up to 250us for the PLL to lock */
 283:Generated_Source\PSoC5/cyfitter_cfg.c **** 	pllLock = 0u;
 284:Generated_Source\PSoC5/cyfitter_cfg.c **** 	for (timeout = 250u / 10u; (timeout > 0u) && (pllLock != 0x03u); timeout--)
 285:Generated_Source\PSoC5/cyfitter_cfg.c **** 	{ 
 286:Generated_Source\PSoC5/cyfitter_cfg.c **** 		pllLock = 0x03u & ((uint8)((uint8)pllLock << 1) | ((CY_GET_XTND_REG8((void CYFAR *)CYREG_FASTCLK_
 287:Generated_Source\PSoC5/cyfitter_cfg.c **** 		CyDelayCycles(10u * 48u); /* Delay 10us based on 48MHz clock */
 288:Generated_Source\PSoC5/cyfitter_cfg.c **** 	}
 289:Generated_Source\PSoC5/cyfitter_cfg.c **** 	/* If we ran out of time the PLL didn't lock so go to the error function */
 290:Generated_Source\PSoC5/cyfitter_cfg.c **** 	if (timeout == 0u)
 291:Generated_Source\PSoC5/cyfitter_cfg.c **** 	{
 292:Generated_Source\PSoC5/cyfitter_cfg.c **** 		CyClockStartupError(CYCLOCKSTART_PLL_ERROR);
 293:Generated_Source\PSoC5/cyfitter_cfg.c **** 	}
 294:Generated_Source\PSoC5/cyfitter_cfg.c **** 
 295:Generated_Source\PSoC5/cyfitter_cfg.c **** 	/* Configure Bus/Master Clock based on settings from Clock DWR */
 296:Generated_Source\PSoC5/cyfitter_cfg.c **** 	CY_SET_XTND_REG16((void CYFAR *)(CYREG_CLKDIST_MSTR0), 0x0100u);
 297:Generated_Source\PSoC5/cyfitter_cfg.c **** 	CY_SET_XTND_REG8((void CYFAR *)(CYREG_CLKDIST_MSTR0), 0x07u);
 298:Generated_Source\PSoC5/cyfitter_cfg.c **** 	CY_SET_XTND_REG8((void CYFAR *)(CYREG_CLKDIST_BCFG0), 0x00u);
 299:Generated_Source\PSoC5/cyfitter_cfg.c **** 	CY_SET_XTND_REG8((void CYFAR *)(CYREG_CLKDIST_BCFG2), 0x48u);
 300:Generated_Source\PSoC5/cyfitter_cfg.c **** 	CY_SET_XTND_REG8((void CYFAR *)(CYREG_CLKDIST_MSTR0), 0x00u);
 301:Generated_Source\PSoC5/cyfitter_cfg.c **** 	CY_SET_XTND_REG8((void CYFAR *)(CYREG_CLKDIST_LD), 0x02u);
 302:Generated_Source\PSoC5/cyfitter_cfg.c **** 
 303:Generated_Source\PSoC5/cyfitter_cfg.c **** 	CY_SET_XTND_REG8((void CYFAR *)(CYREG_PM_ACT_CFG2), ((CY_GET_XTND_REG8((void CYFAR *)CYREG_PM_ACT_
 304:Generated_Source\PSoC5/cyfitter_cfg.c **** }
 305:Generated_Source\PSoC5/cyfitter_cfg.c **** 
 306:Generated_Source\PSoC5/cyfitter_cfg.c **** 
 307:Generated_Source\PSoC5/cyfitter_cfg.c **** /* Analog API Functions */
 308:Generated_Source\PSoC5/cyfitter_cfg.c **** 
 309:Generated_Source\PSoC5/cyfitter_cfg.c **** 
 310:Generated_Source\PSoC5/cyfitter_cfg.c **** /*******************************************************************************
 311:Generated_Source\PSoC5/cyfitter_cfg.c **** * Function Name: AnalogSetDefault
 312:Generated_Source\PSoC5/cyfitter_cfg.c **** ********************************************************************************
 313:Generated_Source\PSoC5/cyfitter_cfg.c **** *
 314:Generated_Source\PSoC5/cyfitter_cfg.c **** * Summary:
 315:Generated_Source\PSoC5/cyfitter_cfg.c **** *  Sets up the analog portions of the chip to default values based on chip
ARM GAS  C:\Users\Nathan\AppData\Local\Temp\ccLOwdHz.s 			page 7


 316:Generated_Source\PSoC5/cyfitter_cfg.c **** *  configuration options from the project.
 317:Generated_Source\PSoC5/cyfitter_cfg.c **** *
 318:Generated_Source\PSoC5/cyfitter_cfg.c **** * Parameters:
 319:Generated_Source\PSoC5/cyfitter_cfg.c **** *  void
 320:Generated_Source\PSoC5/cyfitter_cfg.c **** *
 321:Generated_Source\PSoC5/cyfitter_cfg.c **** * Return:
 322:Generated_Source\PSoC5/cyfitter_cfg.c **** *  void
 323:Generated_Source\PSoC5/cyfitter_cfg.c **** *
 324:Generated_Source\PSoC5/cyfitter_cfg.c **** *******************************************************************************/
 325:Generated_Source\PSoC5/cyfitter_cfg.c **** static void AnalogSetDefault(void);
 326:Generated_Source\PSoC5/cyfitter_cfg.c **** static void AnalogSetDefault(void)
 327:Generated_Source\PSoC5/cyfitter_cfg.c **** {
 328:Generated_Source\PSoC5/cyfitter_cfg.c **** 	uint8 bg_xover_inl_trim = CY_GET_XTND_REG8((void CYFAR *)(CYREG_FLSHID_MFG_CFG_BG_XOVER_INL_TRIM +
 329:Generated_Source\PSoC5/cyfitter_cfg.c **** 	CY_SET_XTND_REG8((void CYFAR *)(CYREG_BG_DFT0), (bg_xover_inl_trim & 0x07u));
 330:Generated_Source\PSoC5/cyfitter_cfg.c **** 	CY_SET_XTND_REG8((void CYFAR *)(CYREG_BG_DFT1), ((bg_xover_inl_trim >> 4) & 0x0Fu));
 331:Generated_Source\PSoC5/cyfitter_cfg.c **** 	CY_SET_XTND_REG8((void CYFAR *)CYREG_PRT12_AG, 0x20u);
 332:Generated_Source\PSoC5/cyfitter_cfg.c **** 	CY_SET_XTND_REG8((void CYFAR *)CYREG_DAC0_SW0, 0x02u);
 333:Generated_Source\PSoC5/cyfitter_cfg.c **** 	CY_SET_XTND_REG8((void CYFAR *)CYREG_PUMP_CR0, 0x44u);
 334:Generated_Source\PSoC5/cyfitter_cfg.c **** }
 335:Generated_Source\PSoC5/cyfitter_cfg.c **** 
 336:Generated_Source\PSoC5/cyfitter_cfg.c **** 
 337:Generated_Source\PSoC5/cyfitter_cfg.c **** /*******************************************************************************
 338:Generated_Source\PSoC5/cyfitter_cfg.c **** * Function Name: SetAnalogRoutingPumps
 339:Generated_Source\PSoC5/cyfitter_cfg.c **** ********************************************************************************
 340:Generated_Source\PSoC5/cyfitter_cfg.c **** *
 341:Generated_Source\PSoC5/cyfitter_cfg.c **** * Summary:
 342:Generated_Source\PSoC5/cyfitter_cfg.c **** * Enables or disables the analog pumps feeding analog routing switches.
 343:Generated_Source\PSoC5/cyfitter_cfg.c **** * Intended to be called at startup, based on the Vdda system configuration;
 344:Generated_Source\PSoC5/cyfitter_cfg.c **** * may be called during operation when the user informs us that the Vdda voltage
 345:Generated_Source\PSoC5/cyfitter_cfg.c **** * crossed the pump threshold.
 346:Generated_Source\PSoC5/cyfitter_cfg.c **** *
 347:Generated_Source\PSoC5/cyfitter_cfg.c **** * Parameters:
 348:Generated_Source\PSoC5/cyfitter_cfg.c **** *  enabled - 1 to enable the pumps, 0 to disable the pumps
 349:Generated_Source\PSoC5/cyfitter_cfg.c **** *
 350:Generated_Source\PSoC5/cyfitter_cfg.c **** * Return:
 351:Generated_Source\PSoC5/cyfitter_cfg.c **** *  void
 352:Generated_Source\PSoC5/cyfitter_cfg.c **** *
 353:Generated_Source\PSoC5/cyfitter_cfg.c **** *******************************************************************************/
 354:Generated_Source\PSoC5/cyfitter_cfg.c **** void SetAnalogRoutingPumps(uint8 enabled)
 355:Generated_Source\PSoC5/cyfitter_cfg.c **** {
  28              		.loc 1 355 0
  29              		.cfi_startproc
  30              		@ args = 0, pretend = 0, frame = 0
  31              		@ frame_needed = 0, uses_anonymous_args = 0
  32              		@ link register save eliminated.
  33              	.LVL0:
 356:Generated_Source\PSoC5/cyfitter_cfg.c **** 	uint8 regValue = CY_GET_XTND_REG8((void CYFAR *)CYREG_PUMP_CR0);
  34              		.loc 1 356 0
  35 0000 054A     		ldr	r2, .L5
  36 0002 1378     		ldrb	r3, [r2]	@ zero_extendqisi2
  37 0004 DBB2     		uxtb	r3, r3
  38              	.LVL1:
 357:Generated_Source\PSoC5/cyfitter_cfg.c **** 	if (enabled != 0u)
  39              		.loc 1 357 0
  40 0006 10B1     		cbz	r0, .L2
 358:Generated_Source\PSoC5/cyfitter_cfg.c **** 	{
 359:Generated_Source\PSoC5/cyfitter_cfg.c **** 		regValue |= 0x22u;
ARM GAS  C:\Users\Nathan\AppData\Local\Temp\ccLOwdHz.s 			page 8


  41              		.loc 1 359 0
  42 0008 43F02203 		orr	r3, r3, #34
  43              	.LVL2:
  44 000c 01E0     		b	.L3
  45              	.L2:
 360:Generated_Source\PSoC5/cyfitter_cfg.c **** 	}
 361:Generated_Source\PSoC5/cyfitter_cfg.c **** 	else
 362:Generated_Source\PSoC5/cyfitter_cfg.c **** 	{
 363:Generated_Source\PSoC5/cyfitter_cfg.c **** 		regValue &= (uint8)~0x22u;
  46              		.loc 1 363 0
  47 000e 03F0DD03 		and	r3, r3, #221
  48              	.LVL3:
  49              	.L3:
 364:Generated_Source\PSoC5/cyfitter_cfg.c **** 	}
 365:Generated_Source\PSoC5/cyfitter_cfg.c **** 	CY_SET_XTND_REG8((void CYFAR *)CYREG_PUMP_CR0, regValue);
  50              		.loc 1 365 0
  51 0012 1370     		strb	r3, [r2]
  52 0014 7047     		bx	lr
  53              	.L6:
  54 0016 00BF     		.align	2
  55              	.L5:
  56 0018 76580040 		.word	1073764470
  57              		.cfi_endproc
  58              	.LFE7:
  59              		.size	SetAnalogRoutingPumps, .-SetAnalogRoutingPumps
  60              		.section	.text.cyfitter_cfg,"ax",%progbits
  61              		.align	1
  62              		.global	cyfitter_cfg
  63              		.thumb
  64              		.thumb_func
  65              		.type	cyfitter_cfg, %function
  66              	cyfitter_cfg:
  67              	.LFB8:
 366:Generated_Source\PSoC5/cyfitter_cfg.c **** }
 367:Generated_Source\PSoC5/cyfitter_cfg.c **** 
 368:Generated_Source\PSoC5/cyfitter_cfg.c **** 
 369:Generated_Source\PSoC5/cyfitter_cfg.c **** 
 370:Generated_Source\PSoC5/cyfitter_cfg.c **** 
 371:Generated_Source\PSoC5/cyfitter_cfg.c **** /*******************************************************************************
 372:Generated_Source\PSoC5/cyfitter_cfg.c **** * Function Name: cyfitter_cfg
 373:Generated_Source\PSoC5/cyfitter_cfg.c **** ********************************************************************************
 374:Generated_Source\PSoC5/cyfitter_cfg.c **** * Summary:
 375:Generated_Source\PSoC5/cyfitter_cfg.c **** *  This function is called by the start-up code for the selected device. It
 376:Generated_Source\PSoC5/cyfitter_cfg.c **** *  performs all of the necessary device configuration based on the design
 377:Generated_Source\PSoC5/cyfitter_cfg.c **** *  settings.  This includes settings from the Design Wide Resources (DWR) such
 378:Generated_Source\PSoC5/cyfitter_cfg.c **** *  as Clocks and Pins as well as any component configuration that is necessary.
 379:Generated_Source\PSoC5/cyfitter_cfg.c **** *
 380:Generated_Source\PSoC5/cyfitter_cfg.c **** * Parameters:
 381:Generated_Source\PSoC5/cyfitter_cfg.c **** *   void
 382:Generated_Source\PSoC5/cyfitter_cfg.c **** *
 383:Generated_Source\PSoC5/cyfitter_cfg.c **** * Return:
 384:Generated_Source\PSoC5/cyfitter_cfg.c **** *   void
 385:Generated_Source\PSoC5/cyfitter_cfg.c **** *
 386:Generated_Source\PSoC5/cyfitter_cfg.c **** *******************************************************************************/
 387:Generated_Source\PSoC5/cyfitter_cfg.c **** 
 388:Generated_Source\PSoC5/cyfitter_cfg.c **** void cyfitter_cfg(void)
 389:Generated_Source\PSoC5/cyfitter_cfg.c **** {
ARM GAS  C:\Users\Nathan\AppData\Local\Temp\ccLOwdHz.s 			page 9


  68              		.loc 1 389 0
  69              		.cfi_startproc
  70              		@ args = 0, pretend = 0, frame = 0
  71              		@ frame_needed = 0, uses_anonymous_args = 0
  72 0000 F8B5     		push	{r3, r4, r5, r6, r7, lr}
  73              		.cfi_def_cfa_offset 24
  74              		.cfi_offset 3, -24
  75              		.cfi_offset 4, -20
  76              		.cfi_offset 5, -16
  77              		.cfi_offset 6, -12
  78              		.cfi_offset 7, -8
  79              		.cfi_offset 14, -4
 390:Generated_Source\PSoC5/cyfitter_cfg.c **** #ifdef CYGlobalIntDisable
 391:Generated_Source\PSoC5/cyfitter_cfg.c **** 	/* Disable interrupts by default. Let user enable if/when they want. */
 392:Generated_Source\PSoC5/cyfitter_cfg.c **** 	CYGlobalIntDisable
  80              		.loc 1 392 0
  81              		.syntax unified
  82              	@ 392 "Generated_Source\PSoC5\cyfitter_cfg.c" 1
  83 0002 72B6     		CPSID   i
  84              	@ 0 "" 2
 393:Generated_Source\PSoC5/cyfitter_cfg.c **** #endif
 394:Generated_Source\PSoC5/cyfitter_cfg.c **** 
 395:Generated_Source\PSoC5/cyfitter_cfg.c **** 	/* Enable/Disable Debug functionality based on settings from System DWR */
 396:Generated_Source\PSoC5/cyfitter_cfg.c **** 	CY_SET_XTND_REG8((void CYFAR *)CYREG_MLOGIC_DEBUG, (CY_GET_XTND_REG8((void CYFAR *)CYREG_MLOGIC_DE
  85              		.loc 1 396 0
  86              		.thumb
  87              		.syntax unified
  88 0004 794A     		ldr	r2, .L24
  89              	.LBB52:
  90              	.LBB53:
 397:Generated_Source\PSoC5/cyfitter_cfg.c **** 
 398:Generated_Source\PSoC5/cyfitter_cfg.c **** 	{
 399:Generated_Source\PSoC5/cyfitter_cfg.c **** 
 400:Generated_Source\PSoC5/cyfitter_cfg.c **** 		CYPACKED typedef struct {
 401:Generated_Source\PSoC5/cyfitter_cfg.c **** 			void CYFAR *address;
 402:Generated_Source\PSoC5/cyfitter_cfg.c **** 			uint16 size;
 403:Generated_Source\PSoC5/cyfitter_cfg.c **** 		} CYPACKED_ATTR cfg_memset_t;
 404:Generated_Source\PSoC5/cyfitter_cfg.c **** 
 405:Generated_Source\PSoC5/cyfitter_cfg.c **** 
 406:Generated_Source\PSoC5/cyfitter_cfg.c **** 		CYPACKED typedef struct {
 407:Generated_Source\PSoC5/cyfitter_cfg.c **** 			void CYFAR *dest;
 408:Generated_Source\PSoC5/cyfitter_cfg.c **** 			const void CYFAR *src;
 409:Generated_Source\PSoC5/cyfitter_cfg.c **** 			uint16 size;
 410:Generated_Source\PSoC5/cyfitter_cfg.c **** 		} CYPACKED_ATTR cfg_memcpy_t;
 411:Generated_Source\PSoC5/cyfitter_cfg.c **** 
 412:Generated_Source\PSoC5/cyfitter_cfg.c **** 		static const cfg_memset_t CYCODE cfg_memset_list[] = {
 413:Generated_Source\PSoC5/cyfitter_cfg.c **** 			/* address, size */
 414:Generated_Source\PSoC5/cyfitter_cfg.c **** 			{(void CYFAR *)(CYREG_I2C_XCFG), 25u},
 415:Generated_Source\PSoC5/cyfitter_cfg.c **** 			{(void CYFAR *)(CYREG_TMR0_CFG0), 24u},
 416:Generated_Source\PSoC5/cyfitter_cfg.c **** 			{(void CYFAR *)(CYREG_PRT4_DR), 48u},
 417:Generated_Source\PSoC5/cyfitter_cfg.c **** 			{(void CYFAR *)(CYREG_PRT15_DR), 16u},
 418:Generated_Source\PSoC5/cyfitter_cfg.c **** 			{(void CYFAR *)(CYDEV_UCFG_B0_P0_U0_BASE), 1024u},
 419:Generated_Source\PSoC5/cyfitter_cfg.c **** 			{(void CYFAR *)(CYDEV_UCFG_B0_P2_U1_BASE), 1536u},
 420:Generated_Source\PSoC5/cyfitter_cfg.c **** 			{(void CYFAR *)(CYDEV_UCFG_B0_P5_ROUTE_BASE), 1280u},
 421:Generated_Source\PSoC5/cyfitter_cfg.c **** 			{(void CYFAR *)(CYDEV_UCFG_B1_P2_U1_BASE), 512u},
 422:Generated_Source\PSoC5/cyfitter_cfg.c **** 			{(void CYFAR *)(CYDEV_UCFG_B1_P3_ROUTE_BASE), 1280u},
 423:Generated_Source\PSoC5/cyfitter_cfg.c **** 			{(void CYFAR *)(CYDEV_UCFG_DSI0_BASE), 2560u},
ARM GAS  C:\Users\Nathan\AppData\Local\Temp\ccLOwdHz.s 			page 10


 424:Generated_Source\PSoC5/cyfitter_cfg.c **** 			{(void CYFAR *)(CYDEV_UCFG_DSI12_BASE), 512u},
 425:Generated_Source\PSoC5/cyfitter_cfg.c **** 			{(void CYFAR *)(CYREG_BCTL1_MDCLK_EN), 16u},
 426:Generated_Source\PSoC5/cyfitter_cfg.c **** 		};
 427:Generated_Source\PSoC5/cyfitter_cfg.c **** 
 428:Generated_Source\PSoC5/cyfitter_cfg.c **** 		static const cfg_memcpy_t CYCODE cfg_memcpy_list [] = {
 429:Generated_Source\PSoC5/cyfitter_cfg.c **** 			/* dest, src, size */
 430:Generated_Source\PSoC5/cyfitter_cfg.c **** 			{(void CYFAR *)(CYDEV_PRTDSI_PRT12_BASE), BS_IOPORT_7_VAL, 6u},
 431:Generated_Source\PSoC5/cyfitter_cfg.c **** 			{(void CYFAR *)(CYDEV_UCFG_B0_P2_U0_BASE), BS_UDB_1_3_0_CONFIG_VAL, 128u},
 432:Generated_Source\PSoC5/cyfitter_cfg.c **** 			{(void CYFAR *)(CYDEV_UCFG_B0_P5_U1_BASE), BS_UDB_0_3_1_CONFIG_VAL, 128u},
 433:Generated_Source\PSoC5/cyfitter_cfg.c **** 			{(void CYFAR *)(CYDEV_UCFG_B1_P2_U0_BASE), BS_UDB_1_0_0_CONFIG_VAL, 128u},
 434:Generated_Source\PSoC5/cyfitter_cfg.c **** 			{(void CYFAR *)(CYDEV_UCFG_B1_P3_U1_BASE), BS_UDB_1_1_0_CONFIG_VAL, 128u},
 435:Generated_Source\PSoC5/cyfitter_cfg.c **** 			{(void CYFAR *)(CYREG_BCTL0_MDCLK_EN), BS_UCFG_BCTL0_VAL, 16u},
 436:Generated_Source\PSoC5/cyfitter_cfg.c **** 		};
 437:Generated_Source\PSoC5/cyfitter_cfg.c **** 
 438:Generated_Source\PSoC5/cyfitter_cfg.c **** 		uint8 CYDATA i;
 439:Generated_Source\PSoC5/cyfitter_cfg.c **** 
 440:Generated_Source\PSoC5/cyfitter_cfg.c **** 		/* Zero out critical memory blocks before beginning configuration */
 441:Generated_Source\PSoC5/cyfitter_cfg.c **** 		for (i = 0u; i < (sizeof(cfg_memset_list)/sizeof(cfg_memset_list[0])); i++)
 442:Generated_Source\PSoC5/cyfitter_cfg.c **** 		{
 443:Generated_Source\PSoC5/cyfitter_cfg.c **** 			const cfg_memset_t CYCODE * CYDATA ms = &cfg_memset_list[i];
 444:Generated_Source\PSoC5/cyfitter_cfg.c **** 			CYMEMZERO(ms->address, (size_t)(uint32)(ms->size));
  91              		.loc 1 444 0
  92 0006 7A4E     		ldr	r6, .L24+4
  93              	.LBE53:
  94              	.LBE52:
 396:Generated_Source\PSoC5/cyfitter_cfg.c **** 
  95              		.loc 1 396 0
  96 0008 1378     		ldrb	r3, [r2]	@ zero_extendqisi2
  97 000a 0024     		movs	r4, #0
  98 000c 43F00403 		orr	r3, r3, #4
  99 0010 1370     		strb	r3, [r2]
 100              	.LVL4:
 101              	.LBB65:
 102              	.LBB56:
 103              		.loc 1 444 0
 104 0012 0627     		movs	r7, #6
 105              	.LVL5:
 106              	.L8:
 107              		.loc 1 444 0 is_stmt 0 discriminator 3
 108 0014 07FB0463 		mla	r3, r7, r4, r6
 109              	.LBB54:
 110              	.LBB55:
  79:Generated_Source\PSoC5/cyfitter_cfg.c **** }
 111              		.loc 1 79 0 is_stmt 1 discriminator 3
 112 0018 0021     		movs	r1, #0
 113 001a 9A88     		ldrh	r2, [r3, #4]	@ unaligned
 114 001c 1868     		ldr	r0, [r3]	@ unaligned
 115 001e 0134     		adds	r4, r4, #1
 116              	.LVL6:
 117 0020 FFF7FEFF 		bl	memset
 118              	.LVL7:
 119              	.LBE55:
 120              	.LBE54:
 121              	.LBE56:
 441:Generated_Source\PSoC5/cyfitter_cfg.c **** 		{
 122              		.loc 1 441 0 discriminator 3
 123 0024 0C2C     		cmp	r4, #12
ARM GAS  C:\Users\Nathan\AppData\Local\Temp\ccLOwdHz.s 			page 11


 124 0026 724D     		ldr	r5, .L24+4
 125 0028 F4D1     		bne	.L8
 126 002a 0024     		movs	r4, #0
 127              	.LVL8:
 128              	.LBB57:
 445:Generated_Source\PSoC5/cyfitter_cfg.c **** 		}
 446:Generated_Source\PSoC5/cyfitter_cfg.c **** 
 447:Generated_Source\PSoC5/cyfitter_cfg.c **** 		/* Copy device configuration data into registers */
 448:Generated_Source\PSoC5/cyfitter_cfg.c **** 		for (i = 0u; i < (sizeof(cfg_memcpy_list)/sizeof(cfg_memcpy_list[0])); i++)
 449:Generated_Source\PSoC5/cyfitter_cfg.c **** 		{
 450:Generated_Source\PSoC5/cyfitter_cfg.c **** 			const cfg_memcpy_t CYCODE * CYDATA mc = &cfg_memcpy_list[i];
 451:Generated_Source\PSoC5/cyfitter_cfg.c **** 			void * CYDATA destPtr = mc->dest;
 129              		.loc 1 451 0 discriminator 3
 130 002c 0A26     		movs	r6, #10
 131              	.L9:
 132              	.LVL9:
 133 002e 06FB0452 		mla	r2, r6, r4, r5
 134 0032 1346     		mov	r3, r2
 135 0034 53F8480F 		ldr	r0, [r3, #72]!	@ unaligned
 136              	.LBB58:
 137              	.LBB59:
  86:Generated_Source\PSoC5/cyfitter_cfg.c **** }
 138              		.loc 1 86 0 discriminator 3
 139 0038 B2F85020 		ldrh	r2, [r2, #80]	@ unaligned
 140 003c 5968     		ldr	r1, [r3, #4]	@ unaligned
 141 003e 0134     		adds	r4, r4, #1
 142              	.LVL10:
 143 0040 FFF7FEFF 		bl	memcpy
 144              	.LVL11:
 145              	.LBE59:
 146              	.LBE58:
 147              	.LBE57:
 448:Generated_Source\PSoC5/cyfitter_cfg.c **** 		{
 148              		.loc 1 448 0 discriminator 3
 149 0044 062C     		cmp	r4, #6
 150 0046 F2D1     		bne	.L9
 151 0048 6A48     		ldr	r0, .L24+8
 152              	.LBB60:
 153              	.LBB61:
 220:Generated_Source\PSoC5/cyfitter_cfg.c **** 	{
 154              		.loc 1 220 0
 155 004a 6B4D     		ldr	r5, .L24+12
 156              	.LBE61:
 157              	.LBE60:
 158 004c 0024     		movs	r4, #0
 159              	.LVL12:
 160              	.L12:
 161              	.LBB64:
 162              	.LBB63:
 163              	.LBB62:
 222:Generated_Source\PSoC5/cyfitter_cfg.c **** 		uint8 count = (uint8)baseAddr;
 164              		.loc 1 222 0
 165 004e 50F8041F 		ldr	r1, [r0, #4]!
 166              	.LVL13:
 167 0052 04F11053 		add	r3, r4, #603979776
 168 0056 03F15002 		add	r2, r3, #80
 224:Generated_Source\PSoC5/cyfitter_cfg.c **** 		while (count != 0u)
ARM GAS  C:\Users\Nathan\AppData\Local\Temp\ccLOwdHz.s 			page 12


 169              		.loc 1 224 0
 170 005a 21F0FF06 		bic	r6, r1, #255
 171              	.LVL14:
 172 005e 5133     		adds	r3, r3, #81
 173 0060 C9B2     		uxtb	r1, r1
 174 0062 0B44     		add	r3, r3, r1
 175 0064 5200     		lsls	r2, r2, #1
 176 0066 5B00     		lsls	r3, r3, #1
 177              	.LVL15:
 178              	.L10:
 179 0068 0232     		adds	r2, r2, #2
 225:Generated_Source\PSoC5/cyfitter_cfg.c **** 		{
 180              		.loc 1 225 0
 181 006a 9A42     		cmp	r2, r3
 182 006c 06D0     		beq	.L23
 227:Generated_Source\PSoC5/cyfitter_cfg.c **** 			j++;
 183              		.loc 1 227 0
 184 006e 12F8027C 		ldrb	r7, [r2, #-2]	@ zero_extendqisi2
 185 0072 12F801EC 		ldrb	lr, [r2, #-1]	@ zero_extendqisi2
 186 0076 07F806E0 		strb	lr, [r7, r6]
 187 007a F5E7     		b	.L10
 188              	.L23:
 189              	.LBE62:
 220:Generated_Source\PSoC5/cyfitter_cfg.c **** 	{
 190              		.loc 1 220 0
 191 007c A842     		cmp	r0, r5
 192 007e 0C44     		add	r4, r4, r1
 193              	.LVL16:
 194 0080 E5D1     		bne	.L12
 195              	.LVL17:
 196              	.LBE63:
 197              	.LBE64:
 452:Generated_Source\PSoC5/cyfitter_cfg.c **** 			const void * CYDATA srcPtr = mc->src;
 453:Generated_Source\PSoC5/cyfitter_cfg.c **** 			uint16 CYDATA numBytes = mc->size;
 454:Generated_Source\PSoC5/cyfitter_cfg.c **** 			CYCONFIGCPY(destPtr, srcPtr, numBytes);
 455:Generated_Source\PSoC5/cyfitter_cfg.c **** 		}
 456:Generated_Source\PSoC5/cyfitter_cfg.c **** 
 457:Generated_Source\PSoC5/cyfitter_cfg.c **** 		cfg_write_bytes32(cy_cfg_addr_table, cy_cfg_data_table);
 458:Generated_Source\PSoC5/cyfitter_cfg.c **** 
 459:Generated_Source\PSoC5/cyfitter_cfg.c **** 		/* Enable digital routing */
 460:Generated_Source\PSoC5/cyfitter_cfg.c **** 		CY_SET_XTND_REG8((void CYFAR *)CYREG_BCTL0_BANK_CTL, CY_GET_XTND_REG8((void CYFAR *)CYREG_BCTL0_B
 198              		.loc 1 460 0
 199 0082 5E4A     		ldr	r2, .L24+16
 461:Generated_Source\PSoC5/cyfitter_cfg.c **** 		CY_SET_XTND_REG8((void CYFAR *)CYREG_BCTL1_BANK_CTL, CY_GET_XTND_REG8((void CYFAR *)CYREG_BCTL1_B
 462:Generated_Source\PSoC5/cyfitter_cfg.c **** 
 463:Generated_Source\PSoC5/cyfitter_cfg.c **** 		/* Enable UDB array */
 464:Generated_Source\PSoC5/cyfitter_cfg.c **** 		CY_SET_XTND_REG8((void CYFAR *)CYREG_PM_ACT_CFG0, CY_GET_XTND_REG8((void CYFAR *)CYREG_PM_ACT_CFG
 200              		.loc 1 464 0
 201 0084 5E4C     		ldr	r4, .L24+20
 460:Generated_Source\PSoC5/cyfitter_cfg.c **** 		CY_SET_XTND_REG8((void CYFAR *)CYREG_BCTL1_BANK_CTL, CY_GET_XTND_REG8((void CYFAR *)CYREG_BCTL1_B
 202              		.loc 1 460 0
 203 0086 1378     		ldrb	r3, [r2]	@ zero_extendqisi2
 204              	.LBE65:
 205              	.LBB66:
 206              	.LBB67:
  86:Generated_Source\PSoC5/cyfitter_cfg.c **** }
 207              		.loc 1 86 0
ARM GAS  C:\Users\Nathan\AppData\Local\Temp\ccLOwdHz.s 			page 13


 208 0088 5E4D     		ldr	r5, .L24+24
 209              	.LBE67:
 210              	.LBE66:
 211              	.LBB69:
 460:Generated_Source\PSoC5/cyfitter_cfg.c **** 		CY_SET_XTND_REG8((void CYFAR *)CYREG_BCTL1_BANK_CTL, CY_GET_XTND_REG8((void CYFAR *)CYREG_BCTL1_B
 212              		.loc 1 460 0
 213 008a 43F00203 		orr	r3, r3, #2
 214 008e 1370     		strb	r3, [r2]
 461:Generated_Source\PSoC5/cyfitter_cfg.c **** 		CY_SET_XTND_REG8((void CYFAR *)CYREG_BCTL1_BANK_CTL, CY_GET_XTND_REG8((void CYFAR *)CYREG_BCTL1_B
 215              		.loc 1 461 0
 216 0090 137C     		ldrb	r3, [r2, #16]	@ zero_extendqisi2
 217              	.LBE69:
 218              	.LBB70:
 219              	.LBB71:
 286:Generated_Source\PSoC5/cyfitter_cfg.c **** 		CyDelayCycles(10u * 48u); /* Delay 10us based on 48MHz clock */
 220              		.loc 1 286 0
 221 0092 5D4F     		ldr	r7, .L24+28
 222              	.LBE71:
 223              	.LBE70:
 224              	.LBB76:
 461:Generated_Source\PSoC5/cyfitter_cfg.c **** 
 225              		.loc 1 461 0
 226 0094 43F00203 		orr	r3, r3, #2
 227 0098 1374     		strb	r3, [r2, #16]
 228              		.loc 1 464 0
 229 009a 2378     		ldrb	r3, [r4]	@ zero_extendqisi2
 465:Generated_Source\PSoC5/cyfitter_cfg.c **** 		CY_SET_XTND_REG8((void CYFAR *)CYREG_PM_AVAIL_CR2, CY_GET_XTND_REG8((void CYFAR *)CYREG_PM_AVAIL_
 230              		.loc 1 465 0
 231 009c A2F58632 		sub	r2, r2, #68608
 464:Generated_Source\PSoC5/cyfitter_cfg.c **** 		CY_SET_XTND_REG8((void CYFAR *)CYREG_PM_AVAIL_CR2, CY_GET_XTND_REG8((void CYFAR *)CYREG_PM_AVAIL_
 232              		.loc 1 464 0
 233 00a0 43F04003 		orr	r3, r3, #64
 234 00a4 2370     		strb	r3, [r4]
 235              		.loc 1 465 0
 236 00a6 413A     		subs	r2, r2, #65
 237 00a8 1378     		ldrb	r3, [r2]	@ zero_extendqisi2
 238              	.LBE76:
 239              	.LBB77:
 240              	.LBB72:
 281:Generated_Source\PSoC5/cyfitter_cfg.c **** 	/* Wait up to 250us for the PLL to lock */
 241              		.loc 1 281 0
 242 00aa 1926     		movs	r6, #25
 243              	.LBE72:
 244              	.LBE77:
 245              	.LBB78:
 246              		.loc 1 465 0
 247 00ac 43F01003 		orr	r3, r3, #16
 248 00b0 1370     		strb	r3, [r2]
 249              	.LVL18:
 250              	.LBE78:
 251              	.LBB79:
 252              	.LBB80:
  86:Generated_Source\PSoC5/cyfitter_cfg.c **** }
 253              		.loc 1 86 0
 254 00b2 564A     		ldr	r2, .L24+32
 255 00b4 564B     		ldr	r3, .L24+36
 256 00b6 07CA     		ldmia	r2, {r0, r1, r2}
ARM GAS  C:\Users\Nathan\AppData\Local\Temp\ccLOwdHz.s 			page 14


 257 00b8 03C3     		stmia	r3!, {r0, r1}
 258 00ba 1A80     		strh	r2, [r3]	@ movhi
 259              	.LVL19:
 260              	.LBE80:
 261              	.LBE79:
 262              	.LBB81:
 263              	.LBB82:
 264 00bc 554A     		ldr	r2, .L24+40
 265 00be B833     		adds	r3, r3, #184
 266 00c0 07CA     		ldmia	r2, {r0, r1, r2}
 267 00c2 03C3     		stmia	r3!, {r0, r1}
 268 00c4 1A80     		strh	r2, [r3]	@ movhi
 269              	.LVL20:
 270              	.LBE82:
 271              	.LBE81:
 272              	.LBB83:
 273              	.LBB84:
 274 00c6 544A     		ldr	r2, .L24+44
 275 00c8 1068     		ldr	r0, [r2]	@ unaligned
 276 00ca C3F80300 		str	r0, [r3, #3]	@ unaligned
 277 00ce 1279     		ldrb	r2, [r2, #4]	@ zero_extendqisi2
 278 00d0 DA71     		strb	r2, [r3, #7]
 279              	.LVL21:
 280              	.LBE84:
 281              	.LBE83:
 282              	.LBB85:
 283              	.LBB86:
 284 00d2 524A     		ldr	r2, .L24+48
 285 00d4 524B     		ldr	r3, .L24+52
 286 00d6 03CB     		ldmia	r3!, {r0, r1}
 287 00d8 1060     		str	r0, [r2]	@ unaligned
 288 00da 5160     		str	r1, [r2, #4]	@ unaligned
 289              	.LVL22:
 290              	.LBE86:
 291              	.LBE85:
 292              	.LBB87:
 293              	.LBB68:
 294 00dc 93E80700 		ldmia	r3, {r0, r1, r2}
 295 00e0 03C5     		stmia	r5!, {r0, r1}
 296 00e2 2A80     		strh	r2, [r5]	@ movhi
 297              	.LVL23:
 298              	.LBE68:
 299              	.LBE87:
 300              	.LBB88:
 301              	.LBB89:
 302 00e4 4F4A     		ldr	r2, .L24+56
 303 00e6 0C33     		adds	r3, r3, #12
 304 00e8 03CB     		ldmia	r3!, {r0, r1}
 305              	.LBE89:
 306              	.LBE88:
 466:Generated_Source\PSoC5/cyfitter_cfg.c **** 	}
 467:Generated_Source\PSoC5/cyfitter_cfg.c **** 
 468:Generated_Source\PSoC5/cyfitter_cfg.c **** 
 469:Generated_Source\PSoC5/cyfitter_cfg.c **** 	/* Perform second pass device configuration. These items must be configured in specific order afte
 470:Generated_Source\PSoC5/cyfitter_cfg.c **** 	CYCONFIGCPY((void CYFAR *)(CYREG_PRT0_DR), (const void CYFAR *)(BS_IOPINS0_0_VAL), 10u);
 471:Generated_Source\PSoC5/cyfitter_cfg.c **** 	CYCONFIGCPY((void CYFAR *)(CYREG_PRT12_DR), (const void CYFAR *)(BS_IOPINS0_7_VAL), 10u);
 472:Generated_Source\PSoC5/cyfitter_cfg.c **** 	CYCONFIGCPY((void CYFAR *)(CYREG_PRT12_DR + 0x0000000Bu), (const void CYFAR *)(BS_IOPINS1_7_VAL), 
ARM GAS  C:\Users\Nathan\AppData\Local\Temp\ccLOwdHz.s 			page 15


 473:Generated_Source\PSoC5/cyfitter_cfg.c **** 	CYCONFIGCPY((void CYFAR *)(CYREG_PRT1_DM0), (const void CYFAR *)(BS_IOPINS0_1_VAL), 8u);
 474:Generated_Source\PSoC5/cyfitter_cfg.c **** 	CYCONFIGCPY((void CYFAR *)(CYREG_PRT2_DR), (const void CYFAR *)(BS_IOPINS0_2_VAL), 10u);
 475:Generated_Source\PSoC5/cyfitter_cfg.c **** 	CYCONFIGCPY((void CYFAR *)(CYREG_PRT3_DM0), (const void CYFAR *)(BS_IOPINS0_3_VAL), 8u);
 476:Generated_Source\PSoC5/cyfitter_cfg.c **** 	/* Switch Boost to the precision bandgap reference from its internal reference */
 477:Generated_Source\PSoC5/cyfitter_cfg.c **** 	CY_SET_REG8((void CYXDATA *)CYREG_BOOST_CR2, (CY_GET_REG8((void CYXDATA *)CYREG_BOOST_CR2) | 0x08u
 307              		.loc 1 477 0
 308 00ea A2F56162 		sub	r2, r2, #3600
 309              	.LBB91:
 310              	.LBB90:
  86:Generated_Source\PSoC5/cyfitter_cfg.c **** }
 311              		.loc 1 86 0
 312 00ee C2F8141E 		str	r1, [r2, #3604]	@ unaligned
 313              	.LVL24:
 314 00f2 C2F8100E 		str	r0, [r2, #3600]	@ unaligned
 315              	.LBE90:
 316              	.LBE91:
 317              		.loc 1 477 0
 318 00f6 1378     		ldrb	r3, [r2]	@ zero_extendqisi2
 319              	.LBB92:
 320              	.LBB73:
 258:Generated_Source\PSoC5/cyfitter_cfg.c **** 	CY_SET_XTND_REG8((void CYFAR *)(CYREG_CLKDIST_DCFG0_CFG0 + 0x2u), 0x58u);
 321              		.loc 1 258 0
 322 00f8 0025     		movs	r5, #0
 323              	.LBE73:
 324              	.LBE92:
 325              		.loc 1 477 0
 326 00fa 43F00803 		orr	r3, r3, #8
 327 00fe 1370     		strb	r3, [r2]
 478:Generated_Source\PSoC5/cyfitter_cfg.c **** 
 479:Generated_Source\PSoC5/cyfitter_cfg.c **** 	/* Set Flash Cycles based on max possible frequency in case a glitch occurs during ClockSetup(). *
 480:Generated_Source\PSoC5/cyfitter_cfg.c **** 	CY_SET_XTND_REG8((void CYFAR *)(CYREG_CACHE_CC_CTL), (((CYDEV_INSTRUCT_CACHE_ENABLED) != 0) ? 0x61
 328              		.loc 1 480 0
 329 0100 494B     		ldr	r3, .L24+60
 330 0102 6122     		movs	r2, #97
 331 0104 1A70     		strb	r2, [r3]
 332              	.LBB93:
 333              	.LBB74:
 258:Generated_Source\PSoC5/cyfitter_cfg.c **** 	CY_SET_XTND_REG8((void CYFAR *)(CYREG_CLKDIST_DCFG0_CFG0 + 0x2u), 0x58u);
 334              		.loc 1 258 0
 335 0106 A3F5F063 		sub	r3, r3, #1920
 259:Generated_Source\PSoC5/cyfitter_cfg.c **** 	CY_SET_XTND_REG16((void CYFAR *)(CYREG_CLKDIST_DCFG1_CFG0), 0x0137u);
 336              		.loc 1 259 0
 337 010a 5822     		movs	r2, #88
 258:Generated_Source\PSoC5/cyfitter_cfg.c **** 	CY_SET_XTND_REG8((void CYFAR *)(CYREG_CLKDIST_DCFG0_CFG0 + 0x2u), 0x58u);
 338              		.loc 1 258 0
 339 010c 1D80     		strh	r5, [r3]	@ movhi
 259:Generated_Source\PSoC5/cyfitter_cfg.c **** 	CY_SET_XTND_REG16((void CYFAR *)(CYREG_CLKDIST_DCFG1_CFG0), 0x0137u);
 340              		.loc 1 259 0
 341 010e 9A70     		strb	r2, [r3, #2]
 260:Generated_Source\PSoC5/cyfitter_cfg.c **** 	CY_SET_XTND_REG8((void CYFAR *)(CYREG_CLKDIST_DCFG1_CFG0 + 0x2u), 0x18u);
 342              		.loc 1 260 0
 343 0110 40F23712 		movw	r2, #311
 344 0114 9A80     		strh	r2, [r3, #4]	@ movhi
 261:Generated_Source\PSoC5/cyfitter_cfg.c **** 	CY_SET_XTND_REG16((void CYFAR *)(CYREG_CLKDIST_DCFG2_CFG0), 0x0001u);
 345              		.loc 1 261 0
 346 0116 454A     		ldr	r2, .L24+64
 347 0118 1823     		movs	r3, #24
ARM GAS  C:\Users\Nathan\AppData\Local\Temp\ccLOwdHz.s 			page 16


 262:Generated_Source\PSoC5/cyfitter_cfg.c **** 	CY_SET_XTND_REG8((void CYFAR *)(CYREG_CLKDIST_DCFG2_CFG0 + 0x2u), 0x18u);
 348              		.loc 1 262 0
 349 011a 0121     		movs	r1, #1
 261:Generated_Source\PSoC5/cyfitter_cfg.c **** 	CY_SET_XTND_REG16((void CYFAR *)(CYREG_CLKDIST_DCFG2_CFG0), 0x0001u);
 350              		.loc 1 261 0
 351 011c 1370     		strb	r3, [r2]
 262:Generated_Source\PSoC5/cyfitter_cfg.c **** 	CY_SET_XTND_REG8((void CYFAR *)(CYREG_CLKDIST_DCFG2_CFG0 + 0x2u), 0x18u);
 352              		.loc 1 262 0
 353 011e 5180     		strh	r1, [r2, #2]	@ movhi
 264:Generated_Source\PSoC5/cyfitter_cfg.c **** 	CY_SET_XTND_REG8((void CYFAR *)(CYREG_CLKDIST_DCFG3_CFG0 + 0x2u), 0x18u);
 354              		.loc 1 264 0
 355 0120 1721     		movs	r1, #23
 263:Generated_Source\PSoC5/cyfitter_cfg.c **** 	CY_SET_XTND_REG16((void CYFAR *)(CYREG_CLKDIST_DCFG3_CFG0), 0x0017u);
 356              		.loc 1 263 0
 357 0122 1371     		strb	r3, [r2, #4]
 264:Generated_Source\PSoC5/cyfitter_cfg.c **** 	CY_SET_XTND_REG8((void CYFAR *)(CYREG_CLKDIST_DCFG3_CFG0 + 0x2u), 0x18u);
 358              		.loc 1 264 0
 359 0124 D180     		strh	r1, [r2, #6]	@ movhi
 266:Generated_Source\PSoC5/cyfitter_cfg.c **** 	CY_SET_XTND_REG8((void CYFAR *)(CYREG_CLKDIST_DCFG4_CFG0 + 0x2u), 0x18u);
 360              		.loc 1 266 0
 361 0126 4FF49C71 		mov	r1, #312
 265:Generated_Source\PSoC5/cyfitter_cfg.c **** 	CY_SET_XTND_REG16((void CYFAR *)(CYREG_CLKDIST_DCFG4_CFG0), 0x0138u);
 362              		.loc 1 265 0
 363 012a 1372     		strb	r3, [r2, #8]
 266:Generated_Source\PSoC5/cyfitter_cfg.c **** 	CY_SET_XTND_REG8((void CYFAR *)(CYREG_CLKDIST_DCFG4_CFG0 + 0x2u), 0x18u);
 364              		.loc 1 266 0
 365 012c 5181     		strh	r1, [r2, #10]	@ movhi
 268:Generated_Source\PSoC5/cyfitter_cfg.c **** 	CY_SET_XTND_REG8((void CYFAR *)(CYREG_CLKDIST_DCFG5_CFG0 + 0x2u), 0x18u);
 366              		.loc 1 268 0
 367 012e 45F6BF51 		movw	r1, #23999
 267:Generated_Source\PSoC5/cyfitter_cfg.c **** 	CY_SET_XTND_REG16((void CYFAR *)(CYREG_CLKDIST_DCFG5_CFG0), 0x5DBFu);
 368              		.loc 1 267 0
 369 0132 1373     		strb	r3, [r2, #12]
 268:Generated_Source\PSoC5/cyfitter_cfg.c **** 	CY_SET_XTND_REG8((void CYFAR *)(CYREG_CLKDIST_DCFG5_CFG0 + 0x2u), 0x18u);
 370              		.loc 1 268 0
 371 0134 D181     		strh	r1, [r2, #14]	@ movhi
 269:Generated_Source\PSoC5/cyfitter_cfg.c **** 
 372              		.loc 1 269 0
 373 0136 1374     		strb	r3, [r2, #16]
 272:Generated_Source\PSoC5/cyfitter_cfg.c **** 	CY_SET_XTND_REG8((void CYFAR *)(CYREG_CLKDIST_CR), 0x08u);
 374              		.loc 1 272 0
 375 0138 3D4B     		ldr	r3, .L24+68
 376 013a 0222     		movs	r2, #2
 377 013c 1A70     		strb	r2, [r3]
 276:Generated_Source\PSoC5/cyfitter_cfg.c **** 	CY_SET_XTND_REG8((void CYFAR *)(CYREG_IMO_TR1), (CY_GET_XTND_REG8((void CYFAR *)CYREG_FLSHID_CUST_
 378              		.loc 1 276 0
 379 013e 0321     		movs	r1, #3
 273:Generated_Source\PSoC5/cyfitter_cfg.c **** 
 380              		.loc 1 273 0
 381 0140 0822     		movs	r2, #8
 382 0142 4FF04023 		mov	r3, #1073758208
 383 0146 1A70     		strb	r2, [r3]
 276:Generated_Source\PSoC5/cyfitter_cfg.c **** 	CY_SET_XTND_REG8((void CYFAR *)(CYREG_IMO_TR1), (CY_GET_XTND_REG8((void CYFAR *)CYREG_FLSHID_CUST_
 384              		.loc 1 276 0
 385 0148 83F80012 		strb	r1, [r3, #512]
 277:Generated_Source\PSoC5/cyfitter_cfg.c **** 
 386              		.loc 1 277 0
ARM GAS  C:\Users\Nathan\AppData\Local\Temp\ccLOwdHz.s 			page 17


 387 014c 394B     		ldr	r3, .L24+72
 388 014e 3A49     		ldr	r1, .L24+76
 389 0150 1B78     		ldrb	r3, [r3]	@ zero_extendqisi2
 390 0152 DBB2     		uxtb	r3, r3
 391 0154 0B70     		strb	r3, [r1]
 280:Generated_Source\PSoC5/cyfitter_cfg.c **** 	CY_SET_XTND_REG16((void CYFAR *)(CYREG_FASTCLK_PLL_CFG0), 0x1251u);
 392              		.loc 1 280 0
 393 0156 394B     		ldr	r3, .L24+80
 394 0158 1A80     		strh	r2, [r3]	@ movhi
 281:Generated_Source\PSoC5/cyfitter_cfg.c **** 	/* Wait up to 250us for the PLL to lock */
 395              		.loc 1 281 0
 396 015a 41F25122 		movw	r2, #4689
 397 015e 23F8022C 		strh	r2, [r3, #-2]	@ movhi
 398              	.LVL25:
 399              	.L14:
 286:Generated_Source\PSoC5/cyfitter_cfg.c **** 		CyDelayCycles(10u * 48u); /* Delay 10us based on 48MHz clock */
 400              		.loc 1 286 0
 401 0162 3B78     		ldrb	r3, [r7]	@ zero_extendqisi2
 287:Generated_Source\PSoC5/cyfitter_cfg.c **** 	}
 402              		.loc 1 287 0
 403 0164 4FF4F070 		mov	r0, #480
 286:Generated_Source\PSoC5/cyfitter_cfg.c **** 		CyDelayCycles(10u * 48u); /* Delay 10us based on 48MHz clock */
 404              		.loc 1 286 0
 405 0168 03F00103 		and	r3, r3, #1
 406 016c 43EA4505 		orr	r5, r3, r5, lsl #1
 407              	.LVL26:
 287:Generated_Source\PSoC5/cyfitter_cfg.c **** 	}
 408              		.loc 1 287 0
 409 0170 FFF7FEFF 		bl	CyDelayCycles
 410              	.LVL27:
 284:Generated_Source\PSoC5/cyfitter_cfg.c **** 	{ 
 411              		.loc 1 284 0
 412 0174 013E     		subs	r6, r6, #1
 413              	.LVL28:
 286:Generated_Source\PSoC5/cyfitter_cfg.c **** 		CyDelayCycles(10u * 48u); /* Delay 10us based on 48MHz clock */
 414              		.loc 1 286 0
 415 0176 05F00305 		and	r5, r5, #3
 416              	.LVL29:
 284:Generated_Source\PSoC5/cyfitter_cfg.c **** 	{ 
 417              		.loc 1 284 0
 418 017a 36D0     		beq	.L13
 419              	.LVL30:
 420 017c 032D     		cmp	r5, #3
 421 017e F0D1     		bne	.L14
 296:Generated_Source\PSoC5/cyfitter_cfg.c **** 	CY_SET_XTND_REG8((void CYFAR *)(CYREG_CLKDIST_MSTR0), 0x07u);
 422              		.loc 1 296 0
 423 0180 2F4B     		ldr	r3, .L24+84
 424 0182 4FF48072 		mov	r2, #256
 425 0186 1A80     		strh	r2, [r3]	@ movhi
 298:Generated_Source\PSoC5/cyfitter_cfg.c **** 	CY_SET_XTND_REG8((void CYFAR *)(CYREG_CLKDIST_BCFG2), 0x48u);
 426              		.loc 1 298 0
 427 0188 2E49     		ldr	r1, .L24+88
 297:Generated_Source\PSoC5/cyfitter_cfg.c **** 	CY_SET_XTND_REG8((void CYFAR *)(CYREG_CLKDIST_BCFG0), 0x00u);
 428              		.loc 1 297 0
 429 018a 0722     		movs	r2, #7
 430 018c 1A70     		strb	r2, [r3]
 299:Generated_Source\PSoC5/cyfitter_cfg.c **** 	CY_SET_XTND_REG8((void CYFAR *)(CYREG_CLKDIST_MSTR0), 0x00u);
ARM GAS  C:\Users\Nathan\AppData\Local\Temp\ccLOwdHz.s 			page 18


 431              		.loc 1 299 0
 432 018e 4820     		movs	r0, #72
 298:Generated_Source\PSoC5/cyfitter_cfg.c **** 	CY_SET_XTND_REG8((void CYFAR *)(CYREG_CLKDIST_BCFG2), 0x48u);
 433              		.loc 1 298 0
 434 0190 0022     		movs	r2, #0
 435 0192 0A70     		strb	r2, [r1]
 299:Generated_Source\PSoC5/cyfitter_cfg.c **** 	CY_SET_XTND_REG8((void CYFAR *)(CYREG_CLKDIST_MSTR0), 0x00u);
 436              		.loc 1 299 0
 437 0194 8870     		strb	r0, [r1, #2]
 300:Generated_Source\PSoC5/cyfitter_cfg.c **** 	CY_SET_XTND_REG8((void CYFAR *)(CYREG_CLKDIST_LD), 0x02u);
 438              		.loc 1 300 0
 439 0196 1A70     		strb	r2, [r3]
 301:Generated_Source\PSoC5/cyfitter_cfg.c **** 
 440              		.loc 1 301 0
 441 0198 0222     		movs	r2, #2
 442 019a 03F8032C 		strb	r2, [r3, #-3]
 303:Generated_Source\PSoC5/cyfitter_cfg.c **** }
 443              		.loc 1 303 0
 444 019e 91F89C33 		ldrb	r3, [r1, #924]	@ zero_extendqisi2
 445              	.LBE74:
 446              	.LBE93:
 447              	.LBB94:
 448              	.LBB95:
  86:Generated_Source\PSoC5/cyfitter_cfg.c **** }
 449              		.loc 1 86 0
 450 01a2 294D     		ldr	r5, .L24+92
 451              	.LVL31:
 452              	.LBE95:
 453              	.LBE94:
 454              	.LBB97:
 455              	.LBB75:
 303:Generated_Source\PSoC5/cyfitter_cfg.c **** }
 456              		.loc 1 303 0
 457 01a4 43F03F03 		orr	r3, r3, #63
 458 01a8 81F89C33 		strb	r3, [r1, #924]
 459              	.LVL32:
 460              	.LBE75:
 461              	.LBE97:
 481:Generated_Source\PSoC5/cyfitter_cfg.c **** 	/* Setup clocks based on selections from Clock DWR */
 482:Generated_Source\PSoC5/cyfitter_cfg.c **** 	ClockSetup();
 483:Generated_Source\PSoC5/cyfitter_cfg.c **** 	/* Set Flash Cycles based on newly configured 24.00MHz Bus Clock. */
 484:Generated_Source\PSoC5/cyfitter_cfg.c **** 	CY_SET_XTND_REG8((void CYFAR *)(CYREG_CACHE_CC_CTL), (((CYDEV_INSTRUCT_CACHE_ENABLED) != 0) ? 0x81
 462              		.loc 1 484 0
 463 01ac 1E4B     		ldr	r3, .L24+60
 464 01ae 8121     		movs	r1, #129
 465 01b0 1970     		strb	r1, [r3]
 485:Generated_Source\PSoC5/cyfitter_cfg.c **** 	CY_SET_XTND_REG8((void CYFAR *)(CYREG_PANTHER_WAITPIPE), 0x01u);
 466              		.loc 1 485 0
 467 01b2 03F5F723 		add	r3, r3, #505856
 468 01b6 0121     		movs	r1, #1
 469 01b8 0433     		adds	r3, r3, #4
 470 01ba 1970     		strb	r1, [r3]
 471              	.LBB98:
 472              	.LBB99:
 328:Generated_Source\PSoC5/cyfitter_cfg.c **** 	CY_SET_XTND_REG8((void CYFAR *)(CYREG_BG_DFT0), (bg_xover_inl_trim & 0x07u));
 473              		.loc 1 328 0
 474 01bc 234B     		ldr	r3, .L24+96
ARM GAS  C:\Users\Nathan\AppData\Local\Temp\ccLOwdHz.s 			page 19


 329:Generated_Source\PSoC5/cyfitter_cfg.c **** 	CY_SET_XTND_REG8((void CYFAR *)(CYREG_BG_DFT1), ((bg_xover_inl_trim >> 4) & 0x0Fu));
 475              		.loc 1 329 0
 476 01be 2449     		ldr	r1, .L24+100
 328:Generated_Source\PSoC5/cyfitter_cfg.c **** 	CY_SET_XTND_REG8((void CYFAR *)(CYREG_BG_DFT0), (bg_xover_inl_trim & 0x07u));
 477              		.loc 1 328 0
 478 01c0 1B78     		ldrb	r3, [r3]	@ zero_extendqisi2
 479 01c2 DBB2     		uxtb	r3, r3
 480              	.LVL33:
 329:Generated_Source\PSoC5/cyfitter_cfg.c **** 	CY_SET_XTND_REG8((void CYFAR *)(CYREG_BG_DFT1), ((bg_xover_inl_trim >> 4) & 0x0Fu));
 481              		.loc 1 329 0
 482 01c4 03F00700 		and	r0, r3, #7
 330:Generated_Source\PSoC5/cyfitter_cfg.c **** 	CY_SET_XTND_REG8((void CYFAR *)CYREG_PRT12_AG, 0x20u);
 483              		.loc 1 330 0
 484 01c8 1B09     		lsrs	r3, r3, #4
 485              	.LVL34:
 329:Generated_Source\PSoC5/cyfitter_cfg.c **** 	CY_SET_XTND_REG8((void CYFAR *)(CYREG_BG_DFT1), ((bg_xover_inl_trim >> 4) & 0x0Fu));
 486              		.loc 1 329 0
 487 01ca 0870     		strb	r0, [r1]
 330:Generated_Source\PSoC5/cyfitter_cfg.c **** 	CY_SET_XTND_REG8((void CYFAR *)CYREG_PRT12_AG, 0x20u);
 488              		.loc 1 330 0
 489 01cc 4B70     		strb	r3, [r1, #1]
 331:Generated_Source\PSoC5/cyfitter_cfg.c **** 	CY_SET_XTND_REG8((void CYFAR *)CYREG_DAC0_SW0, 0x02u);
 490              		.loc 1 331 0
 491 01ce 214B     		ldr	r3, .L24+104
 492 01d0 2021     		movs	r1, #32
 493 01d2 1970     		strb	r1, [r3]
 332:Generated_Source\PSoC5/cyfitter_cfg.c **** 	CY_SET_XTND_REG8((void CYFAR *)CYREG_PUMP_CR0, 0x44u);
 494              		.loc 1 332 0
 495 01d4 83F8B328 		strb	r2, [r3, #2227]
 333:Generated_Source\PSoC5/cyfitter_cfg.c **** }
 496              		.loc 1 333 0
 497 01d8 4422     		movs	r2, #68
 498 01da 03F2A963 		addw	r3, r3, #1705
 499 01de 1A70     		strb	r2, [r3]
 500              	.LVL35:
 501              	.LBE99:
 502              	.LBE98:
 503              	.LBB100:
 504              	.LBB96:
  86:Generated_Source\PSoC5/cyfitter_cfg.c **** }
 505              		.loc 1 86 0
 506 01e0 94E80F00 		ldmia	r4, {r0, r1, r2, r3}
 507 01e4 07C5     		stmia	r5!, {r0, r1, r2}
 508 01e6 2B80     		strh	r3, [r5]	@ movhi
 509              	.LVL36:
 510 01e8 F8BD     		pop	{r3, r4, r5, r6, r7, pc}
 511              	.LVL37:
 512              	.L13:
 513 01ea FEE7     		b	.L13
 514              	.L25:
 515              		.align	2
 516              	.L24:
 517 01ec E8460040 		.word	1073759976
 518 01f0 00000000 		.word	.LANCHOR0
 519 01f4 FCFFFF47 		.word	1207959548
 520 01f8 9C000048 		.word	1207959708
 521 01fc 03500140 		.word	1073827843
ARM GAS  C:\Users\Nathan\AppData\Local\Temp\ccLOwdHz.s 			page 20


 522 0200 A0430040 		.word	1073759136
 523 0204 20510040 		.word	1073762592
 524 0208 25420040 		.word	1073758757
 525 020c A8100048 		.word	1207963816
 526 0210 00510040 		.word	1073762560
 527 0214 B4100048 		.word	1207963828
 528 0218 C0100048 		.word	1207963840
 529 021c 12510040 		.word	1073762578
 530 0220 C8100048 		.word	1207963848
 531 0224 32510040 		.word	1073762610
 532 0228 00480040 		.word	1073760256
 533 022c 86400040 		.word	1073758342
 534 0230 00430040 		.word	1073758976
 535 0234 08010049 		.word	1224737032
 536 0238 A1460040 		.word	1073759905
 537 023c 22420040 		.word	1073758754
 538 0240 04400040 		.word	1073758212
 539 0244 06400040 		.word	1073758214
 540 0248 B0430040 		.word	1073759152
 541 024c CF010049 		.word	1224737231
 542 0250 6E580040 		.word	1073764462
 543 0254 CD510040 		.word	1073762765
 544              	.LBE96:
 545              	.LBE100:
 546              		.cfi_endproc
 547              	.LFE8:
 548              		.size	cyfitter_cfg, .-cyfitter_cfg
 549              		.section	.rodata
 550              		.set	.LANCHOR0,. + 0
 551              		.type	cfg_memset_list.5008, %object
 552              		.size	cfg_memset_list.5008, 72
 553              	cfg_memset_list.5008:
 554 0000 C8490040 		.4byte	1073760712
 555 0004 1900     		.2byte	25
 556 0006 004F0040 		.4byte	1073762048
 557 000a 1800     		.2byte	24
 558 000c 40510040 		.4byte	1073762624
 559 0010 3000     		.2byte	48
 560 0012 F0510040 		.4byte	1073762800
 561 0016 1000     		.2byte	16
 562 0018 00000140 		.4byte	1073807360
 563 001c 0004     		.2byte	1024
 564 001e 80040140 		.4byte	1073808512
 565 0022 0006     		.2byte	1536
 566 0024 000B0140 		.4byte	1073810176
 567 0028 0005     		.2byte	1280
 568 002a 80140140 		.4byte	1073812608
 569 002e 0002     		.2byte	512
 570 0030 00170140 		.4byte	1073813248
 571 0034 0005     		.2byte	1280
 572 0036 00400140 		.4byte	1073823744
 573 003a 000A     		.2byte	2560
 574 003c 004C0140 		.4byte	1073826816
 575 0040 0002     		.2byte	512
 576 0042 10500140 		.4byte	1073827856
 577 0046 1000     		.2byte	16
 578              		.type	cfg_memcpy_list.5009, %object
ARM GAS  C:\Users\Nathan\AppData\Local\Temp\ccLOwdHz.s 			page 21


 579              		.size	cfg_memcpy_list.5009, 60
 580              	cfg_memcpy_list.5009:
 581 0048 60520040 		.4byte	1073762912
 582 004c 900E0048 		.4byte	1207963280
 583 0050 0600     		.2byte	6
 584 0052 00040140 		.4byte	1073808384
 585 0056 980E0048 		.4byte	1207963288
 586 005a 8000     		.2byte	128
 587 005c 800A0140 		.4byte	1073810048
 588 0060 180F0048 		.4byte	1207963416
 589 0064 8000     		.2byte	128
 590 0066 00140140 		.4byte	1073812480
 591 006a 980F0048 		.4byte	1207963544
 592 006e 8000     		.2byte	128
 593 0070 80160140 		.4byte	1073813120
 594 0074 18100048 		.4byte	1207963672
 595 0078 8000     		.2byte	128
 596 007a 00500140 		.4byte	1073827840
 597 007e 98100048 		.4byte	1207963800
 598 0082 1000     		.2byte	16
 599              		.text
 600              	.Letext0:
 601              		.file 2 "c:\\program files (x86)\\cypress\\psoc creator\\4.1\\psoc creator\\import\\gnu\\arm\\5.4.
 602              		.file 3 "Generated_Source\\PSoC5\\cytypes.h"
 603              		.file 4 "Generated_Source\\PSoC5\\CyLib.h"