ARM GAS  C:\Users\Nathan\AppData\Local\Temp\cchwyhCu.s 			page 1


   1              		.syntax unified
   2              		.cpu cortex-m3
   3              		.fpu softvfp
   4              		.eabi_attribute 20, 1
   5              		.eabi_attribute 21, 1
   6              		.eabi_attribute 23, 3
   7              		.eabi_attribute 24, 1
   8              		.eabi_attribute 25, 1
   9              		.eabi_attribute 26, 1
  10              		.eabi_attribute 30, 4
  11              		.eabi_attribute 34, 1
  12              		.eabi_attribute 18, 4
  13              		.thumb
  14              		.syntax unified
  15              		.file	"emFile_1_MMC_HW_SPI.c"
  16              		.text
  17              	.Ltext0:
  18              		.cfi_sections	.debug_frame
  19              		.section	.text.emFile_1_ReadWriteSPI,"ax",%progbits
  20              		.align	1
  21              		.thumb
  22              		.thumb_func
  23              		.type	emFile_1_ReadWriteSPI, %function
  24              	emFile_1_ReadWriteSPI:
  25              	.LFB64:
  26              		.file 1 "Generated_Source\\PSoC5\\emFile_1_MMC_HW_SPI.c"
   1:Generated_Source\PSoC5/emFile_1_MMC_HW_SPI.c **** /*******************************************************************************
   2:Generated_Source\PSoC5/emFile_1_MMC_HW_SPI.c **** * File Name: emFile_1_MMC_HW_SPI.c
   3:Generated_Source\PSoC5/emFile_1_MMC_HW_SPI.c **** * Version 1.20
   4:Generated_Source\PSoC5/emFile_1_MMC_HW_SPI.c **** *
   5:Generated_Source\PSoC5/emFile_1_MMC_HW_SPI.c **** * Description:
   6:Generated_Source\PSoC5/emFile_1_MMC_HW_SPI.c **** *  Contains a set of File System APIs that implements SPI mode driver operation.
   7:Generated_Source\PSoC5/emFile_1_MMC_HW_SPI.c **** *
   8:Generated_Source\PSoC5/emFile_1_MMC_HW_SPI.c **** * Note:
   9:Generated_Source\PSoC5/emFile_1_MMC_HW_SPI.c **** *
  10:Generated_Source\PSoC5/emFile_1_MMC_HW_SPI.c **** ********************************************************************************
  11:Generated_Source\PSoC5/emFile_1_MMC_HW_SPI.c **** * Copyright 2011-2012, Cypress Semiconductor Corporation.  All rights reserved.
  12:Generated_Source\PSoC5/emFile_1_MMC_HW_SPI.c **** * You may use this file only in accordance with the license, terms, conditions,
  13:Generated_Source\PSoC5/emFile_1_MMC_HW_SPI.c **** * disclaimers, and limitations in the end user license agreement accompanying
  14:Generated_Source\PSoC5/emFile_1_MMC_HW_SPI.c **** * the software package with which this file was provided.
  15:Generated_Source\PSoC5/emFile_1_MMC_HW_SPI.c **** *******************************************************************************/
  16:Generated_Source\PSoC5/emFile_1_MMC_HW_SPI.c **** 
  17:Generated_Source\PSoC5/emFile_1_MMC_HW_SPI.c **** #include "FS.h"
  18:Generated_Source\PSoC5/emFile_1_MMC_HW_SPI.c **** #include "emFile_1.h"
  19:Generated_Source\PSoC5/emFile_1_MMC_HW_SPI.c **** #include "MMC_X_HW.h"
  20:Generated_Source\PSoC5/emFile_1_MMC_HW_SPI.c **** #include "project.h"
  21:Generated_Source\PSoC5/emFile_1_MMC_HW_SPI.c **** 
  22:Generated_Source\PSoC5/emFile_1_MMC_HW_SPI.c **** 
  23:Generated_Source\PSoC5/emFile_1_MMC_HW_SPI.c **** /*********************************************************************
  24:Generated_Source\PSoC5/emFile_1_MMC_HW_SPI.c **** *             Macros
  25:Generated_Source\PSoC5/emFile_1_MMC_HW_SPI.c **** *********************************************************************/
  26:Generated_Source\PSoC5/emFile_1_MMC_HW_SPI.c **** /* in mV, example means 3.3V */
  27:Generated_Source\PSoC5/emFile_1_MMC_HW_SPI.c **** #define emFile_1_MMC_DEFAULT_SUPPLY_VOLTAGE    (3300u)
  28:Generated_Source\PSoC5/emFile_1_MMC_HW_SPI.c **** 
  29:Generated_Source\PSoC5/emFile_1_MMC_HW_SPI.c **** /* Max. startup frequency (KHz) */
  30:Generated_Source\PSoC5/emFile_1_MMC_HW_SPI.c **** #define emFile_1_STARTUP_FREQ                   (400u)
  31:Generated_Source\PSoC5/emFile_1_MMC_HW_SPI.c **** 
ARM GAS  C:\Users\Nathan\AppData\Local\Temp\cchwyhCu.s 			page 2


  32:Generated_Source\PSoC5/emFile_1_MMC_HW_SPI.c **** 
  33:Generated_Source\PSoC5/emFile_1_MMC_HW_SPI.c **** /*********************************************************************
  34:Generated_Source\PSoC5/emFile_1_MMC_HW_SPI.c **** *       Static data
  35:Generated_Source\PSoC5/emFile_1_MMC_HW_SPI.c **** *********************************************************************/
  36:Generated_Source\PSoC5/emFile_1_MMC_HW_SPI.c **** 
  37:Generated_Source\PSoC5/emFile_1_MMC_HW_SPI.c **** static char emFile_1_isInited0;
  38:Generated_Source\PSoC5/emFile_1_MMC_HW_SPI.c **** 
  39:Generated_Source\PSoC5/emFile_1_MMC_HW_SPI.c **** #if (emFile_1_NUMBER_SD_CARDS >= 2u)
  40:Generated_Source\PSoC5/emFile_1_MMC_HW_SPI.c **** 
  41:Generated_Source\PSoC5/emFile_1_MMC_HW_SPI.c ****     static char emFile_1_isInited1;
  42:Generated_Source\PSoC5/emFile_1_MMC_HW_SPI.c **** 
  43:Generated_Source\PSoC5/emFile_1_MMC_HW_SPI.c **** #endif /* (emFile_1_NUMBER_SD_CARDS >= 2u) */
  44:Generated_Source\PSoC5/emFile_1_MMC_HW_SPI.c **** 
  45:Generated_Source\PSoC5/emFile_1_MMC_HW_SPI.c **** #if (emFile_1_NUMBER_SD_CARDS >= 3u)
  46:Generated_Source\PSoC5/emFile_1_MMC_HW_SPI.c **** 
  47:Generated_Source\PSoC5/emFile_1_MMC_HW_SPI.c ****     static char emFile_1_isInited2;
  48:Generated_Source\PSoC5/emFile_1_MMC_HW_SPI.c **** 
  49:Generated_Source\PSoC5/emFile_1_MMC_HW_SPI.c **** #endif /* (emFile_1_NUMBER_SD_CARDS >= 3u) */
  50:Generated_Source\PSoC5/emFile_1_MMC_HW_SPI.c **** 
  51:Generated_Source\PSoC5/emFile_1_MMC_HW_SPI.c **** #if (emFile_1_NUMBER_SD_CARDS == 4u)
  52:Generated_Source\PSoC5/emFile_1_MMC_HW_SPI.c **** 
  53:Generated_Source\PSoC5/emFile_1_MMC_HW_SPI.c ****     static char emFile_1_isInited3;
  54:Generated_Source\PSoC5/emFile_1_MMC_HW_SPI.c **** 
  55:Generated_Source\PSoC5/emFile_1_MMC_HW_SPI.c **** #endif /* (emFile_1_NUMBER_SD_CARDS == 4u) */
  56:Generated_Source\PSoC5/emFile_1_MMC_HW_SPI.c **** 
  57:Generated_Source\PSoC5/emFile_1_MMC_HW_SPI.c **** 
  58:Generated_Source\PSoC5/emFile_1_MMC_HW_SPI.c **** /*******************************************************************************
  59:Generated_Source\PSoC5/emFile_1_MMC_HW_SPI.c **** * Function Name: emFile_1_Init
  60:Generated_Source\PSoC5/emFile_1_MMC_HW_SPI.c **** ********************************************************************************
  61:Generated_Source\PSoC5/emFile_1_MMC_HW_SPI.c **** *
  62:Generated_Source\PSoC5/emFile_1_MMC_HW_SPI.c **** * Summary:
  63:Generated_Source\PSoC5/emFile_1_MMC_HW_SPI.c **** *  Initialize SPI Masters.
  64:Generated_Source\PSoC5/emFile_1_MMC_HW_SPI.c **** *
  65:Generated_Source\PSoC5/emFile_1_MMC_HW_SPI.c **** * Parameters:
  66:Generated_Source\PSoC5/emFile_1_MMC_HW_SPI.c **** *  Unit - Unit (SPIM) number.
  67:Generated_Source\PSoC5/emFile_1_MMC_HW_SPI.c **** *
  68:Generated_Source\PSoC5/emFile_1_MMC_HW_SPI.c **** * Return:
  69:Generated_Source\PSoC5/emFile_1_MMC_HW_SPI.c **** *  None
  70:Generated_Source\PSoC5/emFile_1_MMC_HW_SPI.c **** *
  71:Generated_Source\PSoC5/emFile_1_MMC_HW_SPI.c **** * Reentrant:
  72:Generated_Source\PSoC5/emFile_1_MMC_HW_SPI.c **** *  No
  73:Generated_Source\PSoC5/emFile_1_MMC_HW_SPI.c **** *
  74:Generated_Source\PSoC5/emFile_1_MMC_HW_SPI.c **** *******************************************************************************/
  75:Generated_Source\PSoC5/emFile_1_MMC_HW_SPI.c **** static void emFile_1_Init(U8 Unit) CYREENTRANT
  76:Generated_Source\PSoC5/emFile_1_MMC_HW_SPI.c **** {
  77:Generated_Source\PSoC5/emFile_1_MMC_HW_SPI.c ****     switch(Unit)
  78:Generated_Source\PSoC5/emFile_1_MMC_HW_SPI.c ****     {
  79:Generated_Source\PSoC5/emFile_1_MMC_HW_SPI.c ****     case 0u:
  80:Generated_Source\PSoC5/emFile_1_MMC_HW_SPI.c **** 
  81:Generated_Source\PSoC5/emFile_1_MMC_HW_SPI.c ****         if (emFile_1_isInited0 == 0u)
  82:Generated_Source\PSoC5/emFile_1_MMC_HW_SPI.c ****         {
  83:Generated_Source\PSoC5/emFile_1_MMC_HW_SPI.c ****             /* Indicate that SPI 0 was initialized */
  84:Generated_Source\PSoC5/emFile_1_MMC_HW_SPI.c ****             emFile_1_isInited0 = 1u;
  85:Generated_Source\PSoC5/emFile_1_MMC_HW_SPI.c **** 
  86:Generated_Source\PSoC5/emFile_1_MMC_HW_SPI.c ****             /* Initialize SPI */
  87:Generated_Source\PSoC5/emFile_1_MMC_HW_SPI.c **** 
  88:Generated_Source\PSoC5/emFile_1_MMC_HW_SPI.c ****             /* Stop the clock to set a required divider */
ARM GAS  C:\Users\Nathan\AppData\Local\Temp\cchwyhCu.s 			page 3


  89:Generated_Source\PSoC5/emFile_1_MMC_HW_SPI.c ****             emFile_1_Clock_1_Stop();
  90:Generated_Source\PSoC5/emFile_1_MMC_HW_SPI.c **** 
  91:Generated_Source\PSoC5/emFile_1_MMC_HW_SPI.c ****             /* Set the inital clock frequency to 400 KHz */
  92:Generated_Source\PSoC5/emFile_1_MMC_HW_SPI.c ****             emFile_1_Clock_1_SetDividerValue(BCLK__BUS_CLK__KHZ/emFile_1_STARTUP_FREQ);
  93:Generated_Source\PSoC5/emFile_1_MMC_HW_SPI.c **** 
  94:Generated_Source\PSoC5/emFile_1_MMC_HW_SPI.c ****             /* Start the clock */
  95:Generated_Source\PSoC5/emFile_1_MMC_HW_SPI.c ****             emFile_1_Clock_1_Start();
  96:Generated_Source\PSoC5/emFile_1_MMC_HW_SPI.c **** 
  97:Generated_Source\PSoC5/emFile_1_MMC_HW_SPI.c ****             /* Start SPI 0 */
  98:Generated_Source\PSoC5/emFile_1_MMC_HW_SPI.c ****             emFile_1_SPI0_Start();
  99:Generated_Source\PSoC5/emFile_1_MMC_HW_SPI.c ****         }
 100:Generated_Source\PSoC5/emFile_1_MMC_HW_SPI.c **** 
 101:Generated_Source\PSoC5/emFile_1_MMC_HW_SPI.c ****         break;
 102:Generated_Source\PSoC5/emFile_1_MMC_HW_SPI.c **** 
 103:Generated_Source\PSoC5/emFile_1_MMC_HW_SPI.c ****         #if (emFile_1_NUMBER_SD_CARDS >= 2u)
 104:Generated_Source\PSoC5/emFile_1_MMC_HW_SPI.c **** 
 105:Generated_Source\PSoC5/emFile_1_MMC_HW_SPI.c ****             case 1u:
 106:Generated_Source\PSoC5/emFile_1_MMC_HW_SPI.c **** 
 107:Generated_Source\PSoC5/emFile_1_MMC_HW_SPI.c ****                 if (emFile_1_isInited1 == 0u)
 108:Generated_Source\PSoC5/emFile_1_MMC_HW_SPI.c ****                 {
 109:Generated_Source\PSoC5/emFile_1_MMC_HW_SPI.c ****                     /* Indicate that SPI 1 was initialized */
 110:Generated_Source\PSoC5/emFile_1_MMC_HW_SPI.c ****                     emFile_1_isInited1 = 1u;
 111:Generated_Source\PSoC5/emFile_1_MMC_HW_SPI.c **** 
 112:Generated_Source\PSoC5/emFile_1_MMC_HW_SPI.c ****                     /* Stop the clock to set a required divider */
 113:Generated_Source\PSoC5/emFile_1_MMC_HW_SPI.c ****                     emFile_1_Clock_2_Stop();
 114:Generated_Source\PSoC5/emFile_1_MMC_HW_SPI.c **** 
 115:Generated_Source\PSoC5/emFile_1_MMC_HW_SPI.c ****                     /* Set the inital clock frequency to 400 KHz */
 116:Generated_Source\PSoC5/emFile_1_MMC_HW_SPI.c ****                     emFile_1_Clock_2_SetDividerValue(BCLK__BUS_CLK__KHZ/emFile_1_STARTUP_FREQ);
 117:Generated_Source\PSoC5/emFile_1_MMC_HW_SPI.c **** 
 118:Generated_Source\PSoC5/emFile_1_MMC_HW_SPI.c ****                     /* Start the clock */
 119:Generated_Source\PSoC5/emFile_1_MMC_HW_SPI.c ****                     emFile_1_Clock_2_Start();
 120:Generated_Source\PSoC5/emFile_1_MMC_HW_SPI.c **** 
 121:Generated_Source\PSoC5/emFile_1_MMC_HW_SPI.c ****                     /* Start SPI 1 */
 122:Generated_Source\PSoC5/emFile_1_MMC_HW_SPI.c ****                     emFile_1_SPI1_Start();
 123:Generated_Source\PSoC5/emFile_1_MMC_HW_SPI.c ****                 }
 124:Generated_Source\PSoC5/emFile_1_MMC_HW_SPI.c **** 
 125:Generated_Source\PSoC5/emFile_1_MMC_HW_SPI.c ****                 break;
 126:Generated_Source\PSoC5/emFile_1_MMC_HW_SPI.c **** 
 127:Generated_Source\PSoC5/emFile_1_MMC_HW_SPI.c ****         #endif /* (emFile_1_NUMBER_SD_CARDS >= 2u) */
 128:Generated_Source\PSoC5/emFile_1_MMC_HW_SPI.c **** 
 129:Generated_Source\PSoC5/emFile_1_MMC_HW_SPI.c ****         #if (emFile_1_NUMBER_SD_CARDS >= 3u)
 130:Generated_Source\PSoC5/emFile_1_MMC_HW_SPI.c **** 
 131:Generated_Source\PSoC5/emFile_1_MMC_HW_SPI.c ****             case 2u:
 132:Generated_Source\PSoC5/emFile_1_MMC_HW_SPI.c **** 
 133:Generated_Source\PSoC5/emFile_1_MMC_HW_SPI.c ****                 if (emFile_1_isInited2 == 0u)
 134:Generated_Source\PSoC5/emFile_1_MMC_HW_SPI.c ****                 {
 135:Generated_Source\PSoC5/emFile_1_MMC_HW_SPI.c ****                     /* Indicate that SPI 2 was initialized */
 136:Generated_Source\PSoC5/emFile_1_MMC_HW_SPI.c ****                     emFile_1_isInited2 = 1u;
 137:Generated_Source\PSoC5/emFile_1_MMC_HW_SPI.c **** 
 138:Generated_Source\PSoC5/emFile_1_MMC_HW_SPI.c ****                     /* Stop the clock to set a required divider */
 139:Generated_Source\PSoC5/emFile_1_MMC_HW_SPI.c ****                     emFile_1_Clock_3_Stop();
 140:Generated_Source\PSoC5/emFile_1_MMC_HW_SPI.c **** 
 141:Generated_Source\PSoC5/emFile_1_MMC_HW_SPI.c ****                     /* Set the inital clock frequency to 400 KHz */
 142:Generated_Source\PSoC5/emFile_1_MMC_HW_SPI.c ****                     emFile_1_Clock_3_SetDividerValue(BCLK__BUS_CLK__KHZ/emFile_1_STARTUP_FREQ);
 143:Generated_Source\PSoC5/emFile_1_MMC_HW_SPI.c **** 
 144:Generated_Source\PSoC5/emFile_1_MMC_HW_SPI.c ****                     /* Start the clock */
 145:Generated_Source\PSoC5/emFile_1_MMC_HW_SPI.c ****                     emFile_1_Clock_3_Start();
ARM GAS  C:\Users\Nathan\AppData\Local\Temp\cchwyhCu.s 			page 4


 146:Generated_Source\PSoC5/emFile_1_MMC_HW_SPI.c **** 
 147:Generated_Source\PSoC5/emFile_1_MMC_HW_SPI.c ****                     /* Start SPI 2 */
 148:Generated_Source\PSoC5/emFile_1_MMC_HW_SPI.c ****                     emFile_1_SPI2_Start();
 149:Generated_Source\PSoC5/emFile_1_MMC_HW_SPI.c ****                 }
 150:Generated_Source\PSoC5/emFile_1_MMC_HW_SPI.c **** 
 151:Generated_Source\PSoC5/emFile_1_MMC_HW_SPI.c ****                 break;
 152:Generated_Source\PSoC5/emFile_1_MMC_HW_SPI.c **** 
 153:Generated_Source\PSoC5/emFile_1_MMC_HW_SPI.c ****         #endif /* (emFile_1_NUMBER_SD_CARDS >= 3u) */
 154:Generated_Source\PSoC5/emFile_1_MMC_HW_SPI.c **** 
 155:Generated_Source\PSoC5/emFile_1_MMC_HW_SPI.c ****         #if (emFile_1_NUMBER_SD_CARDS == 4u)
 156:Generated_Source\PSoC5/emFile_1_MMC_HW_SPI.c **** 
 157:Generated_Source\PSoC5/emFile_1_MMC_HW_SPI.c ****             case 3u:
 158:Generated_Source\PSoC5/emFile_1_MMC_HW_SPI.c **** 
 159:Generated_Source\PSoC5/emFile_1_MMC_HW_SPI.c ****                 if (emFile_1_isInited3 == 0u)
 160:Generated_Source\PSoC5/emFile_1_MMC_HW_SPI.c ****                 {
 161:Generated_Source\PSoC5/emFile_1_MMC_HW_SPI.c ****                     /* Indicate that SPI 3 was initialized */
 162:Generated_Source\PSoC5/emFile_1_MMC_HW_SPI.c ****                     emFile_1_isInited3 = 1u;
 163:Generated_Source\PSoC5/emFile_1_MMC_HW_SPI.c **** 
 164:Generated_Source\PSoC5/emFile_1_MMC_HW_SPI.c ****                     /* Stop the clock to set a required divider */
 165:Generated_Source\PSoC5/emFile_1_MMC_HW_SPI.c ****                     emFile_1_Clock_4_Stop();
 166:Generated_Source\PSoC5/emFile_1_MMC_HW_SPI.c **** 
 167:Generated_Source\PSoC5/emFile_1_MMC_HW_SPI.c ****                     /* Set the inital clock frequency to 400 KHz */
 168:Generated_Source\PSoC5/emFile_1_MMC_HW_SPI.c ****                     emFile_1_Clock_4_SetDividerValue(BCLK__BUS_CLK__KHZ/emFile_1_STARTUP_FREQ);
 169:Generated_Source\PSoC5/emFile_1_MMC_HW_SPI.c **** 
 170:Generated_Source\PSoC5/emFile_1_MMC_HW_SPI.c ****                     /* Start the clock */
 171:Generated_Source\PSoC5/emFile_1_MMC_HW_SPI.c ****                     emFile_1_Clock_4_Start();
 172:Generated_Source\PSoC5/emFile_1_MMC_HW_SPI.c **** 
 173:Generated_Source\PSoC5/emFile_1_MMC_HW_SPI.c ****                     /* Start SPI 3 */
 174:Generated_Source\PSoC5/emFile_1_MMC_HW_SPI.c ****                     emFile_1_SPI3_Start();
 175:Generated_Source\PSoC5/emFile_1_MMC_HW_SPI.c ****                 }
 176:Generated_Source\PSoC5/emFile_1_MMC_HW_SPI.c **** 
 177:Generated_Source\PSoC5/emFile_1_MMC_HW_SPI.c ****                 break;
 178:Generated_Source\PSoC5/emFile_1_MMC_HW_SPI.c **** 
 179:Generated_Source\PSoC5/emFile_1_MMC_HW_SPI.c ****         #endif /* (emFile_1_NUMBER_SD_CARDS == 4u) */
 180:Generated_Source\PSoC5/emFile_1_MMC_HW_SPI.c **** 
 181:Generated_Source\PSoC5/emFile_1_MMC_HW_SPI.c ****     default:
 182:Generated_Source\PSoC5/emFile_1_MMC_HW_SPI.c **** 
 183:Generated_Source\PSoC5/emFile_1_MMC_HW_SPI.c ****         if (emFile_1_isInited0 == 0u)
 184:Generated_Source\PSoC5/emFile_1_MMC_HW_SPI.c ****         {
 185:Generated_Source\PSoC5/emFile_1_MMC_HW_SPI.c ****             /* Indicate that SPI 0 was initialized */
 186:Generated_Source\PSoC5/emFile_1_MMC_HW_SPI.c ****             emFile_1_isInited0 = 1u;
 187:Generated_Source\PSoC5/emFile_1_MMC_HW_SPI.c **** 
 188:Generated_Source\PSoC5/emFile_1_MMC_HW_SPI.c ****             /* Stop the clock to set a required divider */
 189:Generated_Source\PSoC5/emFile_1_MMC_HW_SPI.c ****             emFile_1_Clock_1_Stop();
 190:Generated_Source\PSoC5/emFile_1_MMC_HW_SPI.c **** 
 191:Generated_Source\PSoC5/emFile_1_MMC_HW_SPI.c ****             /* Set the inital clock frequency to 400 KHz */
 192:Generated_Source\PSoC5/emFile_1_MMC_HW_SPI.c ****             emFile_1_Clock_1_SetDividerValue(BCLK__BUS_CLK__KHZ/emFile_1_STARTUP_FREQ);
 193:Generated_Source\PSoC5/emFile_1_MMC_HW_SPI.c **** 
 194:Generated_Source\PSoC5/emFile_1_MMC_HW_SPI.c ****             /* Start the clock */
 195:Generated_Source\PSoC5/emFile_1_MMC_HW_SPI.c ****             emFile_1_Clock_1_Start();
 196:Generated_Source\PSoC5/emFile_1_MMC_HW_SPI.c **** 
 197:Generated_Source\PSoC5/emFile_1_MMC_HW_SPI.c ****             /* Start SPI 0 */
 198:Generated_Source\PSoC5/emFile_1_MMC_HW_SPI.c ****             emFile_1_SPI0_Start();
 199:Generated_Source\PSoC5/emFile_1_MMC_HW_SPI.c ****         }
 200:Generated_Source\PSoC5/emFile_1_MMC_HW_SPI.c ****         
 201:Generated_Source\PSoC5/emFile_1_MMC_HW_SPI.c ****         break;
 202:Generated_Source\PSoC5/emFile_1_MMC_HW_SPI.c ****       }
ARM GAS  C:\Users\Nathan\AppData\Local\Temp\cchwyhCu.s 			page 5


 203:Generated_Source\PSoC5/emFile_1_MMC_HW_SPI.c **** }
 204:Generated_Source\PSoC5/emFile_1_MMC_HW_SPI.c **** 
 205:Generated_Source\PSoC5/emFile_1_MMC_HW_SPI.c **** 
 206:Generated_Source\PSoC5/emFile_1_MMC_HW_SPI.c **** /*******************************************************************************
 207:Generated_Source\PSoC5/emFile_1_MMC_HW_SPI.c **** * Function Name: emFile_1_ReadWriteSPI
 208:Generated_Source\PSoC5/emFile_1_MMC_HW_SPI.c **** ********************************************************************************
 209:Generated_Source\PSoC5/emFile_1_MMC_HW_SPI.c **** *
 210:Generated_Source\PSoC5/emFile_1_MMC_HW_SPI.c **** * Summary:
 211:Generated_Source\PSoC5/emFile_1_MMC_HW_SPI.c **** *  Reads and Writes data via SPI.
 212:Generated_Source\PSoC5/emFile_1_MMC_HW_SPI.c **** *
 213:Generated_Source\PSoC5/emFile_1_MMC_HW_SPI.c **** * Parameters:
 214:Generated_Source\PSoC5/emFile_1_MMC_HW_SPI.c **** *  Unit - Unit number;
 215:Generated_Source\PSoC5/emFile_1_MMC_HW_SPI.c **** *  Data - data to be written.
 216:Generated_Source\PSoC5/emFile_1_MMC_HW_SPI.c **** *
 217:Generated_Source\PSoC5/emFile_1_MMC_HW_SPI.c **** * Return:
 218:Generated_Source\PSoC5/emFile_1_MMC_HW_SPI.c **** *  Data received from SD card.
 219:Generated_Source\PSoC5/emFile_1_MMC_HW_SPI.c **** *
 220:Generated_Source\PSoC5/emFile_1_MMC_HW_SPI.c **** * Reentrant:
 221:Generated_Source\PSoC5/emFile_1_MMC_HW_SPI.c **** *  No
 222:Generated_Source\PSoC5/emFile_1_MMC_HW_SPI.c **** *
 223:Generated_Source\PSoC5/emFile_1_MMC_HW_SPI.c **** *******************************************************************************/
 224:Generated_Source\PSoC5/emFile_1_MMC_HW_SPI.c **** static U8 emFile_1_ReadWriteSPI(U8 Unit, U8 Data) CYREENTRANT
 225:Generated_Source\PSoC5/emFile_1_MMC_HW_SPI.c **** {
  27              		.loc 1 225 0
  28              		.cfi_startproc
  29              		@ args = 0, pretend = 0, frame = 0
  30              		@ frame_needed = 0, uses_anonymous_args = 0
  31              	.LVL0:
  32 0000 08B5     		push	{r3, lr}
  33              		.cfi_def_cfa_offset 8
  34              		.cfi_offset 3, -8
  35              		.cfi_offset 14, -4
 226:Generated_Source\PSoC5/emFile_1_MMC_HW_SPI.c ****     U8 spiData;
 227:Generated_Source\PSoC5/emFile_1_MMC_HW_SPI.c **** 
 228:Generated_Source\PSoC5/emFile_1_MMC_HW_SPI.c ****     switch(Unit)
  36              		.loc 1 228 0
  37 0002 38B9     		cbnz	r0, .L10
 229:Generated_Source\PSoC5/emFile_1_MMC_HW_SPI.c ****     {
 230:Generated_Source\PSoC5/emFile_1_MMC_HW_SPI.c ****     case 0u:
 231:Generated_Source\PSoC5/emFile_1_MMC_HW_SPI.c **** 
 232:Generated_Source\PSoC5/emFile_1_MMC_HW_SPI.c ****         /* Send Data */
 233:Generated_Source\PSoC5/emFile_1_MMC_HW_SPI.c ****         emFile_1_SPI0_WriteTxData(Data);
  38              		.loc 1 233 0
  39 0004 0846     		mov	r0, r1
  40              	.LVL1:
  41 0006 FFF7FEFF 		bl	emFile_1_SPI0_WriteTxData
  42              	.LVL2:
  43              	.L4:
 234:Generated_Source\PSoC5/emFile_1_MMC_HW_SPI.c **** 
 235:Generated_Source\PSoC5/emFile_1_MMC_HW_SPI.c ****         /* Wait until all bits are shifted */
 236:Generated_Source\PSoC5/emFile_1_MMC_HW_SPI.c ****         while (0u == (emFile_1_SPI0_STS_SPI_DONE & emFile_1_SPI0_ReadTxStatus()));
  44              		.loc 1 236 0 discriminator 1
  45 000a FFF7FEFF 		bl	emFile_1_SPI0_ReadTxStatus
  46              	.LVL3:
  47 000e C207     		lsls	r2, r0, #31
  48 0010 FBD5     		bpl	.L4
  49 0012 06E0     		b	.L11
ARM GAS  C:\Users\Nathan\AppData\Local\Temp\cchwyhCu.s 			page 6


  50              	.LVL4:
  51              	.L10:
  52              	.LBB4:
  53              	.LBB5:
 237:Generated_Source\PSoC5/emFile_1_MMC_HW_SPI.c **** 
 238:Generated_Source\PSoC5/emFile_1_MMC_HW_SPI.c ****         /* Read data */
 239:Generated_Source\PSoC5/emFile_1_MMC_HW_SPI.c ****         spiData = emFile_1_SPI0_ReadRxData();
 240:Generated_Source\PSoC5/emFile_1_MMC_HW_SPI.c **** 
 241:Generated_Source\PSoC5/emFile_1_MMC_HW_SPI.c ****         break;
 242:Generated_Source\PSoC5/emFile_1_MMC_HW_SPI.c **** 
 243:Generated_Source\PSoC5/emFile_1_MMC_HW_SPI.c ****     #if (emFile_1_NUMBER_SD_CARDS >= 2u)
 244:Generated_Source\PSoC5/emFile_1_MMC_HW_SPI.c **** 
 245:Generated_Source\PSoC5/emFile_1_MMC_HW_SPI.c ****         case 1u:
 246:Generated_Source\PSoC5/emFile_1_MMC_HW_SPI.c **** 
 247:Generated_Source\PSoC5/emFile_1_MMC_HW_SPI.c ****             /* Send Data */
 248:Generated_Source\PSoC5/emFile_1_MMC_HW_SPI.c ****             emFile_1_SPI1_WriteTxData(Data);
 249:Generated_Source\PSoC5/emFile_1_MMC_HW_SPI.c **** 
 250:Generated_Source\PSoC5/emFile_1_MMC_HW_SPI.c ****             /* Wait until all bits are shifted */
 251:Generated_Source\PSoC5/emFile_1_MMC_HW_SPI.c ****             while (0u == (emFile_1_SPI1_STS_SPI_DONE & emFile_1_SPI1_ReadTxStatus()));
 252:Generated_Source\PSoC5/emFile_1_MMC_HW_SPI.c **** 
 253:Generated_Source\PSoC5/emFile_1_MMC_HW_SPI.c ****             /* Read data */
 254:Generated_Source\PSoC5/emFile_1_MMC_HW_SPI.c ****             spiData = emFile_1_SPI1_ReadRxData();
 255:Generated_Source\PSoC5/emFile_1_MMC_HW_SPI.c **** 
 256:Generated_Source\PSoC5/emFile_1_MMC_HW_SPI.c ****             break;
 257:Generated_Source\PSoC5/emFile_1_MMC_HW_SPI.c **** 
 258:Generated_Source\PSoC5/emFile_1_MMC_HW_SPI.c ****     #endif /* (emFile_1_NUMBER_SD_CARDS >= 2u) */
 259:Generated_Source\PSoC5/emFile_1_MMC_HW_SPI.c **** 
 260:Generated_Source\PSoC5/emFile_1_MMC_HW_SPI.c ****     #if (emFile_1_NUMBER_SD_CARDS >= 3u)
 261:Generated_Source\PSoC5/emFile_1_MMC_HW_SPI.c **** 
 262:Generated_Source\PSoC5/emFile_1_MMC_HW_SPI.c ****         case 2u:
 263:Generated_Source\PSoC5/emFile_1_MMC_HW_SPI.c **** 
 264:Generated_Source\PSoC5/emFile_1_MMC_HW_SPI.c ****             /* Send Data */
 265:Generated_Source\PSoC5/emFile_1_MMC_HW_SPI.c ****             emFile_1_SPI2_WriteTxData(Data);
 266:Generated_Source\PSoC5/emFile_1_MMC_HW_SPI.c **** 
 267:Generated_Source\PSoC5/emFile_1_MMC_HW_SPI.c ****             /* Wait until all bits are shifted */
 268:Generated_Source\PSoC5/emFile_1_MMC_HW_SPI.c ****             while (0u == (emFile_1_SPI2_STS_SPI_DONE & emFile_1_SPI2_ReadTxStatus()));
 269:Generated_Source\PSoC5/emFile_1_MMC_HW_SPI.c **** 
 270:Generated_Source\PSoC5/emFile_1_MMC_HW_SPI.c ****             /* Read data */
 271:Generated_Source\PSoC5/emFile_1_MMC_HW_SPI.c ****             spiData = emFile_1_SPI2_ReadRxData();
 272:Generated_Source\PSoC5/emFile_1_MMC_HW_SPI.c **** 
 273:Generated_Source\PSoC5/emFile_1_MMC_HW_SPI.c ****             break;
 274:Generated_Source\PSoC5/emFile_1_MMC_HW_SPI.c **** 
 275:Generated_Source\PSoC5/emFile_1_MMC_HW_SPI.c ****     #endif /* (emFile_1_NUMBER_SD_CARDS >= 2u) */
 276:Generated_Source\PSoC5/emFile_1_MMC_HW_SPI.c **** 
 277:Generated_Source\PSoC5/emFile_1_MMC_HW_SPI.c ****     #if (emFile_1_NUMBER_SD_CARDS >= 4u)
 278:Generated_Source\PSoC5/emFile_1_MMC_HW_SPI.c **** 
 279:Generated_Source\PSoC5/emFile_1_MMC_HW_SPI.c ****         case 3u:
 280:Generated_Source\PSoC5/emFile_1_MMC_HW_SPI.c **** 
 281:Generated_Source\PSoC5/emFile_1_MMC_HW_SPI.c ****             /* Send Data */
 282:Generated_Source\PSoC5/emFile_1_MMC_HW_SPI.c ****             emFile_1_SPI3_WriteTxData(Data);
 283:Generated_Source\PSoC5/emFile_1_MMC_HW_SPI.c **** 
 284:Generated_Source\PSoC5/emFile_1_MMC_HW_SPI.c ****             /* Wait until all bits are shifted */
 285:Generated_Source\PSoC5/emFile_1_MMC_HW_SPI.c ****             while (0u == (emFile_1_SPI3_STS_SPI_DONE & emFile_1_SPI3_ReadTxStatus()));
 286:Generated_Source\PSoC5/emFile_1_MMC_HW_SPI.c **** 
 287:Generated_Source\PSoC5/emFile_1_MMC_HW_SPI.c ****             /* Read data */
 288:Generated_Source\PSoC5/emFile_1_MMC_HW_SPI.c ****             spiData = emFile_1_SPI3_ReadRxData();
 289:Generated_Source\PSoC5/emFile_1_MMC_HW_SPI.c **** 
ARM GAS  C:\Users\Nathan\AppData\Local\Temp\cchwyhCu.s 			page 7


 290:Generated_Source\PSoC5/emFile_1_MMC_HW_SPI.c ****             break;
 291:Generated_Source\PSoC5/emFile_1_MMC_HW_SPI.c **** 
 292:Generated_Source\PSoC5/emFile_1_MMC_HW_SPI.c ****     #endif /* (emFile_1_NUMBER_SD_CARDS >= 4u) */
 293:Generated_Source\PSoC5/emFile_1_MMC_HW_SPI.c **** 
 294:Generated_Source\PSoC5/emFile_1_MMC_HW_SPI.c ****     default:
 295:Generated_Source\PSoC5/emFile_1_MMC_HW_SPI.c **** 
 296:Generated_Source\PSoC5/emFile_1_MMC_HW_SPI.c ****         /* Send Data */
 297:Generated_Source\PSoC5/emFile_1_MMC_HW_SPI.c ****         emFile_1_SPI0_WriteTxData(Data);
  54              		.loc 1 297 0
  55 0014 0846     		mov	r0, r1
  56              	.LVL5:
  57 0016 FFF7FEFF 		bl	emFile_1_SPI0_WriteTxData
  58              	.LVL6:
  59              	.L5:
 298:Generated_Source\PSoC5/emFile_1_MMC_HW_SPI.c **** 
 299:Generated_Source\PSoC5/emFile_1_MMC_HW_SPI.c ****         /* Wait until all bits are shifted */
 300:Generated_Source\PSoC5/emFile_1_MMC_HW_SPI.c ****         while (0u == (emFile_1_SPI0_STS_SPI_DONE & emFile_1_SPI0_ReadTxStatus()));
  60              		.loc 1 300 0
  61 001a FFF7FEFF 		bl	emFile_1_SPI0_ReadTxStatus
  62              	.LVL7:
  63 001e C307     		lsls	r3, r0, #31
  64 0020 FBD5     		bpl	.L5
  65              	.LVL8:
  66              	.L11:
  67              	.LBE5:
  68              	.LBE4:
 301:Generated_Source\PSoC5/emFile_1_MMC_HW_SPI.c **** 
 302:Generated_Source\PSoC5/emFile_1_MMC_HW_SPI.c ****         /* Read data */
 303:Generated_Source\PSoC5/emFile_1_MMC_HW_SPI.c ****         spiData = emFile_1_SPI0_ReadRxData();
 304:Generated_Source\PSoC5/emFile_1_MMC_HW_SPI.c ****         
 305:Generated_Source\PSoC5/emFile_1_MMC_HW_SPI.c ****         break;
 306:Generated_Source\PSoC5/emFile_1_MMC_HW_SPI.c ****     }
 307:Generated_Source\PSoC5/emFile_1_MMC_HW_SPI.c **** 
 308:Generated_Source\PSoC5/emFile_1_MMC_HW_SPI.c ****     return(spiData);
 309:Generated_Source\PSoC5/emFile_1_MMC_HW_SPI.c **** }
  69              		.loc 1 309 0
  70 0022 BDE80840 		pop	{r3, lr}
  71              		.cfi_restore 14
  72              		.cfi_restore 3
  73              		.cfi_def_cfa_offset 0
  74              	.LBB7:
  75              	.LBB6:
 303:Generated_Source\PSoC5/emFile_1_MMC_HW_SPI.c ****         
  76              		.loc 1 303 0
  77 0026 FFF7FEBF 		b	emFile_1_SPI0_ReadRxData
  78              	.LVL9:
  79              	.LBE6:
  80              	.LBE7:
  81              		.cfi_endproc
  82              	.LFE64:
  83              		.size	emFile_1_ReadWriteSPI, .-emFile_1_ReadWriteSPI
  84              		.section	.text.FS_MMC_HW_X_EnableCS,"ax",%progbits
  85              		.align	1
  86              		.global	FS_MMC_HW_X_EnableCS
  87              		.thumb
  88              		.thumb_func
  89              		.type	FS_MMC_HW_X_EnableCS, %function
ARM GAS  C:\Users\Nathan\AppData\Local\Temp\cchwyhCu.s 			page 8


  90              	FS_MMC_HW_X_EnableCS:
  91              	.LFB65:
 310:Generated_Source\PSoC5/emFile_1_MMC_HW_SPI.c **** 
 311:Generated_Source\PSoC5/emFile_1_MMC_HW_SPI.c **** /*******************************************************************************
 312:Generated_Source\PSoC5/emFile_1_MMC_HW_SPI.c **** * Function Name: FS_MMC_HW_X_EnableCS
 313:Generated_Source\PSoC5/emFile_1_MMC_HW_SPI.c **** ********************************************************************************
 314:Generated_Source\PSoC5/emFile_1_MMC_HW_SPI.c **** *
 315:Generated_Source\PSoC5/emFile_1_MMC_HW_SPI.c **** * Summary:
 316:Generated_Source\PSoC5/emFile_1_MMC_HW_SPI.c **** *  FS low level function. Sets the card slot active using the
 317:Generated_Source\PSoC5/emFile_1_MMC_HW_SPI.c **** *  chip select (CS) line.
 318:Generated_Source\PSoC5/emFile_1_MMC_HW_SPI.c **** *
 319:Generated_Source\PSoC5/emFile_1_MMC_HW_SPI.c **** * Parameters:
 320:Generated_Source\PSoC5/emFile_1_MMC_HW_SPI.c **** *  Unit      - Device Index.
 321:Generated_Source\PSoC5/emFile_1_MMC_HW_SPI.c **** *
 322:Generated_Source\PSoC5/emFile_1_MMC_HW_SPI.c **** * Return:
 323:Generated_Source\PSoC5/emFile_1_MMC_HW_SPI.c **** *  None
 324:Generated_Source\PSoC5/emFile_1_MMC_HW_SPI.c **** *
 325:Generated_Source\PSoC5/emFile_1_MMC_HW_SPI.c **** * Reentrant:
 326:Generated_Source\PSoC5/emFile_1_MMC_HW_SPI.c **** *  No
 327:Generated_Source\PSoC5/emFile_1_MMC_HW_SPI.c **** *
 328:Generated_Source\PSoC5/emFile_1_MMC_HW_SPI.c **** *******************************************************************************/
 329:Generated_Source\PSoC5/emFile_1_MMC_HW_SPI.c **** void FS_MMC_HW_X_EnableCS(U8 Unit)
 330:Generated_Source\PSoC5/emFile_1_MMC_HW_SPI.c **** {
  92              		.loc 1 330 0
  93              		.cfi_startproc
  94              		@ args = 0, pretend = 0, frame = 0
  95              		@ frame_needed = 0, uses_anonymous_args = 0
  96              		@ link register save eliminated.
  97              	.LVL10:
 331:Generated_Source\PSoC5/emFile_1_MMC_HW_SPI.c ****     switch(Unit)
  98              		.loc 1 331 0
  99 0000 00B1     		cbz	r0, .L17
 332:Generated_Source\PSoC5/emFile_1_MMC_HW_SPI.c ****     {
 333:Generated_Source\PSoC5/emFile_1_MMC_HW_SPI.c ****         case 0u:
 334:Generated_Source\PSoC5/emFile_1_MMC_HW_SPI.c **** 
 335:Generated_Source\PSoC5/emFile_1_MMC_HW_SPI.c ****             /* Set CS to 0 */
 336:Generated_Source\PSoC5/emFile_1_MMC_HW_SPI.c ****             emFile_1_SPI0_CS_Write(0u);
 337:Generated_Source\PSoC5/emFile_1_MMC_HW_SPI.c **** 
 338:Generated_Source\PSoC5/emFile_1_MMC_HW_SPI.c ****             break;
 339:Generated_Source\PSoC5/emFile_1_MMC_HW_SPI.c **** 
 340:Generated_Source\PSoC5/emFile_1_MMC_HW_SPI.c ****         #if (emFile_1_NUMBER_SD_CARDS >= 2u)
 341:Generated_Source\PSoC5/emFile_1_MMC_HW_SPI.c **** 
 342:Generated_Source\PSoC5/emFile_1_MMC_HW_SPI.c ****             case 1u:
 343:Generated_Source\PSoC5/emFile_1_MMC_HW_SPI.c **** 
 344:Generated_Source\PSoC5/emFile_1_MMC_HW_SPI.c ****                 /* Set CS to 0 */
 345:Generated_Source\PSoC5/emFile_1_MMC_HW_SPI.c ****                 emFile_1_SPI1_CS_Write(0u);
 346:Generated_Source\PSoC5/emFile_1_MMC_HW_SPI.c **** 
 347:Generated_Source\PSoC5/emFile_1_MMC_HW_SPI.c ****                 break;
 348:Generated_Source\PSoC5/emFile_1_MMC_HW_SPI.c **** 
 349:Generated_Source\PSoC5/emFile_1_MMC_HW_SPI.c ****         #endif /* (emFile_1_NUMBER_SD_CARDS >= 2u) */
 350:Generated_Source\PSoC5/emFile_1_MMC_HW_SPI.c **** 
 351:Generated_Source\PSoC5/emFile_1_MMC_HW_SPI.c ****         #if (emFile_1_NUMBER_SD_CARDS >= 3u)
 352:Generated_Source\PSoC5/emFile_1_MMC_HW_SPI.c **** 
 353:Generated_Source\PSoC5/emFile_1_MMC_HW_SPI.c ****             case 2u:
 354:Generated_Source\PSoC5/emFile_1_MMC_HW_SPI.c **** 
 355:Generated_Source\PSoC5/emFile_1_MMC_HW_SPI.c ****                 /* Set CS to 0 */
 356:Generated_Source\PSoC5/emFile_1_MMC_HW_SPI.c ****                 emFile_1_SPI2_CS_Write(0u);
ARM GAS  C:\Users\Nathan\AppData\Local\Temp\cchwyhCu.s 			page 9


 357:Generated_Source\PSoC5/emFile_1_MMC_HW_SPI.c **** 
 358:Generated_Source\PSoC5/emFile_1_MMC_HW_SPI.c ****                 break;
 359:Generated_Source\PSoC5/emFile_1_MMC_HW_SPI.c **** 
 360:Generated_Source\PSoC5/emFile_1_MMC_HW_SPI.c ****         #endif /* (emFile_1_NUMBER_SD_CARDS >= 3u) */
 361:Generated_Source\PSoC5/emFile_1_MMC_HW_SPI.c **** 
 362:Generated_Source\PSoC5/emFile_1_MMC_HW_SPI.c ****         #if (emFile_1_NUMBER_SD_CARDS == 4u)
 363:Generated_Source\PSoC5/emFile_1_MMC_HW_SPI.c **** 
 364:Generated_Source\PSoC5/emFile_1_MMC_HW_SPI.c ****             case 3u:
 365:Generated_Source\PSoC5/emFile_1_MMC_HW_SPI.c **** 
 366:Generated_Source\PSoC5/emFile_1_MMC_HW_SPI.c ****                 /* Set CS to 0 */
 367:Generated_Source\PSoC5/emFile_1_MMC_HW_SPI.c ****                 emFile_1_SPI3_CS_Write(0u);
 368:Generated_Source\PSoC5/emFile_1_MMC_HW_SPI.c **** 
 369:Generated_Source\PSoC5/emFile_1_MMC_HW_SPI.c ****                 break;
 370:Generated_Source\PSoC5/emFile_1_MMC_HW_SPI.c **** 
 371:Generated_Source\PSoC5/emFile_1_MMC_HW_SPI.c ****         #endif /* (emFile_1_NUMBER_SD_CARDS == 4u) */
 372:Generated_Source\PSoC5/emFile_1_MMC_HW_SPI.c **** 
 373:Generated_Source\PSoC5/emFile_1_MMC_HW_SPI.c ****         default:
 374:Generated_Source\PSoC5/emFile_1_MMC_HW_SPI.c **** 
 375:Generated_Source\PSoC5/emFile_1_MMC_HW_SPI.c ****             emFile_1_SPI0_CS_Write(0u);
 100              		.loc 1 375 0
 101 0002 0020     		movs	r0, #0
 102              	.LVL11:
 103              	.L17:
 104 0004 FFF7FEBF 		b	emFile_1_SPI0_CS_Write
 105              	.LVL12:
 106              		.cfi_endproc
 107              	.LFE65:
 108              		.size	FS_MMC_HW_X_EnableCS, .-FS_MMC_HW_X_EnableCS
 109              		.section	.text.FS_MMC_HW_X_DisableCS,"ax",%progbits
 110              		.align	1
 111              		.global	FS_MMC_HW_X_DisableCS
 112              		.thumb
 113              		.thumb_func
 114              		.type	FS_MMC_HW_X_DisableCS, %function
 115              	FS_MMC_HW_X_DisableCS:
 116              	.LFB66:
 376:Generated_Source\PSoC5/emFile_1_MMC_HW_SPI.c **** 
 377:Generated_Source\PSoC5/emFile_1_MMC_HW_SPI.c ****             break;
 378:Generated_Source\PSoC5/emFile_1_MMC_HW_SPI.c ****     }
 379:Generated_Source\PSoC5/emFile_1_MMC_HW_SPI.c **** }
 380:Generated_Source\PSoC5/emFile_1_MMC_HW_SPI.c **** 
 381:Generated_Source\PSoC5/emFile_1_MMC_HW_SPI.c **** 
 382:Generated_Source\PSoC5/emFile_1_MMC_HW_SPI.c **** /*******************************************************************************
 383:Generated_Source\PSoC5/emFile_1_MMC_HW_SPI.c **** * Function Name: FS_MMC_HW_X_DisableCS
 384:Generated_Source\PSoC5/emFile_1_MMC_HW_SPI.c **** ********************************************************************************
 385:Generated_Source\PSoC5/emFile_1_MMC_HW_SPI.c **** *
 386:Generated_Source\PSoC5/emFile_1_MMC_HW_SPI.c **** * Summary:
 387:Generated_Source\PSoC5/emFile_1_MMC_HW_SPI.c **** *  FS low level function. Clears the card slot inactive using the
 388:Generated_Source\PSoC5/emFile_1_MMC_HW_SPI.c **** *  chip select (CS) line.
 389:Generated_Source\PSoC5/emFile_1_MMC_HW_SPI.c **** *
 390:Generated_Source\PSoC5/emFile_1_MMC_HW_SPI.c **** * Parameters:
 391:Generated_Source\PSoC5/emFile_1_MMC_HW_SPI.c **** *  Unit      - Device Index.
 392:Generated_Source\PSoC5/emFile_1_MMC_HW_SPI.c **** *
 393:Generated_Source\PSoC5/emFile_1_MMC_HW_SPI.c **** * Return:
 394:Generated_Source\PSoC5/emFile_1_MMC_HW_SPI.c **** *  None
 395:Generated_Source\PSoC5/emFile_1_MMC_HW_SPI.c **** *
 396:Generated_Source\PSoC5/emFile_1_MMC_HW_SPI.c **** * Reentrant:
ARM GAS  C:\Users\Nathan\AppData\Local\Temp\cchwyhCu.s 			page 10


 397:Generated_Source\PSoC5/emFile_1_MMC_HW_SPI.c **** *  No
 398:Generated_Source\PSoC5/emFile_1_MMC_HW_SPI.c **** *
 399:Generated_Source\PSoC5/emFile_1_MMC_HW_SPI.c **** *******************************************************************************/
 400:Generated_Source\PSoC5/emFile_1_MMC_HW_SPI.c **** void FS_MMC_HW_X_DisableCS(U8 Unit)
 401:Generated_Source\PSoC5/emFile_1_MMC_HW_SPI.c **** {
 117              		.loc 1 401 0
 118              		.cfi_startproc
 119              		@ args = 0, pretend = 0, frame = 0
 120              		@ frame_needed = 0, uses_anonymous_args = 0
 121              		@ link register save eliminated.
 122              	.LVL13:
 402:Generated_Source\PSoC5/emFile_1_MMC_HW_SPI.c ****     switch(Unit)
 403:Generated_Source\PSoC5/emFile_1_MMC_HW_SPI.c ****     {
 404:Generated_Source\PSoC5/emFile_1_MMC_HW_SPI.c ****     case 0u:
 405:Generated_Source\PSoC5/emFile_1_MMC_HW_SPI.c **** 
 406:Generated_Source\PSoC5/emFile_1_MMC_HW_SPI.c ****         emFile_1_SPI0_CS_Write(1u);
 407:Generated_Source\PSoC5/emFile_1_MMC_HW_SPI.c **** 
 408:Generated_Source\PSoC5/emFile_1_MMC_HW_SPI.c ****         break;
 409:Generated_Source\PSoC5/emFile_1_MMC_HW_SPI.c **** 
 410:Generated_Source\PSoC5/emFile_1_MMC_HW_SPI.c ****     #if (emFile_1_NUMBER_SD_CARDS >= 2u)
 411:Generated_Source\PSoC5/emFile_1_MMC_HW_SPI.c **** 
 412:Generated_Source\PSoC5/emFile_1_MMC_HW_SPI.c ****         case 1u:
 413:Generated_Source\PSoC5/emFile_1_MMC_HW_SPI.c **** 
 414:Generated_Source\PSoC5/emFile_1_MMC_HW_SPI.c ****             emFile_1_SPI1_CS_Write(1u);
 415:Generated_Source\PSoC5/emFile_1_MMC_HW_SPI.c **** 
 416:Generated_Source\PSoC5/emFile_1_MMC_HW_SPI.c ****             break;
 417:Generated_Source\PSoC5/emFile_1_MMC_HW_SPI.c **** 
 418:Generated_Source\PSoC5/emFile_1_MMC_HW_SPI.c ****     #endif /* (emFile_1_NUMBER_SD_CARDS >= 2u) */
 419:Generated_Source\PSoC5/emFile_1_MMC_HW_SPI.c **** 
 420:Generated_Source\PSoC5/emFile_1_MMC_HW_SPI.c ****     #if (emFile_1_NUMBER_SD_CARDS >= 3u)
 421:Generated_Source\PSoC5/emFile_1_MMC_HW_SPI.c **** 
 422:Generated_Source\PSoC5/emFile_1_MMC_HW_SPI.c ****         case 2u:
 423:Generated_Source\PSoC5/emFile_1_MMC_HW_SPI.c **** 
 424:Generated_Source\PSoC5/emFile_1_MMC_HW_SPI.c ****             emFile_1_SPI2_CS_Write(1u);
 425:Generated_Source\PSoC5/emFile_1_MMC_HW_SPI.c **** 
 426:Generated_Source\PSoC5/emFile_1_MMC_HW_SPI.c ****             break;
 427:Generated_Source\PSoC5/emFile_1_MMC_HW_SPI.c **** 
 428:Generated_Source\PSoC5/emFile_1_MMC_HW_SPI.c ****     #endif /* (emFile_1_NUMBER_SD_CARDS >= 3u) */
 429:Generated_Source\PSoC5/emFile_1_MMC_HW_SPI.c **** 
 430:Generated_Source\PSoC5/emFile_1_MMC_HW_SPI.c ****     #if (emFile_1_NUMBER_SD_CARDS == 4u)
 431:Generated_Source\PSoC5/emFile_1_MMC_HW_SPI.c **** 
 432:Generated_Source\PSoC5/emFile_1_MMC_HW_SPI.c ****         case 3u:
 433:Generated_Source\PSoC5/emFile_1_MMC_HW_SPI.c **** 
 434:Generated_Source\PSoC5/emFile_1_MMC_HW_SPI.c ****             emFile_1_SPI3_CS_Write(1u);
 435:Generated_Source\PSoC5/emFile_1_MMC_HW_SPI.c **** 
 436:Generated_Source\PSoC5/emFile_1_MMC_HW_SPI.c ****             break;
 437:Generated_Source\PSoC5/emFile_1_MMC_HW_SPI.c **** 
 438:Generated_Source\PSoC5/emFile_1_MMC_HW_SPI.c ****     #endif /* (emFile_1_NUMBER_SD_CARDS == 4u) */
 439:Generated_Source\PSoC5/emFile_1_MMC_HW_SPI.c **** 
 440:Generated_Source\PSoC5/emFile_1_MMC_HW_SPI.c ****     default:
 441:Generated_Source\PSoC5/emFile_1_MMC_HW_SPI.c **** 
 442:Generated_Source\PSoC5/emFile_1_MMC_HW_SPI.c ****         emFile_1_SPI0_CS_Write(1u);
 123              		.loc 1 442 0
 124 0000 0120     		movs	r0, #1
 125              	.LVL14:
 126 0002 FFF7FEBF 		b	emFile_1_SPI0_CS_Write
 127              	.LVL15:
ARM GAS  C:\Users\Nathan\AppData\Local\Temp\cchwyhCu.s 			page 11


 128              		.cfi_endproc
 129              	.LFE66:
 130              		.size	FS_MMC_HW_X_DisableCS, .-FS_MMC_HW_X_DisableCS
 131              		.section	.text.FS_MMC_HW_X_IsWriteProtected,"ax",%progbits
 132              		.align	1
 133              		.global	FS_MMC_HW_X_IsWriteProtected
 134              		.thumb
 135              		.thumb_func
 136              		.type	FS_MMC_HW_X_IsWriteProtected, %function
 137              	FS_MMC_HW_X_IsWriteProtected:
 138              	.LFB67:
 443:Generated_Source\PSoC5/emFile_1_MMC_HW_SPI.c ****         
 444:Generated_Source\PSoC5/emFile_1_MMC_HW_SPI.c ****         break;
 445:Generated_Source\PSoC5/emFile_1_MMC_HW_SPI.c ****     }
 446:Generated_Source\PSoC5/emFile_1_MMC_HW_SPI.c **** }
 447:Generated_Source\PSoC5/emFile_1_MMC_HW_SPI.c **** 
 448:Generated_Source\PSoC5/emFile_1_MMC_HW_SPI.c **** 
 449:Generated_Source\PSoC5/emFile_1_MMC_HW_SPI.c **** /*******************************************************************************
 450:Generated_Source\PSoC5/emFile_1_MMC_HW_SPI.c **** * Function Name: FS_MMC_HW_X_IsWriteProtected
 451:Generated_Source\PSoC5/emFile_1_MMC_HW_SPI.c **** ********************************************************************************
 452:Generated_Source\PSoC5/emFile_1_MMC_HW_SPI.c **** *
 453:Generated_Source\PSoC5/emFile_1_MMC_HW_SPI.c **** * Summary:
 454:Generated_Source\PSoC5/emFile_1_MMC_HW_SPI.c **** *  FS low level function. Returns the state of the physical write
 455:Generated_Source\PSoC5/emFile_1_MMC_HW_SPI.c **** *  protection of the SD cards.
 456:Generated_Source\PSoC5/emFile_1_MMC_HW_SPI.c **** *
 457:Generated_Source\PSoC5/emFile_1_MMC_HW_SPI.c **** * Parameters:
 458:Generated_Source\PSoC5/emFile_1_MMC_HW_SPI.c **** *  Unit      - Device Index.
 459:Generated_Source\PSoC5/emFile_1_MMC_HW_SPI.c **** *
 460:Generated_Source\PSoC5/emFile_1_MMC_HW_SPI.c **** * Return:
 461:Generated_Source\PSoC5/emFile_1_MMC_HW_SPI.c **** *    1       - the card is write protected;
 462:Generated_Source\PSoC5/emFile_1_MMC_HW_SPI.c **** *    0       - the card is not write protected.
 463:Generated_Source\PSoC5/emFile_1_MMC_HW_SPI.c **** *
 464:Generated_Source\PSoC5/emFile_1_MMC_HW_SPI.c **** * Reentrant:
 465:Generated_Source\PSoC5/emFile_1_MMC_HW_SPI.c **** *  No
 466:Generated_Source\PSoC5/emFile_1_MMC_HW_SPI.c **** *
 467:Generated_Source\PSoC5/emFile_1_MMC_HW_SPI.c **** *******************************************************************************/
 468:Generated_Source\PSoC5/emFile_1_MMC_HW_SPI.c **** int FS_MMC_HW_X_IsWriteProtected(U8 Unit)
 469:Generated_Source\PSoC5/emFile_1_MMC_HW_SPI.c **** {
 139              		.loc 1 469 0
 140              		.cfi_startproc
 141              		@ args = 0, pretend = 0, frame = 0
 142              		@ frame_needed = 0, uses_anonymous_args = 0
 143              		@ link register save eliminated.
 144              	.LVL16:
 470:Generated_Source\PSoC5/emFile_1_MMC_HW_SPI.c ****    int wpState;
 471:Generated_Source\PSoC5/emFile_1_MMC_HW_SPI.c **** 
 472:Generated_Source\PSoC5/emFile_1_MMC_HW_SPI.c ****     switch(Unit)
 473:Generated_Source\PSoC5/emFile_1_MMC_HW_SPI.c ****     {
 474:Generated_Source\PSoC5/emFile_1_MMC_HW_SPI.c ****     case 0u:
 475:Generated_Source\PSoC5/emFile_1_MMC_HW_SPI.c **** 
 476:Generated_Source\PSoC5/emFile_1_MMC_HW_SPI.c ****         #if (emFile_1_WP0_EN)
 477:Generated_Source\PSoC5/emFile_1_MMC_HW_SPI.c **** 
 478:Generated_Source\PSoC5/emFile_1_MMC_HW_SPI.c ****             /* Based on physical switch state */
 479:Generated_Source\PSoC5/emFile_1_MMC_HW_SPI.c ****               wpState = (int)emFile_1_SPI0_WP_Read();
 480:Generated_Source\PSoC5/emFile_1_MMC_HW_SPI.c **** 
 481:Generated_Source\PSoC5/emFile_1_MMC_HW_SPI.c ****         #else
 482:Generated_Source\PSoC5/emFile_1_MMC_HW_SPI.c **** 
ARM GAS  C:\Users\Nathan\AppData\Local\Temp\cchwyhCu.s 			page 12


 483:Generated_Source\PSoC5/emFile_1_MMC_HW_SPI.c ****             wpState = 0;
 484:Generated_Source\PSoC5/emFile_1_MMC_HW_SPI.c **** 
 485:Generated_Source\PSoC5/emFile_1_MMC_HW_SPI.c ****         #endif /* (emFile_1_WP0_EN) */
 486:Generated_Source\PSoC5/emFile_1_MMC_HW_SPI.c **** 
 487:Generated_Source\PSoC5/emFile_1_MMC_HW_SPI.c ****         break;
 488:Generated_Source\PSoC5/emFile_1_MMC_HW_SPI.c **** 
 489:Generated_Source\PSoC5/emFile_1_MMC_HW_SPI.c ****     #if (emFile_1_NUMBER_SD_CARDS >= 2u)
 490:Generated_Source\PSoC5/emFile_1_MMC_HW_SPI.c **** 
 491:Generated_Source\PSoC5/emFile_1_MMC_HW_SPI.c ****         case 1u:
 492:Generated_Source\PSoC5/emFile_1_MMC_HW_SPI.c **** 
 493:Generated_Source\PSoC5/emFile_1_MMC_HW_SPI.c ****             #if (emFile_1_WP1_EN)
 494:Generated_Source\PSoC5/emFile_1_MMC_HW_SPI.c **** 
 495:Generated_Source\PSoC5/emFile_1_MMC_HW_SPI.c ****                    /* Based on physical switch state */
 496:Generated_Source\PSoC5/emFile_1_MMC_HW_SPI.c ****                 wpState = (int)emFile_1_SPI1_WP_Read();
 497:Generated_Source\PSoC5/emFile_1_MMC_HW_SPI.c **** 
 498:Generated_Source\PSoC5/emFile_1_MMC_HW_SPI.c ****             #else
 499:Generated_Source\PSoC5/emFile_1_MMC_HW_SPI.c **** 
 500:Generated_Source\PSoC5/emFile_1_MMC_HW_SPI.c ****                 wpState = 0;
 501:Generated_Source\PSoC5/emFile_1_MMC_HW_SPI.c **** 
 502:Generated_Source\PSoC5/emFile_1_MMC_HW_SPI.c ****             #endif /* (emFile_1_WP1_EN) */
 503:Generated_Source\PSoC5/emFile_1_MMC_HW_SPI.c **** 
 504:Generated_Source\PSoC5/emFile_1_MMC_HW_SPI.c ****             break;
 505:Generated_Source\PSoC5/emFile_1_MMC_HW_SPI.c **** 
 506:Generated_Source\PSoC5/emFile_1_MMC_HW_SPI.c ****     #endif /* (emFile_1_NUMBER_SD_CARDS >= 2u) */
 507:Generated_Source\PSoC5/emFile_1_MMC_HW_SPI.c **** 
 508:Generated_Source\PSoC5/emFile_1_MMC_HW_SPI.c ****     #if (emFile_1_NUMBER_SD_CARDS >= 3u)
 509:Generated_Source\PSoC5/emFile_1_MMC_HW_SPI.c **** 
 510:Generated_Source\PSoC5/emFile_1_MMC_HW_SPI.c ****         case 2u:
 511:Generated_Source\PSoC5/emFile_1_MMC_HW_SPI.c **** 
 512:Generated_Source\PSoC5/emFile_1_MMC_HW_SPI.c ****             #if (emFile_1_WP2_EN)
 513:Generated_Source\PSoC5/emFile_1_MMC_HW_SPI.c **** 
 514:Generated_Source\PSoC5/emFile_1_MMC_HW_SPI.c ****                   /* Based on physical switch state */
 515:Generated_Source\PSoC5/emFile_1_MMC_HW_SPI.c ****                 wpState = (int)emFile_1_SPI2_WP_Read();
 516:Generated_Source\PSoC5/emFile_1_MMC_HW_SPI.c **** 
 517:Generated_Source\PSoC5/emFile_1_MMC_HW_SPI.c ****             #else
 518:Generated_Source\PSoC5/emFile_1_MMC_HW_SPI.c **** 
 519:Generated_Source\PSoC5/emFile_1_MMC_HW_SPI.c ****                 wpState = 0;
 520:Generated_Source\PSoC5/emFile_1_MMC_HW_SPI.c **** 
 521:Generated_Source\PSoC5/emFile_1_MMC_HW_SPI.c ****             #endif /* (emFile_1_WP2_EN) */
 522:Generated_Source\PSoC5/emFile_1_MMC_HW_SPI.c **** 
 523:Generated_Source\PSoC5/emFile_1_MMC_HW_SPI.c ****             break;
 524:Generated_Source\PSoC5/emFile_1_MMC_HW_SPI.c **** 
 525:Generated_Source\PSoC5/emFile_1_MMC_HW_SPI.c ****     #endif /* (emFile_1_NUMBER_SD_CARDS >= 3u) */
 526:Generated_Source\PSoC5/emFile_1_MMC_HW_SPI.c **** 
 527:Generated_Source\PSoC5/emFile_1_MMC_HW_SPI.c ****     #if (emFile_1_NUMBER_SD_CARDS == 4u)
 528:Generated_Source\PSoC5/emFile_1_MMC_HW_SPI.c **** 
 529:Generated_Source\PSoC5/emFile_1_MMC_HW_SPI.c ****         case 3u:
 530:Generated_Source\PSoC5/emFile_1_MMC_HW_SPI.c **** 
 531:Generated_Source\PSoC5/emFile_1_MMC_HW_SPI.c ****             #if (emFile_1_WP3_EN)
 532:Generated_Source\PSoC5/emFile_1_MMC_HW_SPI.c **** 
 533:Generated_Source\PSoC5/emFile_1_MMC_HW_SPI.c ****                 /* Based on physical switch state */
 534:Generated_Source\PSoC5/emFile_1_MMC_HW_SPI.c ****                 wpState = (int)emFile_1_SPI3_WP_Read();
 535:Generated_Source\PSoC5/emFile_1_MMC_HW_SPI.c **** 
 536:Generated_Source\PSoC5/emFile_1_MMC_HW_SPI.c ****             #else
 537:Generated_Source\PSoC5/emFile_1_MMC_HW_SPI.c **** 
 538:Generated_Source\PSoC5/emFile_1_MMC_HW_SPI.c ****                 wpState = 0;
 539:Generated_Source\PSoC5/emFile_1_MMC_HW_SPI.c **** 
ARM GAS  C:\Users\Nathan\AppData\Local\Temp\cchwyhCu.s 			page 13


 540:Generated_Source\PSoC5/emFile_1_MMC_HW_SPI.c ****             #endif /* (emFile_1_WP3_EN) */
 541:Generated_Source\PSoC5/emFile_1_MMC_HW_SPI.c **** 
 542:Generated_Source\PSoC5/emFile_1_MMC_HW_SPI.c ****             break;
 543:Generated_Source\PSoC5/emFile_1_MMC_HW_SPI.c **** 
 544:Generated_Source\PSoC5/emFile_1_MMC_HW_SPI.c ****     #endif /* (emFile_1_NUMBER_SD_CARDS == 4u) */
 545:Generated_Source\PSoC5/emFile_1_MMC_HW_SPI.c **** 
 546:Generated_Source\PSoC5/emFile_1_MMC_HW_SPI.c ****     default:
 547:Generated_Source\PSoC5/emFile_1_MMC_HW_SPI.c **** 
 548:Generated_Source\PSoC5/emFile_1_MMC_HW_SPI.c ****         #if (emFile_1_WP0_EN)
 549:Generated_Source\PSoC5/emFile_1_MMC_HW_SPI.c **** 
 550:Generated_Source\PSoC5/emFile_1_MMC_HW_SPI.c ****               /* Based on physical switch state */
 551:Generated_Source\PSoC5/emFile_1_MMC_HW_SPI.c ****             wpState = (int)emFile_1_SPI0_WP_Read();
 552:Generated_Source\PSoC5/emFile_1_MMC_HW_SPI.c **** 
 553:Generated_Source\PSoC5/emFile_1_MMC_HW_SPI.c ****         #else
 554:Generated_Source\PSoC5/emFile_1_MMC_HW_SPI.c **** 
 555:Generated_Source\PSoC5/emFile_1_MMC_HW_SPI.c ****             wpState = 0;
 556:Generated_Source\PSoC5/emFile_1_MMC_HW_SPI.c **** 
 557:Generated_Source\PSoC5/emFile_1_MMC_HW_SPI.c ****         #endif /* (emFile_1_WP0_EN) */
 558:Generated_Source\PSoC5/emFile_1_MMC_HW_SPI.c ****         
 559:Generated_Source\PSoC5/emFile_1_MMC_HW_SPI.c ****         break;
 560:Generated_Source\PSoC5/emFile_1_MMC_HW_SPI.c ****     }
 561:Generated_Source\PSoC5/emFile_1_MMC_HW_SPI.c **** 
 562:Generated_Source\PSoC5/emFile_1_MMC_HW_SPI.c ****     return(wpState);
 563:Generated_Source\PSoC5/emFile_1_MMC_HW_SPI.c **** }
 145              		.loc 1 563 0
 146 0000 0020     		movs	r0, #0
 147              	.LVL17:
 148 0002 7047     		bx	lr
 149              		.cfi_endproc
 150              	.LFE67:
 151              		.size	FS_MMC_HW_X_IsWriteProtected, .-FS_MMC_HW_X_IsWriteProtected
 152              		.section	.text.FS_MMC_HW_X_SetMaxSpeed,"ax",%progbits
 153              		.align	1
 154              		.global	FS_MMC_HW_X_SetMaxSpeed
 155              		.thumb
 156              		.thumb_func
 157              		.type	FS_MMC_HW_X_SetMaxSpeed, %function
 158              	FS_MMC_HW_X_SetMaxSpeed:
 159              	.LFB68:
 564:Generated_Source\PSoC5/emFile_1_MMC_HW_SPI.c **** 
 565:Generated_Source\PSoC5/emFile_1_MMC_HW_SPI.c **** 
 566:Generated_Source\PSoC5/emFile_1_MMC_HW_SPI.c **** /*******************************************************************************
 567:Generated_Source\PSoC5/emFile_1_MMC_HW_SPI.c **** * Function Name: FS_MMC_HW_X_SetMaxSpeed
 568:Generated_Source\PSoC5/emFile_1_MMC_HW_SPI.c **** ********************************************************************************
 569:Generated_Source\PSoC5/emFile_1_MMC_HW_SPI.c **** *
 570:Generated_Source\PSoC5/emFile_1_MMC_HW_SPI.c **** * Summary:
 571:Generated_Source\PSoC5/emFile_1_MMC_HW_SPI.c **** *  FS low level function. Sets the SPI interface to a maximum frequency.
 572:Generated_Source\PSoC5/emFile_1_MMC_HW_SPI.c **** *  Make sure that you set the frequency lower or equal but never higher
 573:Generated_Source\PSoC5/emFile_1_MMC_HW_SPI.c **** *  than the given value. Recommended startup frequency is 100kHz - 400kHz.
 574:Generated_Source\PSoC5/emFile_1_MMC_HW_SPI.c **** *
 575:Generated_Source\PSoC5/emFile_1_MMC_HW_SPI.c **** * Parameters:
 576:Generated_Source\PSoC5/emFile_1_MMC_HW_SPI.c **** *  Unit             - Device Index;
 577:Generated_Source\PSoC5/emFile_1_MMC_HW_SPI.c **** *  MaxFreq          - SPI clock frequency in kHz.
 578:Generated_Source\PSoC5/emFile_1_MMC_HW_SPI.c **** *
 579:Generated_Source\PSoC5/emFile_1_MMC_HW_SPI.c **** * Return:
 580:Generated_Source\PSoC5/emFile_1_MMC_HW_SPI.c **** *  max. frequency   - the maximum frequency set in kHz;
 581:Generated_Source\PSoC5/emFile_1_MMC_HW_SPI.c **** *  0                - the frequency could not be set.
ARM GAS  C:\Users\Nathan\AppData\Local\Temp\cchwyhCu.s 			page 14


 582:Generated_Source\PSoC5/emFile_1_MMC_HW_SPI.c **** *
 583:Generated_Source\PSoC5/emFile_1_MMC_HW_SPI.c **** * Reentrant:
 584:Generated_Source\PSoC5/emFile_1_MMC_HW_SPI.c **** *  No
 585:Generated_Source\PSoC5/emFile_1_MMC_HW_SPI.c **** *
 586:Generated_Source\PSoC5/emFile_1_MMC_HW_SPI.c **** *******************************************************************************/
 587:Generated_Source\PSoC5/emFile_1_MMC_HW_SPI.c **** U16 FS_MMC_HW_X_SetMaxSpeed(U8 Unit, U16 MaxFreq)
 588:Generated_Source\PSoC5/emFile_1_MMC_HW_SPI.c **** {
 160              		.loc 1 588 0
 161              		.cfi_startproc
 162              		@ args = 0, pretend = 0, frame = 0
 163              		@ frame_needed = 0, uses_anonymous_args = 0
 164              	.LVL18:
 589:Generated_Source\PSoC5/emFile_1_MMC_HW_SPI.c ****     U16 freq;
 590:Generated_Source\PSoC5/emFile_1_MMC_HW_SPI.c ****     U32 divResult;
 591:Generated_Source\PSoC5/emFile_1_MMC_HW_SPI.c **** 
 592:Generated_Source\PSoC5/emFile_1_MMC_HW_SPI.c ****     if(MaxFreq < emFile_1_STARTUP_FREQ)
 165              		.loc 1 592 0
 166 0000 B1F5C87F 		cmp	r1, #400
 588:Generated_Source\PSoC5/emFile_1_MMC_HW_SPI.c ****     U16 freq;
 167              		.loc 1 588 0
 168 0004 38B5     		push	{r3, r4, r5, lr}
 169              		.cfi_def_cfa_offset 16
 170              		.cfi_offset 3, -16
 171              		.cfi_offset 4, -12
 172              		.cfi_offset 5, -8
 173              		.cfi_offset 14, -4
 174              		.loc 1 592 0
 175 0006 06D3     		bcc	.L28
 176 0008 42F21073 		movw	r3, #10000
 177 000c 9942     		cmp	r1, r3
 178 000e 28BF     		it	cs
 179 0010 1946     		movcs	r1, r3
 180              	.LVL19:
 181 0012 0D46     		mov	r5, r1
 182 0014 01E0     		b	.L24
 183              	.LVL20:
 184              	.L28:
 593:Generated_Source\PSoC5/emFile_1_MMC_HW_SPI.c ****     {
 594:Generated_Source\PSoC5/emFile_1_MMC_HW_SPI.c ****         MaxFreq = emFile_1_STARTUP_FREQ;
 185              		.loc 1 594 0
 186 0016 4FF4C875 		mov	r5, #400
 187              	.LVL21:
 188              	.L24:
 595:Generated_Source\PSoC5/emFile_1_MMC_HW_SPI.c ****     }
 596:Generated_Source\PSoC5/emFile_1_MMC_HW_SPI.c ****     else if(MaxFreq > emFile_1_MAX_SPI_FREQ)
 597:Generated_Source\PSoC5/emFile_1_MMC_HW_SPI.c ****     {
 598:Generated_Source\PSoC5/emFile_1_MMC_HW_SPI.c ****         MaxFreq = emFile_1_MAX_SPI_FREQ;
 599:Generated_Source\PSoC5/emFile_1_MMC_HW_SPI.c ****     }
 600:Generated_Source\PSoC5/emFile_1_MMC_HW_SPI.c ****     else
 601:Generated_Source\PSoC5/emFile_1_MMC_HW_SPI.c ****     {
 602:Generated_Source\PSoC5/emFile_1_MMC_HW_SPI.c ****         /* Do nothing */
 603:Generated_Source\PSoC5/emFile_1_MMC_HW_SPI.c ****     }
 604:Generated_Source\PSoC5/emFile_1_MMC_HW_SPI.c **** 
 605:Generated_Source\PSoC5/emFile_1_MMC_HW_SPI.c ****     freq = MaxFreq << 1u;
 606:Generated_Source\PSoC5/emFile_1_MMC_HW_SPI.c **** 
 607:Generated_Source\PSoC5/emFile_1_MMC_HW_SPI.c ****     divResult = ((U32) BCLK__BUS_CLK__KHZ)/((U32) freq);
 189              		.loc 1 607 0
ARM GAS  C:\Users\Nathan\AppData\Local\Temp\cchwyhCu.s 			page 15


 190 001a 45F6C053 		movw	r3, #24000
 191 001e 6C00     		lsls	r4, r5, #1
 192 0020 A4B2     		uxth	r4, r4
 193 0022 B3FBF4F4 		udiv	r4, r3, r4
 194              	.LVL22:
 195 0026 013C     		subs	r4, r4, #1
 196              	.LVL23:
 608:Generated_Source\PSoC5/emFile_1_MMC_HW_SPI.c **** 
 609:Generated_Source\PSoC5/emFile_1_MMC_HW_SPI.c ****     switch(Unit)
 610:Generated_Source\PSoC5/emFile_1_MMC_HW_SPI.c ****     {
 611:Generated_Source\PSoC5/emFile_1_MMC_HW_SPI.c ****         case 0u:
 612:Generated_Source\PSoC5/emFile_1_MMC_HW_SPI.c ****             emFile_1_Clock_1_Stop();
 613:Generated_Source\PSoC5/emFile_1_MMC_HW_SPI.c ****             emFile_1_Clock_1_SetDividerValue((U16)divResult);    /* update the frequency */
 614:Generated_Source\PSoC5/emFile_1_MMC_HW_SPI.c ****             emFile_1_Clock_1_Start();
 615:Generated_Source\PSoC5/emFile_1_MMC_HW_SPI.c ****             break;
 616:Generated_Source\PSoC5/emFile_1_MMC_HW_SPI.c **** 
 617:Generated_Source\PSoC5/emFile_1_MMC_HW_SPI.c ****         #if (emFile_1_NUMBER_SD_CARDS >= 2u)
 618:Generated_Source\PSoC5/emFile_1_MMC_HW_SPI.c **** 
 619:Generated_Source\PSoC5/emFile_1_MMC_HW_SPI.c ****         case 1u:
 620:Generated_Source\PSoC5/emFile_1_MMC_HW_SPI.c **** 
 621:Generated_Source\PSoC5/emFile_1_MMC_HW_SPI.c ****             emFile_1_Clock_2_Stop();
 622:Generated_Source\PSoC5/emFile_1_MMC_HW_SPI.c ****             emFile_1_Clock_2_SetDividerValue((U16)divResult);    /* update the frequency */
 623:Generated_Source\PSoC5/emFile_1_MMC_HW_SPI.c ****             emFile_1_Clock_2_Start();
 624:Generated_Source\PSoC5/emFile_1_MMC_HW_SPI.c ****             break;
 625:Generated_Source\PSoC5/emFile_1_MMC_HW_SPI.c **** 
 626:Generated_Source\PSoC5/emFile_1_MMC_HW_SPI.c ****         #endif /* (emFile_1_NUMBER_SD_CARDS >= 2u) */
 627:Generated_Source\PSoC5/emFile_1_MMC_HW_SPI.c **** 
 628:Generated_Source\PSoC5/emFile_1_MMC_HW_SPI.c ****         #if (emFile_1_NUMBER_SD_CARDS >= 3u)
 629:Generated_Source\PSoC5/emFile_1_MMC_HW_SPI.c **** 
 630:Generated_Source\PSoC5/emFile_1_MMC_HW_SPI.c ****         case 2u:
 631:Generated_Source\PSoC5/emFile_1_MMC_HW_SPI.c **** 
 632:Generated_Source\PSoC5/emFile_1_MMC_HW_SPI.c ****             emFile_1_Clock_3_Stop();
 633:Generated_Source\PSoC5/emFile_1_MMC_HW_SPI.c ****             emFile_1_Clock_3_SetDividerValue((U16)divResult);    /* update the frequency */
 634:Generated_Source\PSoC5/emFile_1_MMC_HW_SPI.c ****             emFile_1_Clock_3_Start();
 635:Generated_Source\PSoC5/emFile_1_MMC_HW_SPI.c ****             break;
 636:Generated_Source\PSoC5/emFile_1_MMC_HW_SPI.c **** 
 637:Generated_Source\PSoC5/emFile_1_MMC_HW_SPI.c ****         #endif /* (emFile_1_NUMBER_SD_CARDS >= 3u) */
 638:Generated_Source\PSoC5/emFile_1_MMC_HW_SPI.c **** 
 639:Generated_Source\PSoC5/emFile_1_MMC_HW_SPI.c ****         #if (emFile_1_NUMBER_SD_CARDS == 4u)
 640:Generated_Source\PSoC5/emFile_1_MMC_HW_SPI.c **** 
 641:Generated_Source\PSoC5/emFile_1_MMC_HW_SPI.c ****         case 3u:
 642:Generated_Source\PSoC5/emFile_1_MMC_HW_SPI.c **** 
 643:Generated_Source\PSoC5/emFile_1_MMC_HW_SPI.c ****             emFile_1_Clock_4_Stop();
 644:Generated_Source\PSoC5/emFile_1_MMC_HW_SPI.c ****             emFile_1_Clock_4_SetDividerValue((U16)divResult);    /* update the frequency */
 645:Generated_Source\PSoC5/emFile_1_MMC_HW_SPI.c ****             emFile_1_Clock_4_Start();
 646:Generated_Source\PSoC5/emFile_1_MMC_HW_SPI.c ****             break;
 647:Generated_Source\PSoC5/emFile_1_MMC_HW_SPI.c **** 
 648:Generated_Source\PSoC5/emFile_1_MMC_HW_SPI.c ****         #endif /* (emFile_1_NUMBER_SD_CARDS == 4u) */
 649:Generated_Source\PSoC5/emFile_1_MMC_HW_SPI.c **** 
 650:Generated_Source\PSoC5/emFile_1_MMC_HW_SPI.c ****         default:
 651:Generated_Source\PSoC5/emFile_1_MMC_HW_SPI.c ****             emFile_1_Clock_1_Stop();
 197              		.loc 1 651 0
 198 0028 FFF7FEFF 		bl	emFile_1_Clock_1_Stop
 199              	.LVL24:
 652:Generated_Source\PSoC5/emFile_1_MMC_HW_SPI.c ****             emFile_1_Clock_1_SetDividerValue((U16)divResult);    /* update the frequency */
 200              		.loc 1 652 0
 201 002c A0B2     		uxth	r0, r4
ARM GAS  C:\Users\Nathan\AppData\Local\Temp\cchwyhCu.s 			page 16


 202 002e 0121     		movs	r1, #1
 203 0030 FFF7FEFF 		bl	emFile_1_Clock_1_SetDividerRegister
 204              	.LVL25:
 653:Generated_Source\PSoC5/emFile_1_MMC_HW_SPI.c ****             emFile_1_Clock_1_Start();
 205              		.loc 1 653 0
 206 0034 FFF7FEFF 		bl	emFile_1_Clock_1_Start
 207              	.LVL26:
 654:Generated_Source\PSoC5/emFile_1_MMC_HW_SPI.c ****             break;
 655:Generated_Source\PSoC5/emFile_1_MMC_HW_SPI.c ****     }
 656:Generated_Source\PSoC5/emFile_1_MMC_HW_SPI.c **** 
 657:Generated_Source\PSoC5/emFile_1_MMC_HW_SPI.c ****     return (MaxFreq);
 658:Generated_Source\PSoC5/emFile_1_MMC_HW_SPI.c **** 
 659:Generated_Source\PSoC5/emFile_1_MMC_HW_SPI.c **** }
 208              		.loc 1 659 0
 209 0038 2846     		mov	r0, r5
 210 003a 38BD     		pop	{r3, r4, r5, pc}
 211              		.cfi_endproc
 212              	.LFE68:
 213              		.size	FS_MMC_HW_X_SetMaxSpeed, .-FS_MMC_HW_X_SetMaxSpeed
 214              		.section	.text.FS_MMC_HW_X_SetVoltage,"ax",%progbits
 215              		.align	1
 216              		.global	FS_MMC_HW_X_SetVoltage
 217              		.thumb
 218              		.thumb_func
 219              		.type	FS_MMC_HW_X_SetVoltage, %function
 220              	FS_MMC_HW_X_SetVoltage:
 221              	.LFB69:
 660:Generated_Source\PSoC5/emFile_1_MMC_HW_SPI.c **** 
 661:Generated_Source\PSoC5/emFile_1_MMC_HW_SPI.c **** 
 662:Generated_Source\PSoC5/emFile_1_MMC_HW_SPI.c **** /*******************************************************************************
 663:Generated_Source\PSoC5/emFile_1_MMC_HW_SPI.c **** * Function Name: FS_MMC_HW_X_SetVoltage
 664:Generated_Source\PSoC5/emFile_1_MMC_HW_SPI.c **** ********************************************************************************
 665:Generated_Source\PSoC5/emFile_1_MMC_HW_SPI.c **** *
 666:Generated_Source\PSoC5/emFile_1_MMC_HW_SPI.c **** * Summary:
 667:Generated_Source\PSoC5/emFile_1_MMC_HW_SPI.c **** *  FS low level function. Be sure that your card slot si within the given
 668:Generated_Source\PSoC5/emFile_1_MMC_HW_SPI.c **** *  voltage range. Return 1 if your slot can support the required voltage,
 669:Generated_Source\PSoC5/emFile_1_MMC_HW_SPI.c **** *  and if not, return 0.
 670:Generated_Source\PSoC5/emFile_1_MMC_HW_SPI.c **** *
 671:Generated_Source\PSoC5/emFile_1_MMC_HW_SPI.c **** * Parameters:
 672:Generated_Source\PSoC5/emFile_1_MMC_HW_SPI.c **** *  Unit             - Device Index;
 673:Generated_Source\PSoC5/emFile_1_MMC_HW_SPI.c **** *  Vmin             - Minimum supply voltage in mV;
 674:Generated_Source\PSoC5/emFile_1_MMC_HW_SPI.c **** *  Vmin             - Maximum supply voltage in mV.
 675:Generated_Source\PSoC5/emFile_1_MMC_HW_SPI.c **** *
 676:Generated_Source\PSoC5/emFile_1_MMC_HW_SPI.c **** * Return:
 677:Generated_Source\PSoC5/emFile_1_MMC_HW_SPI.c **** *  1                - the card slot supports the voltage range;
 678:Generated_Source\PSoC5/emFile_1_MMC_HW_SPI.c **** *  0                - the card slot does not support the voltage range.
 679:Generated_Source\PSoC5/emFile_1_MMC_HW_SPI.c **** *
 680:Generated_Source\PSoC5/emFile_1_MMC_HW_SPI.c **** * Reentrant:
 681:Generated_Source\PSoC5/emFile_1_MMC_HW_SPI.c **** *  No
 682:Generated_Source\PSoC5/emFile_1_MMC_HW_SPI.c **** *
 683:Generated_Source\PSoC5/emFile_1_MMC_HW_SPI.c **** *******************************************************************************/
 684:Generated_Source\PSoC5/emFile_1_MMC_HW_SPI.c **** int FS_MMC_HW_X_SetVoltage(U8 Unit, U16 Vmin, U16 Vmax)
 685:Generated_Source\PSoC5/emFile_1_MMC_HW_SPI.c **** {
 222              		.loc 1 685 0
 223              		.cfi_startproc
 224              		@ args = 0, pretend = 0, frame = 0
 225              		@ frame_needed = 0, uses_anonymous_args = 0
ARM GAS  C:\Users\Nathan\AppData\Local\Temp\cchwyhCu.s 			page 17


 226              		@ link register save eliminated.
 227              	.LVL27:
 228 0000 40F6E443 		movw	r3, #3300
 686:Generated_Source\PSoC5/emFile_1_MMC_HW_SPI.c ****     int result;
 687:Generated_Source\PSoC5/emFile_1_MMC_HW_SPI.c **** 
 688:Generated_Source\PSoC5/emFile_1_MMC_HW_SPI.c ****     switch(Unit)
 689:Generated_Source\PSoC5/emFile_1_MMC_HW_SPI.c ****     {
 690:Generated_Source\PSoC5/emFile_1_MMC_HW_SPI.c ****     case 0u:
 691:Generated_Source\PSoC5/emFile_1_MMC_HW_SPI.c **** 
 692:Generated_Source\PSoC5/emFile_1_MMC_HW_SPI.c ****     case 1u:
 693:Generated_Source\PSoC5/emFile_1_MMC_HW_SPI.c **** 
 694:Generated_Source\PSoC5/emFile_1_MMC_HW_SPI.c ****     case 2u:
 695:Generated_Source\PSoC5/emFile_1_MMC_HW_SPI.c **** 
 696:Generated_Source\PSoC5/emFile_1_MMC_HW_SPI.c ****     case 3u:
 697:Generated_Source\PSoC5/emFile_1_MMC_HW_SPI.c **** 
 698:Generated_Source\PSoC5/emFile_1_MMC_HW_SPI.c ****         if((Vmin <= emFile_1_MMC_DEFAULT_SUPPLY_VOLTAGE) &&
 699:Generated_Source\PSoC5/emFile_1_MMC_HW_SPI.c ****             (emFile_1_MMC_DEFAULT_SUPPLY_VOLTAGE <= Vmax))
 700:Generated_Source\PSoC5/emFile_1_MMC_HW_SPI.c ****         {
 701:Generated_Source\PSoC5/emFile_1_MMC_HW_SPI.c ****             result = emFile_1_RET_SUCCCESS;
 702:Generated_Source\PSoC5/emFile_1_MMC_HW_SPI.c ****         }
 703:Generated_Source\PSoC5/emFile_1_MMC_HW_SPI.c ****         else
 704:Generated_Source\PSoC5/emFile_1_MMC_HW_SPI.c ****         {
 705:Generated_Source\PSoC5/emFile_1_MMC_HW_SPI.c ****             result = emFile_1_RET_FAIL;
 706:Generated_Source\PSoC5/emFile_1_MMC_HW_SPI.c ****         }
 707:Generated_Source\PSoC5/emFile_1_MMC_HW_SPI.c **** 
 708:Generated_Source\PSoC5/emFile_1_MMC_HW_SPI.c ****         break;
 709:Generated_Source\PSoC5/emFile_1_MMC_HW_SPI.c **** 
 710:Generated_Source\PSoC5/emFile_1_MMC_HW_SPI.c ****     default:
 711:Generated_Source\PSoC5/emFile_1_MMC_HW_SPI.c **** 
 712:Generated_Source\PSoC5/emFile_1_MMC_HW_SPI.c ****         if((Vmin <= emFile_1_MMC_DEFAULT_SUPPLY_VOLTAGE) &&
 229              		.loc 1 712 0
 230 0004 9942     		cmp	r1, r3
 231 0006 06D8     		bhi	.L35
 705:Generated_Source\PSoC5/emFile_1_MMC_HW_SPI.c ****         }
 232              		.loc 1 705 0 discriminator 1
 233 0008 40F6E340 		movw	r0, #3299
 234              	.LVL28:
 235 000c 8242     		cmp	r2, r0
 236 000e 94BF     		ite	ls
 237 0010 0020     		movls	r0, #0
 238 0012 0120     		movhi	r0, #1
 239 0014 7047     		bx	lr
 240              	.LVL29:
 241              	.L35:
 705:Generated_Source\PSoC5/emFile_1_MMC_HW_SPI.c ****         }
 242              		.loc 1 705 0 is_stmt 0
 243 0016 0020     		movs	r0, #0
 244              	.LVL30:
 713:Generated_Source\PSoC5/emFile_1_MMC_HW_SPI.c ****             (emFile_1_MMC_DEFAULT_SUPPLY_VOLTAGE <= Vmax))
 714:Generated_Source\PSoC5/emFile_1_MMC_HW_SPI.c ****         {
 715:Generated_Source\PSoC5/emFile_1_MMC_HW_SPI.c ****             result = emFile_1_RET_SUCCCESS;
 716:Generated_Source\PSoC5/emFile_1_MMC_HW_SPI.c ****         }
 717:Generated_Source\PSoC5/emFile_1_MMC_HW_SPI.c ****         else
 718:Generated_Source\PSoC5/emFile_1_MMC_HW_SPI.c ****         {
 719:Generated_Source\PSoC5/emFile_1_MMC_HW_SPI.c ****             result = emFile_1_RET_FAIL;
 720:Generated_Source\PSoC5/emFile_1_MMC_HW_SPI.c ****         }
 721:Generated_Source\PSoC5/emFile_1_MMC_HW_SPI.c ****         
ARM GAS  C:\Users\Nathan\AppData\Local\Temp\cchwyhCu.s 			page 18


 722:Generated_Source\PSoC5/emFile_1_MMC_HW_SPI.c ****         break;
 723:Generated_Source\PSoC5/emFile_1_MMC_HW_SPI.c ****     }
 724:Generated_Source\PSoC5/emFile_1_MMC_HW_SPI.c **** 
 725:Generated_Source\PSoC5/emFile_1_MMC_HW_SPI.c ****     return(result);
 726:Generated_Source\PSoC5/emFile_1_MMC_HW_SPI.c **** }
 245              		.loc 1 726 0 is_stmt 1
 246 0018 7047     		bx	lr
 247              		.cfi_endproc
 248              	.LFE69:
 249              		.size	FS_MMC_HW_X_SetVoltage, .-FS_MMC_HW_X_SetVoltage
 250              		.section	.text.FS_MMC_HW_X_IsPresent,"ax",%progbits
 251              		.align	1
 252              		.global	FS_MMC_HW_X_IsPresent
 253              		.thumb
 254              		.thumb_func
 255              		.type	FS_MMC_HW_X_IsPresent, %function
 256              	FS_MMC_HW_X_IsPresent:
 257              	.LFB70:
 727:Generated_Source\PSoC5/emFile_1_MMC_HW_SPI.c **** 
 728:Generated_Source\PSoC5/emFile_1_MMC_HW_SPI.c **** 
 729:Generated_Source\PSoC5/emFile_1_MMC_HW_SPI.c **** /*******************************************************************************
 730:Generated_Source\PSoC5/emFile_1_MMC_HW_SPI.c **** * Function Name: FS_MMC_HW_X_IsPresent
 731:Generated_Source\PSoC5/emFile_1_MMC_HW_SPI.c **** ********************************************************************************
 732:Generated_Source\PSoC5/emFile_1_MMC_HW_SPI.c **** *
 733:Generated_Source\PSoC5/emFile_1_MMC_HW_SPI.c **** * Summary:
 734:Generated_Source\PSoC5/emFile_1_MMC_HW_SPI.c **** *  Returns the state of the media. If you do not know the state, return
 735:Generated_Source\PSoC5/emFile_1_MMC_HW_SPI.c **** *  FS_MEDIA_STATE_UNKNOWN and the higher layer will try to figure out if
 736:Generated_Source\PSoC5/emFile_1_MMC_HW_SPI.c **** *  a media is present.
 737:Generated_Source\PSoC5/emFile_1_MMC_HW_SPI.c **** *
 738:Generated_Source\PSoC5/emFile_1_MMC_HW_SPI.c **** * Parameters:
 739:Generated_Source\PSoC5/emFile_1_MMC_HW_SPI.c **** *  Unit                      - Device Index.
 740:Generated_Source\PSoC5/emFile_1_MMC_HW_SPI.c **** *
 741:Generated_Source\PSoC5/emFile_1_MMC_HW_SPI.c **** * Return:
 742:Generated_Source\PSoC5/emFile_1_MMC_HW_SPI.c **** *  FS_MEDIA_STATE_UNKNOWN    - Media state is unknown;
 743:Generated_Source\PSoC5/emFile_1_MMC_HW_SPI.c **** *  FS_MEDIA_NOT_PRESENT      - Media is not present;
 744:Generated_Source\PSoC5/emFile_1_MMC_HW_SPI.c **** *  FS_MEDIA_IS_PRESENT       - Media is present.
 745:Generated_Source\PSoC5/emFile_1_MMC_HW_SPI.c **** *
 746:Generated_Source\PSoC5/emFile_1_MMC_HW_SPI.c **** * Reentrant:
 747:Generated_Source\PSoC5/emFile_1_MMC_HW_SPI.c **** *  No
 748:Generated_Source\PSoC5/emFile_1_MMC_HW_SPI.c **** *
 749:Generated_Source\PSoC5/emFile_1_MMC_HW_SPI.c **** *******************************************************************************/
 750:Generated_Source\PSoC5/emFile_1_MMC_HW_SPI.c **** int FS_MMC_HW_X_IsPresent(U8 Unit)
 751:Generated_Source\PSoC5/emFile_1_MMC_HW_SPI.c **** {
 258              		.loc 1 751 0
 259              		.cfi_startproc
 260              		@ args = 0, pretend = 0, frame = 0
 261              		@ frame_needed = 0, uses_anonymous_args = 0
 262              	.LVL31:
 263 0000 10B5     		push	{r4, lr}
 264              		.cfi_def_cfa_offset 8
 265              		.cfi_offset 4, -8
 266              		.cfi_offset 14, -4
 267 0002 084B     		ldr	r3, .L48
 268              	.LBB10:
 269              	.LBB11:
  81:Generated_Source\PSoC5/emFile_1_MMC_HW_SPI.c ****         {
 270              		.loc 1 81 0
ARM GAS  C:\Users\Nathan\AppData\Local\Temp\cchwyhCu.s 			page 19


 271 0004 1A78     		ldrb	r2, [r3]	@ zero_extendqisi2
 272 0006 5AB9     		cbnz	r2, .L41
  84:Generated_Source\PSoC5/emFile_1_MMC_HW_SPI.c **** 
 273              		.loc 1 84 0
 274 0008 0124     		movs	r4, #1
 275 000a 1C70     		strb	r4, [r3]
  89:Generated_Source\PSoC5/emFile_1_MMC_HW_SPI.c **** 
 276              		.loc 1 89 0
 277 000c FFF7FEFF 		bl	emFile_1_Clock_1_Stop
 278              	.LVL32:
  92:Generated_Source\PSoC5/emFile_1_MMC_HW_SPI.c **** 
 279              		.loc 1 92 0
 280 0010 2146     		mov	r1, r4
 281 0012 3B20     		movs	r0, #59
 282 0014 FFF7FEFF 		bl	emFile_1_Clock_1_SetDividerRegister
 283              	.LVL33:
  95:Generated_Source\PSoC5/emFile_1_MMC_HW_SPI.c **** 
 284              		.loc 1 95 0
 285 0018 FFF7FEFF 		bl	emFile_1_Clock_1_Start
 286              	.LVL34:
  98:Generated_Source\PSoC5/emFile_1_MMC_HW_SPI.c ****         }
 287              		.loc 1 98 0
 288 001c FFF7FEFF 		bl	emFile_1_SPI0_Start
 289              	.LVL35:
 290              	.L41:
 291              	.LBE11:
 292              	.LBE10:
 752:Generated_Source\PSoC5/emFile_1_MMC_HW_SPI.c ****      int result;
 753:Generated_Source\PSoC5/emFile_1_MMC_HW_SPI.c **** 
 754:Generated_Source\PSoC5/emFile_1_MMC_HW_SPI.c ****     emFile_1_Init(Unit);
 755:Generated_Source\PSoC5/emFile_1_MMC_HW_SPI.c **** 
 756:Generated_Source\PSoC5/emFile_1_MMC_HW_SPI.c ****     switch(Unit)
 757:Generated_Source\PSoC5/emFile_1_MMC_HW_SPI.c ****     {
 758:Generated_Source\PSoC5/emFile_1_MMC_HW_SPI.c ****     case 0u:
 759:Generated_Source\PSoC5/emFile_1_MMC_HW_SPI.c **** 
 760:Generated_Source\PSoC5/emFile_1_MMC_HW_SPI.c ****     case 1u:
 761:Generated_Source\PSoC5/emFile_1_MMC_HW_SPI.c **** 
 762:Generated_Source\PSoC5/emFile_1_MMC_HW_SPI.c ****     case 2u:
 763:Generated_Source\PSoC5/emFile_1_MMC_HW_SPI.c **** 
 764:Generated_Source\PSoC5/emFile_1_MMC_HW_SPI.c ****     case 3u:
 765:Generated_Source\PSoC5/emFile_1_MMC_HW_SPI.c **** 
 766:Generated_Source\PSoC5/emFile_1_MMC_HW_SPI.c ****         result = FS_MEDIA_STATE_UNKNOWN;
 767:Generated_Source\PSoC5/emFile_1_MMC_HW_SPI.c ****         break;
 768:Generated_Source\PSoC5/emFile_1_MMC_HW_SPI.c **** 
 769:Generated_Source\PSoC5/emFile_1_MMC_HW_SPI.c ****     default:
 770:Generated_Source\PSoC5/emFile_1_MMC_HW_SPI.c **** 
 771:Generated_Source\PSoC5/emFile_1_MMC_HW_SPI.c ****         result = FS_MEDIA_STATE_UNKNOWN;
 772:Generated_Source\PSoC5/emFile_1_MMC_HW_SPI.c ****         break;
 773:Generated_Source\PSoC5/emFile_1_MMC_HW_SPI.c ****     }
 774:Generated_Source\PSoC5/emFile_1_MMC_HW_SPI.c **** 
 775:Generated_Source\PSoC5/emFile_1_MMC_HW_SPI.c ****     return(result);
 776:Generated_Source\PSoC5/emFile_1_MMC_HW_SPI.c **** }
 293              		.loc 1 776 0
 294 0020 0220     		movs	r0, #2
 295 0022 10BD     		pop	{r4, pc}
 296              	.L49:
 297              		.align	2
ARM GAS  C:\Users\Nathan\AppData\Local\Temp\cchwyhCu.s 			page 20


 298              	.L48:
 299 0024 00000000 		.word	.LANCHOR0
 300              		.cfi_endproc
 301              	.LFE70:
 302              		.size	FS_MMC_HW_X_IsPresent, .-FS_MMC_HW_X_IsPresent
 303              		.section	.text.FS_MMC_HW_X_Read,"ax",%progbits
 304              		.align	1
 305              		.global	FS_MMC_HW_X_Read
 306              		.thumb
 307              		.thumb_func
 308              		.type	FS_MMC_HW_X_Read, %function
 309              	FS_MMC_HW_X_Read:
 310              	.LFB71:
 777:Generated_Source\PSoC5/emFile_1_MMC_HW_SPI.c **** 
 778:Generated_Source\PSoC5/emFile_1_MMC_HW_SPI.c **** 
 779:Generated_Source\PSoC5/emFile_1_MMC_HW_SPI.c **** /*******************************************************************************
 780:Generated_Source\PSoC5/emFile_1_MMC_HW_SPI.c **** * Function Name: FS_MMC_HW_X_Read
 781:Generated_Source\PSoC5/emFile_1_MMC_HW_SPI.c **** ********************************************************************************
 782:Generated_Source\PSoC5/emFile_1_MMC_HW_SPI.c **** *
 783:Generated_Source\PSoC5/emFile_1_MMC_HW_SPI.c **** * Summary:
 784:Generated_Source\PSoC5/emFile_1_MMC_HW_SPI.c **** *  FS low level function. Reads a specified number of bytes from MMC card to 
 785:Generated_Source\PSoC5/emFile_1_MMC_HW_SPI.c **** *  buffer.
 786:Generated_Source\PSoC5/emFile_1_MMC_HW_SPI.c **** *
 787:Generated_Source\PSoC5/emFile_1_MMC_HW_SPI.c **** * Parameters:
 788:Generated_Source\PSoC5/emFile_1_MMC_HW_SPI.c **** *    Unit             - Device Index;
 789:Generated_Source\PSoC5/emFile_1_MMC_HW_SPI.c **** *    pData            - Pointer to a data buffer;
 790:Generated_Source\PSoC5/emFile_1_MMC_HW_SPI.c **** *    NumBytes         - Number of bytes.
 791:Generated_Source\PSoC5/emFile_1_MMC_HW_SPI.c **** *
 792:Generated_Source\PSoC5/emFile_1_MMC_HW_SPI.c **** * Return:
 793:Generated_Source\PSoC5/emFile_1_MMC_HW_SPI.c **** *  None
 794:Generated_Source\PSoC5/emFile_1_MMC_HW_SPI.c **** *
 795:Generated_Source\PSoC5/emFile_1_MMC_HW_SPI.c **** * Reentrant:
 796:Generated_Source\PSoC5/emFile_1_MMC_HW_SPI.c **** *  No
 797:Generated_Source\PSoC5/emFile_1_MMC_HW_SPI.c **** *
 798:Generated_Source\PSoC5/emFile_1_MMC_HW_SPI.c **** *******************************************************************************/
 799:Generated_Source\PSoC5/emFile_1_MMC_HW_SPI.c **** #if (CY_PSOC5)
 800:Generated_Source\PSoC5/emFile_1_MMC_HW_SPI.c ****     void  FS_MMC_HW_X_Read (U8 Unit, U8 * pData, int NumBytes)
 801:Generated_Source\PSoC5/emFile_1_MMC_HW_SPI.c ****     {
 311              		.loc 1 801 0
 312              		.cfi_startproc
 313              		@ args = 0, pretend = 0, frame = 0
 314              		@ frame_needed = 0, uses_anonymous_args = 0
 315              	.LVL36:
 316 0000 F8B5     		push	{r3, r4, r5, r6, r7, lr}
 317              		.cfi_def_cfa_offset 24
 318              		.cfi_offset 3, -24
 319              		.cfi_offset 4, -20
 320              		.cfi_offset 5, -16
 321              		.cfi_offset 6, -12
 322              		.cfi_offset 7, -8
 323              		.cfi_offset 14, -4
 324              		.loc 1 801 0
 325 0002 0746     		mov	r7, r0
 326 0004 0D46     		mov	r5, r1
 327 0006 1646     		mov	r6, r2
 328 0008 0C46     		mov	r4, r1
 329              	.LVL37:
ARM GAS  C:\Users\Nathan\AppData\Local\Temp\cchwyhCu.s 			page 21


 330              	.L51:
 802:Generated_Source\PSoC5/emFile_1_MMC_HW_SPI.c ****         do
 803:Generated_Source\PSoC5/emFile_1_MMC_HW_SPI.c ****         {
 804:Generated_Source\PSoC5/emFile_1_MMC_HW_SPI.c ****             *pData++ = emFile_1_ReadWriteSPI(Unit, 0xff);
 331              		.loc 1 804 0 discriminator 1
 332 000a FF21     		movs	r1, #255
 333 000c 3846     		mov	r0, r7
 334 000e FFF7FEFF 		bl	emFile_1_ReadWriteSPI
 335              	.LVL38:
 336 0012 04F8010B 		strb	r0, [r4], #1
 337              	.LVL39:
 338 0016 331B     		subs	r3, r6, r4
 805:Generated_Source\PSoC5/emFile_1_MMC_HW_SPI.c ****         } while (--NumBytes);
 339              		.loc 1 805 0 discriminator 1
 340 0018 DD42     		cmn	r5, r3
 341 001a F6D1     		bne	.L51
 806:Generated_Source\PSoC5/emFile_1_MMC_HW_SPI.c ****     }
 342              		.loc 1 806 0
 343 001c F8BD     		pop	{r3, r4, r5, r6, r7, pc}
 344              		.cfi_endproc
 345              	.LFE71:
 346              		.size	FS_MMC_HW_X_Read, .-FS_MMC_HW_X_Read
 347              		.section	.text.FS_MMC_HW_X_Write,"ax",%progbits
 348              		.align	1
 349              		.global	FS_MMC_HW_X_Write
 350              		.thumb
 351              		.thumb_func
 352              		.type	FS_MMC_HW_X_Write, %function
 353              	FS_MMC_HW_X_Write:
 354              	.LFB72:
 807:Generated_Source\PSoC5/emFile_1_MMC_HW_SPI.c **** #else
 808:Generated_Source\PSoC5/emFile_1_MMC_HW_SPI.c ****     void  FS_MMC_HW_X_Read (U8 Unit, U8 xdata * pData, int NumBytes)
 809:Generated_Source\PSoC5/emFile_1_MMC_HW_SPI.c ****     {
 810:Generated_Source\PSoC5/emFile_1_MMC_HW_SPI.c ****         do
 811:Generated_Source\PSoC5/emFile_1_MMC_HW_SPI.c ****         {
 812:Generated_Source\PSoC5/emFile_1_MMC_HW_SPI.c ****             *pData++ = emFile_1_ReadWriteSPI(Unit, 0xff);
 813:Generated_Source\PSoC5/emFile_1_MMC_HW_SPI.c ****         } while (--NumBytes);
 814:Generated_Source\PSoC5/emFile_1_MMC_HW_SPI.c ****     }
 815:Generated_Source\PSoC5/emFile_1_MMC_HW_SPI.c **** #endif /* (CY_PSOC5) */
 816:Generated_Source\PSoC5/emFile_1_MMC_HW_SPI.c **** 
 817:Generated_Source\PSoC5/emFile_1_MMC_HW_SPI.c **** 
 818:Generated_Source\PSoC5/emFile_1_MMC_HW_SPI.c **** /*******************************************************************************
 819:Generated_Source\PSoC5/emFile_1_MMC_HW_SPI.c **** * Function Name: FS_MMC_HW_X_Write
 820:Generated_Source\PSoC5/emFile_1_MMC_HW_SPI.c **** ********************************************************************************
 821:Generated_Source\PSoC5/emFile_1_MMC_HW_SPI.c **** *
 822:Generated_Source\PSoC5/emFile_1_MMC_HW_SPI.c **** * Summary:
 823:Generated_Source\PSoC5/emFile_1_MMC_HW_SPI.c **** *  FS low level function. Writes a specified number of bytes from
 824:Generated_Source\PSoC5/emFile_1_MMC_HW_SPI.c **** *  data buffer to the MMC/SD card.
 825:Generated_Source\PSoC5/emFile_1_MMC_HW_SPI.c **** *
 826:Generated_Source\PSoC5/emFile_1_MMC_HW_SPI.c **** * Parameters:
 827:Generated_Source\PSoC5/emFile_1_MMC_HW_SPI.c **** *    Unit             - Device Index;
 828:Generated_Source\PSoC5/emFile_1_MMC_HW_SPI.c **** *    pData            - Pointer to a data buffer;
 829:Generated_Source\PSoC5/emFile_1_MMC_HW_SPI.c **** *    NumBytes         - Number of bytes.
 830:Generated_Source\PSoC5/emFile_1_MMC_HW_SPI.c **** *
 831:Generated_Source\PSoC5/emFile_1_MMC_HW_SPI.c **** * Return:
 832:Generated_Source\PSoC5/emFile_1_MMC_HW_SPI.c **** *  None
 833:Generated_Source\PSoC5/emFile_1_MMC_HW_SPI.c **** *
ARM GAS  C:\Users\Nathan\AppData\Local\Temp\cchwyhCu.s 			page 22


 834:Generated_Source\PSoC5/emFile_1_MMC_HW_SPI.c **** * Reentrant:
 835:Generated_Source\PSoC5/emFile_1_MMC_HW_SPI.c **** *  No
 836:Generated_Source\PSoC5/emFile_1_MMC_HW_SPI.c **** *
 837:Generated_Source\PSoC5/emFile_1_MMC_HW_SPI.c **** *******************************************************************************/
 838:Generated_Source\PSoC5/emFile_1_MMC_HW_SPI.c **** #if (CY_PSOC5)
 839:Generated_Source\PSoC5/emFile_1_MMC_HW_SPI.c ****     void  FS_MMC_HW_X_Write(U8 Unit, const U8 * pData, int NumBytes) 
 840:Generated_Source\PSoC5/emFile_1_MMC_HW_SPI.c ****     {
 355              		.loc 1 840 0
 356              		.cfi_startproc
 357              		@ args = 0, pretend = 0, frame = 0
 358              		@ frame_needed = 0, uses_anonymous_args = 0
 359              	.LVL40:
 360 0000 F8B5     		push	{r3, r4, r5, r6, r7, lr}
 361              		.cfi_def_cfa_offset 24
 362              		.cfi_offset 3, -24
 363              		.cfi_offset 4, -20
 364              		.cfi_offset 5, -16
 365              		.cfi_offset 6, -12
 366              		.cfi_offset 7, -8
 367              		.cfi_offset 14, -4
 368              		.loc 1 840 0
 369 0002 0746     		mov	r7, r0
 370 0004 0D46     		mov	r5, r1
 371 0006 1646     		mov	r6, r2
 372 0008 0C46     		mov	r4, r1
 373              	.LVL41:
 374              	.L54:
 841:Generated_Source\PSoC5/emFile_1_MMC_HW_SPI.c ****         do
 842:Generated_Source\PSoC5/emFile_1_MMC_HW_SPI.c ****         {
 843:Generated_Source\PSoC5/emFile_1_MMC_HW_SPI.c ****             emFile_1_ReadWriteSPI(Unit, *pData++);
 375              		.loc 1 843 0 discriminator 1
 376 000a 14F8011B 		ldrb	r1, [r4], #1	@ zero_extendqisi2
 377              	.LVL42:
 378 000e 3846     		mov	r0, r7
 379 0010 FFF7FEFF 		bl	emFile_1_ReadWriteSPI
 380              	.LVL43:
 381 0014 331B     		subs	r3, r6, r4
 844:Generated_Source\PSoC5/emFile_1_MMC_HW_SPI.c ****         } while (--NumBytes);
 382              		.loc 1 844 0 discriminator 1
 383 0016 DD42     		cmn	r5, r3
 384 0018 F7D1     		bne	.L54
 845:Generated_Source\PSoC5/emFile_1_MMC_HW_SPI.c ****     }
 385              		.loc 1 845 0
 386 001a F8BD     		pop	{r3, r4, r5, r6, r7, pc}
 387              		.cfi_endproc
 388              	.LFE72:
 389              		.size	FS_MMC_HW_X_Write, .-FS_MMC_HW_X_Write
 390              		.bss
 391              		.set	.LANCHOR0,. + 0
 392              		.type	emFile_1_isInited0, %object
 393              		.size	emFile_1_isInited0, 1
 394              	emFile_1_isInited0:
 395 0000 00       		.space	1
 396              		.text
 397              	.Letext0:
 398              		.file 2 "c:\\program files (x86)\\cypress\\psoc creator\\4.1\\psoc creator\\import\\gnu\\arm\\5.4.
 399              		.file 3 "c:\\program files (x86)\\cypress\\psoc creator\\4.1\\psoc creator\\import\\gnu\\arm\\5.4.
ARM GAS  C:\Users\Nathan\AppData\Local\Temp\cchwyhCu.s 			page 23


 400              		.file 4 "Generated_Source\\PSoC5/cytypes.h"
 401              		.file 5 "Generated_Source\\PSoC5\\emFile_1_SPI0.h"
 402              		.file 6 "Generated_Source\\PSoC5\\emFile_1_SPI0_CS.h"
 403              		.file 7 "Generated_Source\\PSoC5\\emFile_1_Clock_1.h"
 404              		.file 8 "Generated_Source\\PSoC5/core_cm3.h"