ARM GAS  C:\Users\Nathan\AppData\Local\Temp\cchbDz1b.s 			page 1


   1              		.syntax unified
   2              		.cpu cortex-m3
   3              		.fpu softvfp
   4              		.eabi_attribute 20, 1
   5              		.eabi_attribute 21, 1
   6              		.eabi_attribute 23, 3
   7              		.eabi_attribute 24, 1
   8              		.eabi_attribute 25, 1
   9              		.eabi_attribute 26, 1
  10              		.eabi_attribute 30, 4
  11              		.eabi_attribute 34, 1
  12              		.eabi_attribute 18, 4
  13              		.thumb
  14              		.syntax unified
  15              		.file	"I2C_Orientation_PM.c"
  16              		.text
  17              	.Ltext0:
  18              		.cfi_sections	.debug_frame
  19              		.section	.text.I2C_Orientation_SaveConfig,"ax",%progbits
  20              		.align	1
  21              		.global	I2C_Orientation_SaveConfig
  22              		.thumb
  23              		.thumb_func
  24              		.type	I2C_Orientation_SaveConfig, %function
  25              	I2C_Orientation_SaveConfig:
  26              	.LFB0:
  27              		.file 1 "Generated_Source\\PSoC5\\I2C_Orientation_PM.c"
   1:Generated_Source\PSoC5/I2C_Orientation_PM.c **** /*******************************************************************************
   2:Generated_Source\PSoC5/I2C_Orientation_PM.c **** * File Name: I2C_Orientation_PM.c
   3:Generated_Source\PSoC5/I2C_Orientation_PM.c **** * Version 3.50
   4:Generated_Source\PSoC5/I2C_Orientation_PM.c **** *
   5:Generated_Source\PSoC5/I2C_Orientation_PM.c **** * Description:
   6:Generated_Source\PSoC5/I2C_Orientation_PM.c **** *  This file provides low power mode APIs for the I2C component.
   7:Generated_Source\PSoC5/I2C_Orientation_PM.c **** *
   8:Generated_Source\PSoC5/I2C_Orientation_PM.c **** ********************************************************************************
   9:Generated_Source\PSoC5/I2C_Orientation_PM.c **** * Copyright 2008-2015, Cypress Semiconductor Corporation. All rights reserved.
  10:Generated_Source\PSoC5/I2C_Orientation_PM.c **** * You may use this file only in accordance with the license, terms, conditions,
  11:Generated_Source\PSoC5/I2C_Orientation_PM.c **** * disclaimers, and limitations in the end user license agreement accompanying
  12:Generated_Source\PSoC5/I2C_Orientation_PM.c **** * the software package with which this file was provided.
  13:Generated_Source\PSoC5/I2C_Orientation_PM.c **** *******************************************************************************/
  14:Generated_Source\PSoC5/I2C_Orientation_PM.c **** 
  15:Generated_Source\PSoC5/I2C_Orientation_PM.c **** #include "I2C_Orientation_PVT.h"
  16:Generated_Source\PSoC5/I2C_Orientation_PM.c **** 
  17:Generated_Source\PSoC5/I2C_Orientation_PM.c **** I2C_Orientation_BACKUP_STRUCT I2C_Orientation_backup =
  18:Generated_Source\PSoC5/I2C_Orientation_PM.c **** {
  19:Generated_Source\PSoC5/I2C_Orientation_PM.c ****     I2C_Orientation_DISABLE,
  20:Generated_Source\PSoC5/I2C_Orientation_PM.c **** 
  21:Generated_Source\PSoC5/I2C_Orientation_PM.c **** #if (I2C_Orientation_FF_IMPLEMENTED)
  22:Generated_Source\PSoC5/I2C_Orientation_PM.c ****     I2C_Orientation_DEFAULT_XCFG,
  23:Generated_Source\PSoC5/I2C_Orientation_PM.c ****     I2C_Orientation_DEFAULT_CFG,
  24:Generated_Source\PSoC5/I2C_Orientation_PM.c ****     I2C_Orientation_DEFAULT_ADDR,
  25:Generated_Source\PSoC5/I2C_Orientation_PM.c ****     LO8(I2C_Orientation_DEFAULT_DIVIDE_FACTOR),
  26:Generated_Source\PSoC5/I2C_Orientation_PM.c ****     HI8(I2C_Orientation_DEFAULT_DIVIDE_FACTOR),
  27:Generated_Source\PSoC5/I2C_Orientation_PM.c **** #else  /* (I2C_Orientation_UDB_IMPLEMENTED) */
  28:Generated_Source\PSoC5/I2C_Orientation_PM.c ****     I2C_Orientation_DEFAULT_CFG,
  29:Generated_Source\PSoC5/I2C_Orientation_PM.c **** #endif /* (I2C_Orientation_FF_IMPLEMENTED) */
  30:Generated_Source\PSoC5/I2C_Orientation_PM.c **** 
ARM GAS  C:\Users\Nathan\AppData\Local\Temp\cchbDz1b.s 			page 2


  31:Generated_Source\PSoC5/I2C_Orientation_PM.c **** #if (I2C_Orientation_TIMEOUT_ENABLED)
  32:Generated_Source\PSoC5/I2C_Orientation_PM.c ****     I2C_Orientation_DEFAULT_TMOUT_PERIOD,
  33:Generated_Source\PSoC5/I2C_Orientation_PM.c ****     I2C_Orientation_DEFAULT_TMOUT_INTR_MASK,
  34:Generated_Source\PSoC5/I2C_Orientation_PM.c **** #endif /* (I2C_Orientation_TIMEOUT_ENABLED) */
  35:Generated_Source\PSoC5/I2C_Orientation_PM.c **** };
  36:Generated_Source\PSoC5/I2C_Orientation_PM.c **** 
  37:Generated_Source\PSoC5/I2C_Orientation_PM.c **** #if ((I2C_Orientation_FF_IMPLEMENTED) && (I2C_Orientation_WAKEUP_ENABLED))
  38:Generated_Source\PSoC5/I2C_Orientation_PM.c ****     volatile uint8 I2C_Orientation_wakeupSource;
  39:Generated_Source\PSoC5/I2C_Orientation_PM.c **** #endif /* ((I2C_Orientation_FF_IMPLEMENTED) && (I2C_Orientation_WAKEUP_ENABLED)) */
  40:Generated_Source\PSoC5/I2C_Orientation_PM.c **** 
  41:Generated_Source\PSoC5/I2C_Orientation_PM.c **** 
  42:Generated_Source\PSoC5/I2C_Orientation_PM.c **** /*******************************************************************************
  43:Generated_Source\PSoC5/I2C_Orientation_PM.c **** * Function Name: I2C_Orientation_SaveConfig
  44:Generated_Source\PSoC5/I2C_Orientation_PM.c **** ********************************************************************************
  45:Generated_Source\PSoC5/I2C_Orientation_PM.c **** *
  46:Generated_Source\PSoC5/I2C_Orientation_PM.c **** * Summary:
  47:Generated_Source\PSoC5/I2C_Orientation_PM.c **** *  The Enable wakeup from Sleep Mode selection influences this function
  48:Generated_Source\PSoC5/I2C_Orientation_PM.c **** *  implementation:
  49:Generated_Source\PSoC5/I2C_Orientation_PM.c **** *   Unchecked: Stores the component non-retention configuration registers.
  50:Generated_Source\PSoC5/I2C_Orientation_PM.c **** *   Checked:   Disables the master, if it was enabled before, and enables
  51:Generated_Source\PSoC5/I2C_Orientation_PM.c **** *              backup regulator of the I2C hardware. If a transaction intended
  52:Generated_Source\PSoC5/I2C_Orientation_PM.c **** *              for component executes during this function call, it waits until
  53:Generated_Source\PSoC5/I2C_Orientation_PM.c **** *              the current transaction is completed and I2C hardware is ready
  54:Generated_Source\PSoC5/I2C_Orientation_PM.c **** *              to enter sleep mode. All subsequent I2C traffic is NAKed until
  55:Generated_Source\PSoC5/I2C_Orientation_PM.c **** *              the device is put into sleep mode.
  56:Generated_Source\PSoC5/I2C_Orientation_PM.c **** *
  57:Generated_Source\PSoC5/I2C_Orientation_PM.c **** * Parameters:
  58:Generated_Source\PSoC5/I2C_Orientation_PM.c **** *  None.
  59:Generated_Source\PSoC5/I2C_Orientation_PM.c **** *
  60:Generated_Source\PSoC5/I2C_Orientation_PM.c **** * Return:
  61:Generated_Source\PSoC5/I2C_Orientation_PM.c **** *  None.
  62:Generated_Source\PSoC5/I2C_Orientation_PM.c **** *
  63:Generated_Source\PSoC5/I2C_Orientation_PM.c **** * Global Variables:
  64:Generated_Source\PSoC5/I2C_Orientation_PM.c **** *  I2C_Orientation_backup - The global variable used to save the component
  65:Generated_Source\PSoC5/I2C_Orientation_PM.c **** *                            configuration and non-retention registers before
  66:Generated_Source\PSoC5/I2C_Orientation_PM.c **** *                            entering the sleep mode.
  67:Generated_Source\PSoC5/I2C_Orientation_PM.c **** *
  68:Generated_Source\PSoC5/I2C_Orientation_PM.c **** * Reentrant:
  69:Generated_Source\PSoC5/I2C_Orientation_PM.c **** *  No.
  70:Generated_Source\PSoC5/I2C_Orientation_PM.c **** *
  71:Generated_Source\PSoC5/I2C_Orientation_PM.c **** *******************************************************************************/
  72:Generated_Source\PSoC5/I2C_Orientation_PM.c **** void I2C_Orientation_SaveConfig(void) 
  73:Generated_Source\PSoC5/I2C_Orientation_PM.c **** {
  28              		.loc 1 73 0
  29              		.cfi_startproc
  30              		@ args = 0, pretend = 0, frame = 0
  31              		@ frame_needed = 0, uses_anonymous_args = 0
  32              		@ link register save eliminated.
  74:Generated_Source\PSoC5/I2C_Orientation_PM.c **** #if (I2C_Orientation_FF_IMPLEMENTED)
  75:Generated_Source\PSoC5/I2C_Orientation_PM.c ****     #if (I2C_Orientation_WAKEUP_ENABLED)
  76:Generated_Source\PSoC5/I2C_Orientation_PM.c ****         uint8 intState;
  77:Generated_Source\PSoC5/I2C_Orientation_PM.c ****     #endif /* (I2C_Orientation_WAKEUP_ENABLED) */
  78:Generated_Source\PSoC5/I2C_Orientation_PM.c **** 
  79:Generated_Source\PSoC5/I2C_Orientation_PM.c ****     /* Store registers before enter low power mode */
  80:Generated_Source\PSoC5/I2C_Orientation_PM.c ****     I2C_Orientation_backup.cfg     = I2C_Orientation_CFG_REG;
  33              		.loc 1 80 0
  34 0000 084B     		ldr	r3, .L2
ARM GAS  C:\Users\Nathan\AppData\Local\Temp\cchbDz1b.s 			page 3


  35 0002 1A78     		ldrb	r2, [r3]	@ zero_extendqisi2
  36 0004 084B     		ldr	r3, .L2+4
  37 0006 9A70     		strb	r2, [r3, #2]
  81:Generated_Source\PSoC5/I2C_Orientation_PM.c ****     I2C_Orientation_backup.xcfg    = I2C_Orientation_XCFG_REG;
  38              		.loc 1 81 0
  39 0008 084A     		ldr	r2, .L2+8
  40 000a 1278     		ldrb	r2, [r2]	@ zero_extendqisi2
  41 000c 5A70     		strb	r2, [r3, #1]
  82:Generated_Source\PSoC5/I2C_Orientation_PM.c ****     I2C_Orientation_backup.addr    = I2C_Orientation_ADDR_REG;
  42              		.loc 1 82 0
  43 000e 084A     		ldr	r2, .L2+12
  44 0010 1278     		ldrb	r2, [r2]	@ zero_extendqisi2
  45 0012 DA70     		strb	r2, [r3, #3]
  83:Generated_Source\PSoC5/I2C_Orientation_PM.c ****     I2C_Orientation_backup.clkDiv1 = I2C_Orientation_CLKDIV1_REG;
  46              		.loc 1 83 0
  47 0014 074A     		ldr	r2, .L2+16
  48 0016 1278     		ldrb	r2, [r2]	@ zero_extendqisi2
  49 0018 1A71     		strb	r2, [r3, #4]
  84:Generated_Source\PSoC5/I2C_Orientation_PM.c ****     I2C_Orientation_backup.clkDiv2 = I2C_Orientation_CLKDIV2_REG;
  50              		.loc 1 84 0
  51 001a 074A     		ldr	r2, .L2+20
  52 001c 1278     		ldrb	r2, [r2]	@ zero_extendqisi2
  53 001e 5A71     		strb	r2, [r3, #5]
  54 0020 7047     		bx	lr
  55              	.L3:
  56 0022 00BF     		.align	2
  57              	.L2:
  58 0024 D6490040 		.word	1073760726
  59 0028 00000000 		.word	.LANCHOR0
  60 002c C8490040 		.word	1073760712
  61 0030 CA490040 		.word	1073760714
  62 0034 DB490040 		.word	1073760731
  63 0038 DC490040 		.word	1073760732
  64              		.cfi_endproc
  65              	.LFE0:
  66              		.size	I2C_Orientation_SaveConfig, .-I2C_Orientation_SaveConfig
  67              		.section	.text.I2C_Orientation_Sleep,"ax",%progbits
  68              		.align	1
  69              		.global	I2C_Orientation_Sleep
  70              		.thumb
  71              		.thumb_func
  72              		.type	I2C_Orientation_Sleep, %function
  73              	I2C_Orientation_Sleep:
  74              	.LFB1:
  85:Generated_Source\PSoC5/I2C_Orientation_PM.c **** 
  86:Generated_Source\PSoC5/I2C_Orientation_PM.c **** #if (I2C_Orientation_WAKEUP_ENABLED)
  87:Generated_Source\PSoC5/I2C_Orientation_PM.c ****     /* Disable master */
  88:Generated_Source\PSoC5/I2C_Orientation_PM.c ****     I2C_Orientation_CFG_REG &= (uint8) ~I2C_Orientation_ENABLE_MASTER;
  89:Generated_Source\PSoC5/I2C_Orientation_PM.c **** 
  90:Generated_Source\PSoC5/I2C_Orientation_PM.c ****     /* Enable backup regulator to keep block powered in low power mode */
  91:Generated_Source\PSoC5/I2C_Orientation_PM.c ****     intState = CyEnterCriticalSection();
  92:Generated_Source\PSoC5/I2C_Orientation_PM.c ****     I2C_Orientation_PWRSYS_CR1_REG |= I2C_Orientation_PWRSYS_CR1_I2C_REG_BACKUP;
  93:Generated_Source\PSoC5/I2C_Orientation_PM.c ****     CyExitCriticalSection(intState);
  94:Generated_Source\PSoC5/I2C_Orientation_PM.c **** 
  95:Generated_Source\PSoC5/I2C_Orientation_PM.c ****     /* 1) Set force NACK to ignore I2C transactions;
  96:Generated_Source\PSoC5/I2C_Orientation_PM.c ****     *  2) Wait unti I2C is ready go to Sleep; !!
  97:Generated_Source\PSoC5/I2C_Orientation_PM.c ****     *  3) These bits are cleared on wake up.
ARM GAS  C:\Users\Nathan\AppData\Local\Temp\cchbDz1b.s 			page 4


  98:Generated_Source\PSoC5/I2C_Orientation_PM.c ****     */
  99:Generated_Source\PSoC5/I2C_Orientation_PM.c ****     /* Wait when block is ready for sleep */
 100:Generated_Source\PSoC5/I2C_Orientation_PM.c ****     I2C_Orientation_XCFG_REG |= I2C_Orientation_XCFG_FORCE_NACK;
 101:Generated_Source\PSoC5/I2C_Orientation_PM.c ****     while (0u == (I2C_Orientation_XCFG_REG & I2C_Orientation_XCFG_RDY_TO_SLEEP))
 102:Generated_Source\PSoC5/I2C_Orientation_PM.c ****     {
 103:Generated_Source\PSoC5/I2C_Orientation_PM.c ****     }
 104:Generated_Source\PSoC5/I2C_Orientation_PM.c **** 
 105:Generated_Source\PSoC5/I2C_Orientation_PM.c ****     /* Setup wakeup interrupt */
 106:Generated_Source\PSoC5/I2C_Orientation_PM.c ****     I2C_Orientation_DisableInt();
 107:Generated_Source\PSoC5/I2C_Orientation_PM.c ****     (void) CyIntSetVector(I2C_Orientation_ISR_NUMBER, &I2C_Orientation_WAKEUP_ISR);
 108:Generated_Source\PSoC5/I2C_Orientation_PM.c ****     I2C_Orientation_wakeupSource = 0u;
 109:Generated_Source\PSoC5/I2C_Orientation_PM.c ****     I2C_Orientation_EnableInt();
 110:Generated_Source\PSoC5/I2C_Orientation_PM.c **** #endif /* (I2C_Orientation_WAKEUP_ENABLED) */
 111:Generated_Source\PSoC5/I2C_Orientation_PM.c **** 
 112:Generated_Source\PSoC5/I2C_Orientation_PM.c **** #else
 113:Generated_Source\PSoC5/I2C_Orientation_PM.c ****     /* Store only address match bit */
 114:Generated_Source\PSoC5/I2C_Orientation_PM.c ****     I2C_Orientation_backup.control = (I2C_Orientation_CFG_REG & I2C_Orientation_CTRL_ANY_ADDRESS_MA
 115:Generated_Source\PSoC5/I2C_Orientation_PM.c **** #endif /* (I2C_Orientation_FF_IMPLEMENTED) */
 116:Generated_Source\PSoC5/I2C_Orientation_PM.c **** 
 117:Generated_Source\PSoC5/I2C_Orientation_PM.c **** #if (I2C_Orientation_TIMEOUT_ENABLED)
 118:Generated_Source\PSoC5/I2C_Orientation_PM.c ****     I2C_Orientation_TimeoutSaveConfig();
 119:Generated_Source\PSoC5/I2C_Orientation_PM.c **** #endif /* (I2C_Orientation_TIMEOUT_ENABLED) */
 120:Generated_Source\PSoC5/I2C_Orientation_PM.c **** }
 121:Generated_Source\PSoC5/I2C_Orientation_PM.c **** 
 122:Generated_Source\PSoC5/I2C_Orientation_PM.c **** 
 123:Generated_Source\PSoC5/I2C_Orientation_PM.c **** /*******************************************************************************
 124:Generated_Source\PSoC5/I2C_Orientation_PM.c **** * Function Name: I2C_Orientation_Sleep
 125:Generated_Source\PSoC5/I2C_Orientation_PM.c **** ********************************************************************************
 126:Generated_Source\PSoC5/I2C_Orientation_PM.c **** *
 127:Generated_Source\PSoC5/I2C_Orientation_PM.c **** * Summary:
 128:Generated_Source\PSoC5/I2C_Orientation_PM.c **** *  This is the preferred method to prepare the component before device enters
 129:Generated_Source\PSoC5/I2C_Orientation_PM.c **** *  sleep mode. The Enable wakeup from Sleep Mode selection influences this
 130:Generated_Source\PSoC5/I2C_Orientation_PM.c **** *  function implementation:
 131:Generated_Source\PSoC5/I2C_Orientation_PM.c **** *   Unchecked: Checks current I2C component state, saves it, and disables the
 132:Generated_Source\PSoC5/I2C_Orientation_PM.c **** *              component by calling I2C_Stop() if it is currently enabled.
 133:Generated_Source\PSoC5/I2C_Orientation_PM.c **** *              I2C_SaveConfig() is then called to save the component
 134:Generated_Source\PSoC5/I2C_Orientation_PM.c **** *              non-retention configuration registers.
 135:Generated_Source\PSoC5/I2C_Orientation_PM.c **** *   Checked:   If a transaction intended for component executes during this
 136:Generated_Source\PSoC5/I2C_Orientation_PM.c **** *              function call, it waits until the current transaction is
 137:Generated_Source\PSoC5/I2C_Orientation_PM.c **** *              completed. All subsequent I2C traffic intended for component
 138:Generated_Source\PSoC5/I2C_Orientation_PM.c **** *              is NAKed until the device is put to sleep mode. The address
 139:Generated_Source\PSoC5/I2C_Orientation_PM.c **** *              match event wakes up the device.
 140:Generated_Source\PSoC5/I2C_Orientation_PM.c **** *
 141:Generated_Source\PSoC5/I2C_Orientation_PM.c **** * Parameters:
 142:Generated_Source\PSoC5/I2C_Orientation_PM.c **** *  None.
 143:Generated_Source\PSoC5/I2C_Orientation_PM.c **** *
 144:Generated_Source\PSoC5/I2C_Orientation_PM.c **** * Return:
 145:Generated_Source\PSoC5/I2C_Orientation_PM.c **** *  None.
 146:Generated_Source\PSoC5/I2C_Orientation_PM.c **** *
 147:Generated_Source\PSoC5/I2C_Orientation_PM.c **** * Reentrant:
 148:Generated_Source\PSoC5/I2C_Orientation_PM.c **** *  No.
 149:Generated_Source\PSoC5/I2C_Orientation_PM.c **** *
 150:Generated_Source\PSoC5/I2C_Orientation_PM.c **** *******************************************************************************/
 151:Generated_Source\PSoC5/I2C_Orientation_PM.c **** void I2C_Orientation_Sleep(void) 
 152:Generated_Source\PSoC5/I2C_Orientation_PM.c **** {
  75              		.loc 1 152 0
  76              		.cfi_startproc
ARM GAS  C:\Users\Nathan\AppData\Local\Temp\cchbDz1b.s 			page 5


  77              		@ args = 0, pretend = 0, frame = 0
  78              		@ frame_needed = 0, uses_anonymous_args = 0
  79 0000 08B5     		push	{r3, lr}
  80              		.cfi_def_cfa_offset 8
  81              		.cfi_offset 3, -8
  82              		.cfi_offset 14, -4
 153:Generated_Source\PSoC5/I2C_Orientation_PM.c **** #if (I2C_Orientation_WAKEUP_ENABLED)
 154:Generated_Source\PSoC5/I2C_Orientation_PM.c ****     /* Do not enable block after exit low power mode if it is wakeup source */
 155:Generated_Source\PSoC5/I2C_Orientation_PM.c ****     I2C_Orientation_backup.enableState = I2C_Orientation_DISABLE;
 156:Generated_Source\PSoC5/I2C_Orientation_PM.c **** 
 157:Generated_Source\PSoC5/I2C_Orientation_PM.c ****     #if (I2C_Orientation_TIMEOUT_ENABLED)
 158:Generated_Source\PSoC5/I2C_Orientation_PM.c ****         I2C_Orientation_TimeoutStop();
 159:Generated_Source\PSoC5/I2C_Orientation_PM.c ****     #endif /* (I2C_Orientation_TIMEOUT_ENABLED) */
 160:Generated_Source\PSoC5/I2C_Orientation_PM.c **** 
 161:Generated_Source\PSoC5/I2C_Orientation_PM.c **** #else
 162:Generated_Source\PSoC5/I2C_Orientation_PM.c ****     /* Store enable state */
 163:Generated_Source\PSoC5/I2C_Orientation_PM.c ****     I2C_Orientation_backup.enableState = (uint8) I2C_Orientation_IS_ENABLED;
  83              		.loc 1 163 0
  84 0002 084B     		ldr	r3, .L10
  85 0004 1B78     		ldrb	r3, [r3]	@ zero_extendqisi2
  86 0006 03F00403 		and	r3, r3, #4
  87 000a 002B     		cmp	r3, #0
  88 000c 064B     		ldr	r3, .L10+4
  89 000e 14BF     		ite	ne
  90 0010 0122     		movne	r2, #1
  91 0012 0022     		moveq	r2, #0
  92 0014 1A70     		strb	r2, [r3]
 164:Generated_Source\PSoC5/I2C_Orientation_PM.c **** 
 165:Generated_Source\PSoC5/I2C_Orientation_PM.c ****     if (0u != I2C_Orientation_backup.enableState)
  93              		.loc 1 165 0
  94 0016 01D0     		beq	.L5
 166:Generated_Source\PSoC5/I2C_Orientation_PM.c ****     {
 167:Generated_Source\PSoC5/I2C_Orientation_PM.c ****         I2C_Orientation_Stop();
  95              		.loc 1 167 0
  96 0018 FFF7FEFF 		bl	I2C_Orientation_Stop
  97              	.LVL0:
  98              	.L5:
 168:Generated_Source\PSoC5/I2C_Orientation_PM.c ****     }
 169:Generated_Source\PSoC5/I2C_Orientation_PM.c **** #endif /* (I2C_Orientation_WAKEUP_ENABLED) */
 170:Generated_Source\PSoC5/I2C_Orientation_PM.c **** 
 171:Generated_Source\PSoC5/I2C_Orientation_PM.c ****     I2C_Orientation_SaveConfig();
 172:Generated_Source\PSoC5/I2C_Orientation_PM.c **** }
  99              		.loc 1 172 0
 100 001c BDE80840 		pop	{r3, lr}
 101              		.cfi_restore 14
 102              		.cfi_restore 3
 103              		.cfi_def_cfa_offset 0
 171:Generated_Source\PSoC5/I2C_Orientation_PM.c **** }
 104              		.loc 1 171 0
 105 0020 FFF7FEBF 		b	I2C_Orientation_SaveConfig
 106              	.LVL1:
 107              	.L11:
 108              		.align	2
 109              	.L10:
 110 0024 A5430040 		.word	1073759141
 111 0028 00000000 		.word	.LANCHOR0
 112              		.cfi_endproc
ARM GAS  C:\Users\Nathan\AppData\Local\Temp\cchbDz1b.s 			page 6


 113              	.LFE1:
 114              		.size	I2C_Orientation_Sleep, .-I2C_Orientation_Sleep
 115              		.section	.text.I2C_Orientation_RestoreConfig,"ax",%progbits
 116              		.align	1
 117              		.global	I2C_Orientation_RestoreConfig
 118              		.thumb
 119              		.thumb_func
 120              		.type	I2C_Orientation_RestoreConfig, %function
 121              	I2C_Orientation_RestoreConfig:
 122              	.LFB2:
 173:Generated_Source\PSoC5/I2C_Orientation_PM.c **** 
 174:Generated_Source\PSoC5/I2C_Orientation_PM.c **** 
 175:Generated_Source\PSoC5/I2C_Orientation_PM.c **** /*******************************************************************************
 176:Generated_Source\PSoC5/I2C_Orientation_PM.c **** * Function Name: I2C_Orientation_RestoreConfig
 177:Generated_Source\PSoC5/I2C_Orientation_PM.c **** ********************************************************************************
 178:Generated_Source\PSoC5/I2C_Orientation_PM.c **** *
 179:Generated_Source\PSoC5/I2C_Orientation_PM.c **** * Summary:
 180:Generated_Source\PSoC5/I2C_Orientation_PM.c **** *  The Enable wakeup from Sleep Mode selection influences this function
 181:Generated_Source\PSoC5/I2C_Orientation_PM.c **** *  implementation:
 182:Generated_Source\PSoC5/I2C_Orientation_PM.c **** *   Unchecked: Restores the component non-retention configuration registers
 183:Generated_Source\PSoC5/I2C_Orientation_PM.c **** *              to the state they were in before I2C_Sleep() or I2C_SaveConfig()
 184:Generated_Source\PSoC5/I2C_Orientation_PM.c **** *              was called.
 185:Generated_Source\PSoC5/I2C_Orientation_PM.c **** *   Checked:   Disables the backup regulator of the I2C hardware. Sets up the
 186:Generated_Source\PSoC5/I2C_Orientation_PM.c **** *              regular component interrupt handler and generates the component
 187:Generated_Source\PSoC5/I2C_Orientation_PM.c **** *              interrupt if it was wake up source to release the bus and
 188:Generated_Source\PSoC5/I2C_Orientation_PM.c **** *              continue in-coming I2C transaction.
 189:Generated_Source\PSoC5/I2C_Orientation_PM.c **** *
 190:Generated_Source\PSoC5/I2C_Orientation_PM.c **** * Parameters:
 191:Generated_Source\PSoC5/I2C_Orientation_PM.c **** *  None.
 192:Generated_Source\PSoC5/I2C_Orientation_PM.c **** *
 193:Generated_Source\PSoC5/I2C_Orientation_PM.c **** * Return:
 194:Generated_Source\PSoC5/I2C_Orientation_PM.c **** *  None.
 195:Generated_Source\PSoC5/I2C_Orientation_PM.c **** *
 196:Generated_Source\PSoC5/I2C_Orientation_PM.c **** * Global Variables:
 197:Generated_Source\PSoC5/I2C_Orientation_PM.c **** *  I2C_Orientation_backup - The global variable used to save the component
 198:Generated_Source\PSoC5/I2C_Orientation_PM.c **** *                            configuration and non-retention registers before
 199:Generated_Source\PSoC5/I2C_Orientation_PM.c **** *                            exiting the sleep mode.
 200:Generated_Source\PSoC5/I2C_Orientation_PM.c **** *
 201:Generated_Source\PSoC5/I2C_Orientation_PM.c **** * Reentrant:
 202:Generated_Source\PSoC5/I2C_Orientation_PM.c **** *  No.
 203:Generated_Source\PSoC5/I2C_Orientation_PM.c **** *
 204:Generated_Source\PSoC5/I2C_Orientation_PM.c **** * Side Effects:
 205:Generated_Source\PSoC5/I2C_Orientation_PM.c **** *  Calling this function before I2C_Orientation_SaveConfig() or
 206:Generated_Source\PSoC5/I2C_Orientation_PM.c **** *  I2C_Orientation_Sleep() will lead to unpredictable results.
 207:Generated_Source\PSoC5/I2C_Orientation_PM.c **** *
 208:Generated_Source\PSoC5/I2C_Orientation_PM.c **** *******************************************************************************/
 209:Generated_Source\PSoC5/I2C_Orientation_PM.c **** void I2C_Orientation_RestoreConfig(void) 
 210:Generated_Source\PSoC5/I2C_Orientation_PM.c **** {
 123              		.loc 1 210 0
 124              		.cfi_startproc
 125              		@ args = 0, pretend = 0, frame = 0
 126              		@ frame_needed = 0, uses_anonymous_args = 0
 127 0000 70B5     		push	{r4, r5, r6, lr}
 128              		.cfi_def_cfa_offset 16
 129              		.cfi_offset 4, -16
 130              		.cfi_offset 5, -12
 131              		.cfi_offset 6, -8
ARM GAS  C:\Users\Nathan\AppData\Local\Temp\cchbDz1b.s 			page 7


 132              		.cfi_offset 14, -4
 211:Generated_Source\PSoC5/I2C_Orientation_PM.c **** #if (I2C_Orientation_FF_IMPLEMENTED)
 212:Generated_Source\PSoC5/I2C_Orientation_PM.c ****     uint8 intState;
 213:Generated_Source\PSoC5/I2C_Orientation_PM.c **** 
 214:Generated_Source\PSoC5/I2C_Orientation_PM.c ****     if (I2C_Orientation_CHECK_PWRSYS_I2C_BACKUP)
 133              		.loc 1 214 0
 134 0002 0F4D     		ldr	r5, .L15
 135 0004 0F4C     		ldr	r4, .L15+4
 136 0006 2B78     		ldrb	r3, [r5]	@ zero_extendqisi2
 137 0008 0F4E     		ldr	r6, .L15+8
 138 000a 13F0040F 		tst	r3, #4
 139 000e 0AD0     		beq	.L13
 140              	.LBB4:
 141              	.LBB5:
 215:Generated_Source\PSoC5/I2C_Orientation_PM.c ****     /* Low power mode was Sleep - backup regulator is enabled */
 216:Generated_Source\PSoC5/I2C_Orientation_PM.c ****     {
 217:Generated_Source\PSoC5/I2C_Orientation_PM.c ****         /* Enable backup regulator in active mode */
 218:Generated_Source\PSoC5/I2C_Orientation_PM.c ****         intState = CyEnterCriticalSection();
 142              		.loc 1 218 0
 143 0010 FFF7FEFF 		bl	CyEnterCriticalSection
 144              	.LVL2:
 219:Generated_Source\PSoC5/I2C_Orientation_PM.c ****         I2C_Orientation_PWRSYS_CR1_REG &= (uint8) ~I2C_Orientation_PWRSYS_CR1_I2C_REG_BACKUP;
 145              		.loc 1 219 0
 146 0014 2B78     		ldrb	r3, [r5]	@ zero_extendqisi2
 147 0016 03F0FB03 		and	r3, r3, #251
 148 001a 2B70     		strb	r3, [r5]
 220:Generated_Source\PSoC5/I2C_Orientation_PM.c ****         CyExitCriticalSection(intState);
 149              		.loc 1 220 0
 150 001c FFF7FEFF 		bl	CyExitCriticalSection
 151              	.LVL3:
 221:Generated_Source\PSoC5/I2C_Orientation_PM.c **** 
 222:Generated_Source\PSoC5/I2C_Orientation_PM.c ****         /* Restore master */
 223:Generated_Source\PSoC5/I2C_Orientation_PM.c ****         I2C_Orientation_CFG_REG = I2C_Orientation_backup.cfg;
 152              		.loc 1 223 0
 153 0020 A378     		ldrb	r3, [r4, #2]	@ zero_extendqisi2
 154 0022 3370     		strb	r3, [r6]
 155 0024 70BD     		pop	{r4, r5, r6, pc}
 156              	.L13:
 157              	.LBE5:
 158              	.LBE4:
 224:Generated_Source\PSoC5/I2C_Orientation_PM.c ****     }
 225:Generated_Source\PSoC5/I2C_Orientation_PM.c ****     else
 226:Generated_Source\PSoC5/I2C_Orientation_PM.c ****     /* Low power mode was Hibernate - backup regulator is disabled. All registers are cleared */
 227:Generated_Source\PSoC5/I2C_Orientation_PM.c ****     {
 228:Generated_Source\PSoC5/I2C_Orientation_PM.c ****     #if (I2C_Orientation_WAKEUP_ENABLED)
 229:Generated_Source\PSoC5/I2C_Orientation_PM.c ****         /* Disable power to block before register restore */
 230:Generated_Source\PSoC5/I2C_Orientation_PM.c ****         intState = CyEnterCriticalSection();
 231:Generated_Source\PSoC5/I2C_Orientation_PM.c ****         I2C_Orientation_ACT_PWRMGR_REG  &= (uint8) ~I2C_Orientation_ACT_PWR_EN;
 232:Generated_Source\PSoC5/I2C_Orientation_PM.c ****         I2C_Orientation_STBY_PWRMGR_REG &= (uint8) ~I2C_Orientation_STBY_PWR_EN;
 233:Generated_Source\PSoC5/I2C_Orientation_PM.c ****         CyExitCriticalSection(intState);
 234:Generated_Source\PSoC5/I2C_Orientation_PM.c **** 
 235:Generated_Source\PSoC5/I2C_Orientation_PM.c ****         /* Enable component in I2C_Wakeup() after register restore */
 236:Generated_Source\PSoC5/I2C_Orientation_PM.c ****         I2C_Orientation_backup.enableState = I2C_Orientation_ENABLE;
 237:Generated_Source\PSoC5/I2C_Orientation_PM.c ****     #endif /* (I2C_Orientation_WAKEUP_ENABLED) */
 238:Generated_Source\PSoC5/I2C_Orientation_PM.c **** 
 239:Generated_Source\PSoC5/I2C_Orientation_PM.c ****         /* Restore component registers after Hibernate */
 240:Generated_Source\PSoC5/I2C_Orientation_PM.c ****         I2C_Orientation_XCFG_REG    = I2C_Orientation_backup.xcfg;
ARM GAS  C:\Users\Nathan\AppData\Local\Temp\cchbDz1b.s 			page 8


 159              		.loc 1 240 0
 160 0026 6278     		ldrb	r2, [r4, #1]	@ zero_extendqisi2
 161 0028 084B     		ldr	r3, .L15+12
 162 002a 1A70     		strb	r2, [r3]
 241:Generated_Source\PSoC5/I2C_Orientation_PM.c ****         I2C_Orientation_CFG_REG     = I2C_Orientation_backup.cfg;
 163              		.loc 1 241 0
 164 002c A378     		ldrb	r3, [r4, #2]	@ zero_extendqisi2
 165 002e 3370     		strb	r3, [r6]
 242:Generated_Source\PSoC5/I2C_Orientation_PM.c ****         I2C_Orientation_ADDR_REG    = I2C_Orientation_backup.addr;
 166              		.loc 1 242 0
 167 0030 E278     		ldrb	r2, [r4, #3]	@ zero_extendqisi2
 168 0032 074B     		ldr	r3, .L15+16
 169 0034 1A70     		strb	r2, [r3]
 243:Generated_Source\PSoC5/I2C_Orientation_PM.c ****         I2C_Orientation_CLKDIV1_REG = I2C_Orientation_backup.clkDiv1;
 170              		.loc 1 243 0
 171 0036 2279     		ldrb	r2, [r4, #4]	@ zero_extendqisi2
 172 0038 5A74     		strb	r2, [r3, #17]
 244:Generated_Source\PSoC5/I2C_Orientation_PM.c ****         I2C_Orientation_CLKDIV2_REG = I2C_Orientation_backup.clkDiv2;
 173              		.loc 1 244 0
 174 003a 6279     		ldrb	r2, [r4, #5]	@ zero_extendqisi2
 175 003c 9A74     		strb	r2, [r3, #18]
 176 003e 70BD     		pop	{r4, r5, r6, pc}
 177              	.L16:
 178              		.align	2
 179              	.L15:
 180 0040 31430040 		.word	1073759025
 181 0044 00000000 		.word	.LANCHOR0
 182 0048 D6490040 		.word	1073760726
 183 004c C8490040 		.word	1073760712
 184 0050 CA490040 		.word	1073760714
 185              		.cfi_endproc
 186              	.LFE2:
 187              		.size	I2C_Orientation_RestoreConfig, .-I2C_Orientation_RestoreConfig
 188              		.section	.text.I2C_Orientation_Wakeup,"ax",%progbits
 189              		.align	1
 190              		.global	I2C_Orientation_Wakeup
 191              		.thumb
 192              		.thumb_func
 193              		.type	I2C_Orientation_Wakeup, %function
 194              	I2C_Orientation_Wakeup:
 195              	.LFB3:
 245:Generated_Source\PSoC5/I2C_Orientation_PM.c ****     }
 246:Generated_Source\PSoC5/I2C_Orientation_PM.c **** 
 247:Generated_Source\PSoC5/I2C_Orientation_PM.c **** #if (I2C_Orientation_WAKEUP_ENABLED)
 248:Generated_Source\PSoC5/I2C_Orientation_PM.c ****     I2C_Orientation_DisableInt();
 249:Generated_Source\PSoC5/I2C_Orientation_PM.c ****     (void) CyIntSetVector(I2C_Orientation_ISR_NUMBER, &I2C_Orientation_ISR);
 250:Generated_Source\PSoC5/I2C_Orientation_PM.c ****     if (0u != I2C_Orientation_wakeupSource)
 251:Generated_Source\PSoC5/I2C_Orientation_PM.c ****     {
 252:Generated_Source\PSoC5/I2C_Orientation_PM.c ****         /* Generate interrupt to process incoming transaction */
 253:Generated_Source\PSoC5/I2C_Orientation_PM.c ****         I2C_Orientation_SetPendingInt();
 254:Generated_Source\PSoC5/I2C_Orientation_PM.c ****     }
 255:Generated_Source\PSoC5/I2C_Orientation_PM.c ****     I2C_Orientation_EnableInt();
 256:Generated_Source\PSoC5/I2C_Orientation_PM.c **** #endif /* (I2C_Orientation_WAKEUP_ENABLED) */
 257:Generated_Source\PSoC5/I2C_Orientation_PM.c **** 
 258:Generated_Source\PSoC5/I2C_Orientation_PM.c **** #else
 259:Generated_Source\PSoC5/I2C_Orientation_PM.c ****     I2C_Orientation_CFG_REG = I2C_Orientation_backup.control;
 260:Generated_Source\PSoC5/I2C_Orientation_PM.c **** #endif /* (I2C_Orientation_FF_IMPLEMENTED) */
ARM GAS  C:\Users\Nathan\AppData\Local\Temp\cchbDz1b.s 			page 9


 261:Generated_Source\PSoC5/I2C_Orientation_PM.c **** 
 262:Generated_Source\PSoC5/I2C_Orientation_PM.c **** #if (I2C_Orientation_TIMEOUT_ENABLED)
 263:Generated_Source\PSoC5/I2C_Orientation_PM.c ****     I2C_Orientation_TimeoutRestoreConfig();
 264:Generated_Source\PSoC5/I2C_Orientation_PM.c **** #endif /* (I2C_Orientation_TIMEOUT_ENABLED) */
 265:Generated_Source\PSoC5/I2C_Orientation_PM.c **** }
 266:Generated_Source\PSoC5/I2C_Orientation_PM.c **** 
 267:Generated_Source\PSoC5/I2C_Orientation_PM.c **** 
 268:Generated_Source\PSoC5/I2C_Orientation_PM.c **** /*******************************************************************************
 269:Generated_Source\PSoC5/I2C_Orientation_PM.c **** * Function Name: I2C_Orientation_Wakeup
 270:Generated_Source\PSoC5/I2C_Orientation_PM.c **** ********************************************************************************
 271:Generated_Source\PSoC5/I2C_Orientation_PM.c **** *
 272:Generated_Source\PSoC5/I2C_Orientation_PM.c **** * Summary:
 273:Generated_Source\PSoC5/I2C_Orientation_PM.c **** *  This is the preferred method to prepare the component for active mode
 274:Generated_Source\PSoC5/I2C_Orientation_PM.c **** *  operation (when device exits sleep mode). The Enable wakeup from Sleep Mode
 275:Generated_Source\PSoC5/I2C_Orientation_PM.c **** *  selection influences this function implementation:
 276:Generated_Source\PSoC5/I2C_Orientation_PM.c **** *   Unchecked: Restores the component non-retention configuration registers
 277:Generated_Source\PSoC5/I2C_Orientation_PM.c **** *              by calling I2C_RestoreConfig(). If the component was enabled
 278:Generated_Source\PSoC5/I2C_Orientation_PM.c **** *              before the I2C_Sleep() function was called, I2C_Wakeup()
 279:Generated_Source\PSoC5/I2C_Orientation_PM.c **** *              re-enables it.
 280:Generated_Source\PSoC5/I2C_Orientation_PM.c **** *   Checked:   Enables  master functionality if it was enabled before sleep,
 281:Generated_Source\PSoC5/I2C_Orientation_PM.c **** *              and disables the backup regulator of the I2C hardware.
 282:Generated_Source\PSoC5/I2C_Orientation_PM.c **** *              The incoming transaction continues as soon as the regular
 283:Generated_Source\PSoC5/I2C_Orientation_PM.c **** *              I2C interrupt handler is set up (global interrupts has to be
 284:Generated_Source\PSoC5/I2C_Orientation_PM.c **** *              enabled to service I2C component interrupt).
 285:Generated_Source\PSoC5/I2C_Orientation_PM.c **** *
 286:Generated_Source\PSoC5/I2C_Orientation_PM.c **** * Parameters:
 287:Generated_Source\PSoC5/I2C_Orientation_PM.c **** *  None.
 288:Generated_Source\PSoC5/I2C_Orientation_PM.c **** *
 289:Generated_Source\PSoC5/I2C_Orientation_PM.c **** * Return:
 290:Generated_Source\PSoC5/I2C_Orientation_PM.c **** *  None.
 291:Generated_Source\PSoC5/I2C_Orientation_PM.c **** *
 292:Generated_Source\PSoC5/I2C_Orientation_PM.c **** * Reentrant:
 293:Generated_Source\PSoC5/I2C_Orientation_PM.c **** *  No.
 294:Generated_Source\PSoC5/I2C_Orientation_PM.c **** *
 295:Generated_Source\PSoC5/I2C_Orientation_PM.c **** * Side Effects:
 296:Generated_Source\PSoC5/I2C_Orientation_PM.c **** *  Calling this function before I2C_Orientation_SaveConfig() or
 297:Generated_Source\PSoC5/I2C_Orientation_PM.c **** *  I2C_Orientation_Sleep() will lead to unpredictable results.
 298:Generated_Source\PSoC5/I2C_Orientation_PM.c **** *
 299:Generated_Source\PSoC5/I2C_Orientation_PM.c **** *******************************************************************************/
 300:Generated_Source\PSoC5/I2C_Orientation_PM.c **** void I2C_Orientation_Wakeup(void) 
 301:Generated_Source\PSoC5/I2C_Orientation_PM.c **** {
 196              		.loc 1 301 0
 197              		.cfi_startproc
 198              		@ args = 0, pretend = 0, frame = 0
 199              		@ frame_needed = 0, uses_anonymous_args = 0
 200 0000 08B5     		push	{r3, lr}
 201              		.cfi_def_cfa_offset 8
 202              		.cfi_offset 3, -8
 203              		.cfi_offset 14, -4
 302:Generated_Source\PSoC5/I2C_Orientation_PM.c ****     I2C_Orientation_RestoreConfig();
 204              		.loc 1 302 0
 205 0002 FFF7FEFF 		bl	I2C_Orientation_RestoreConfig
 206              	.LVL4:
 303:Generated_Source\PSoC5/I2C_Orientation_PM.c **** 
 304:Generated_Source\PSoC5/I2C_Orientation_PM.c ****     /* Restore component enable state */
 305:Generated_Source\PSoC5/I2C_Orientation_PM.c ****     if (0u != I2C_Orientation_backup.enableState)
 207              		.loc 1 305 0
ARM GAS  C:\Users\Nathan\AppData\Local\Temp\cchbDz1b.s 			page 10


 208 0006 054B     		ldr	r3, .L22
 209 0008 1B78     		ldrb	r3, [r3]	@ zero_extendqisi2
 210 000a 2BB1     		cbz	r3, .L17
 306:Generated_Source\PSoC5/I2C_Orientation_PM.c ****     {
 307:Generated_Source\PSoC5/I2C_Orientation_PM.c ****         I2C_Orientation_Enable();
 211              		.loc 1 307 0
 212 000c FFF7FEFF 		bl	I2C_Orientation_Enable
 213              	.LVL5:
 308:Generated_Source\PSoC5/I2C_Orientation_PM.c ****         I2C_Orientation_EnableInt();
 214              		.loc 1 308 0
 215 0010 034B     		ldr	r3, .L22+4
 216 0012 4FF40042 		mov	r2, #32768
 217 0016 1A60     		str	r2, [r3]
 218              	.L17:
 219 0018 08BD     		pop	{r3, pc}
 220              	.L23:
 221 001a 00BF     		.align	2
 222              	.L22:
 223 001c 00000000 		.word	.LANCHOR0
 224 0020 00E100E0 		.word	-536813312
 225              		.cfi_endproc
 226              	.LFE3:
 227              		.size	I2C_Orientation_Wakeup, .-I2C_Orientation_Wakeup
 228              		.global	I2C_Orientation_backup
 229              		.data
 230              		.set	.LANCHOR0,. + 0
 231              		.type	I2C_Orientation_backup, %object
 232              		.size	I2C_Orientation_backup, 6
 233              	I2C_Orientation_backup:
 234 0000 00       		.byte	0
 235 0001 81       		.byte	-127
 236 0002 02       		.byte	2
 237 0003 50       		.byte	80
 238 0004 02       		.byte	2
 239 0005 00       		.byte	0
 240              		.text
 241              	.Letext0:
 242              		.file 2 "Generated_Source\\PSoC5\\cytypes.h"
 243              		.file 3 "Generated_Source\\PSoC5\\I2C_Orientation.h"
 244              		.file 4 "Generated_Source\\PSoC5\\CyLib.h"