ARM GAS  C:\Users\Nathan\AppData\Local\Temp\cc6pza3q.s 			page 1


   1              		.syntax unified
   2              		.cpu cortex-m3
   3              		.fpu softvfp
   4              		.eabi_attribute 20, 1
   5              		.eabi_attribute 21, 1
   6              		.eabi_attribute 23, 3
   7              		.eabi_attribute 24, 1
   8              		.eabi_attribute 25, 1
   9              		.eabi_attribute 26, 1
  10              		.eabi_attribute 30, 4
  11              		.eabi_attribute 34, 1
  12              		.eabi_attribute 18, 4
  13              		.thumb
  14              		.syntax unified
  15              		.file	"I2C_Orientation.c"
  16              		.text
  17              	.Ltext0:
  18              		.cfi_sections	.debug_frame
  19              		.section	.text.I2C_Orientation_Init,"ax",%progbits
  20              		.align	1
  21              		.global	I2C_Orientation_Init
  22              		.thumb
  23              		.thumb_func
  24              		.type	I2C_Orientation_Init, %function
  25              	I2C_Orientation_Init:
  26              	.LFB0:
  27              		.file 1 "Generated_Source\\PSoC5\\I2C_Orientation.c"
   1:Generated_Source\PSoC5/I2C_Orientation.c **** /*******************************************************************************
   2:Generated_Source\PSoC5/I2C_Orientation.c **** * File Name: I2C_Orientation.c
   3:Generated_Source\PSoC5/I2C_Orientation.c **** * Version 3.50
   4:Generated_Source\PSoC5/I2C_Orientation.c **** *
   5:Generated_Source\PSoC5/I2C_Orientation.c **** * Description:
   6:Generated_Source\PSoC5/I2C_Orientation.c **** *  This file provides the source code of APIs for the I2C component.
   7:Generated_Source\PSoC5/I2C_Orientation.c **** *  The actual protocol and operation code resides in the interrupt service
   8:Generated_Source\PSoC5/I2C_Orientation.c **** *  routine file.
   9:Generated_Source\PSoC5/I2C_Orientation.c **** *
  10:Generated_Source\PSoC5/I2C_Orientation.c **** *******************************************************************************
  11:Generated_Source\PSoC5/I2C_Orientation.c **** * Copyright 2008-2015, Cypress Semiconductor Corporation. All rights reserved.
  12:Generated_Source\PSoC5/I2C_Orientation.c **** * You may use this file only in accordance with the license, terms, conditions,
  13:Generated_Source\PSoC5/I2C_Orientation.c **** * disclaimers, and limitations in the end user license agreement accompanying
  14:Generated_Source\PSoC5/I2C_Orientation.c **** * the software package with which this file was provided.
  15:Generated_Source\PSoC5/I2C_Orientation.c **** *******************************************************************************/
  16:Generated_Source\PSoC5/I2C_Orientation.c **** 
  17:Generated_Source\PSoC5/I2C_Orientation.c **** #include "I2C_Orientation_PVT.h"
  18:Generated_Source\PSoC5/I2C_Orientation.c **** 
  19:Generated_Source\PSoC5/I2C_Orientation.c **** 
  20:Generated_Source\PSoC5/I2C_Orientation.c **** /**********************************
  21:Generated_Source\PSoC5/I2C_Orientation.c **** *      System variables
  22:Generated_Source\PSoC5/I2C_Orientation.c **** **********************************/
  23:Generated_Source\PSoC5/I2C_Orientation.c **** 
  24:Generated_Source\PSoC5/I2C_Orientation.c **** uint8 I2C_Orientation_initVar = 0u; /* Defines if component was initialized */
  25:Generated_Source\PSoC5/I2C_Orientation.c **** 
  26:Generated_Source\PSoC5/I2C_Orientation.c **** volatile uint8 I2C_Orientation_state;  /* Current state of I2C FSM */
  27:Generated_Source\PSoC5/I2C_Orientation.c **** 
  28:Generated_Source\PSoC5/I2C_Orientation.c **** 
  29:Generated_Source\PSoC5/I2C_Orientation.c **** /*******************************************************************************
  30:Generated_Source\PSoC5/I2C_Orientation.c **** * Function Name: I2C_Orientation_Init
ARM GAS  C:\Users\Nathan\AppData\Local\Temp\cc6pza3q.s 			page 2


  31:Generated_Source\PSoC5/I2C_Orientation.c **** ********************************************************************************
  32:Generated_Source\PSoC5/I2C_Orientation.c **** *
  33:Generated_Source\PSoC5/I2C_Orientation.c **** * Summary:
  34:Generated_Source\PSoC5/I2C_Orientation.c **** *  Initializes I2C registers with initial values provided from customizer.
  35:Generated_Source\PSoC5/I2C_Orientation.c **** *
  36:Generated_Source\PSoC5/I2C_Orientation.c **** * Parameters:
  37:Generated_Source\PSoC5/I2C_Orientation.c **** *  None.
  38:Generated_Source\PSoC5/I2C_Orientation.c **** *
  39:Generated_Source\PSoC5/I2C_Orientation.c **** * Return:
  40:Generated_Source\PSoC5/I2C_Orientation.c **** *  None.
  41:Generated_Source\PSoC5/I2C_Orientation.c **** *
  42:Generated_Source\PSoC5/I2C_Orientation.c **** * Global variables:
  43:Generated_Source\PSoC5/I2C_Orientation.c **** *  None.
  44:Generated_Source\PSoC5/I2C_Orientation.c **** *
  45:Generated_Source\PSoC5/I2C_Orientation.c **** * Reentrant:
  46:Generated_Source\PSoC5/I2C_Orientation.c **** *  No.
  47:Generated_Source\PSoC5/I2C_Orientation.c **** *
  48:Generated_Source\PSoC5/I2C_Orientation.c **** *******************************************************************************/
  49:Generated_Source\PSoC5/I2C_Orientation.c **** void I2C_Orientation_Init(void) 
  50:Generated_Source\PSoC5/I2C_Orientation.c **** {
  28              		.loc 1 50 0
  29              		.cfi_startproc
  30              		@ args = 0, pretend = 0, frame = 0
  31              		@ frame_needed = 0, uses_anonymous_args = 0
  51:Generated_Source\PSoC5/I2C_Orientation.c **** #if (I2C_Orientation_FF_IMPLEMENTED)
  52:Generated_Source\PSoC5/I2C_Orientation.c ****     /* Configure fixed function block */
  53:Generated_Source\PSoC5/I2C_Orientation.c ****     I2C_Orientation_CFG_REG  = I2C_Orientation_DEFAULT_CFG;
  32              		.loc 1 53 0
  33 0000 114A     		ldr	r2, .L2
  34 0002 0223     		movs	r3, #2
  54:Generated_Source\PSoC5/I2C_Orientation.c ****     I2C_Orientation_XCFG_REG = I2C_Orientation_DEFAULT_XCFG;
  35              		.loc 1 54 0
  36 0004 8121     		movs	r1, #129
  50:Generated_Source\PSoC5/I2C_Orientation.c **** #if (I2C_Orientation_FF_IMPLEMENTED)
  37              		.loc 1 50 0
  38 0006 10B5     		push	{r4, lr}
  39              		.cfi_def_cfa_offset 8
  40              		.cfi_offset 4, -8
  41              		.cfi_offset 14, -4
  53:Generated_Source\PSoC5/I2C_Orientation.c ****     I2C_Orientation_XCFG_REG = I2C_Orientation_DEFAULT_XCFG;
  42              		.loc 1 53 0
  43 0008 1370     		strb	r3, [r2]
  44              		.loc 1 54 0
  45 000a 02F80E1C 		strb	r1, [r2, #-14]
  55:Generated_Source\PSoC5/I2C_Orientation.c ****     I2C_Orientation_ADDR_REG = I2C_Orientation_DEFAULT_ADDR;
  46              		.loc 1 55 0
  47 000e 5021     		movs	r1, #80
  48 0010 02F80C1C 		strb	r1, [r2, #-12]
  56:Generated_Source\PSoC5/I2C_Orientation.c ****     I2C_Orientation_CLKDIV1_REG = LO8(I2C_Orientation_DEFAULT_DIVIDE_FACTOR);
  49              		.loc 1 56 0
  50 0014 5371     		strb	r3, [r2, #5]
  57:Generated_Source\PSoC5/I2C_Orientation.c ****     I2C_Orientation_CLKDIV2_REG = HI8(I2C_Orientation_DEFAULT_DIVIDE_FACTOR);
  51              		.loc 1 57 0
  52 0016 0D4B     		ldr	r3, .L2+4
  53 0018 0024     		movs	r4, #0
  54 001a 1C70     		strb	r4, [r3]
  58:Generated_Source\PSoC5/I2C_Orientation.c **** 
ARM GAS  C:\Users\Nathan\AppData\Local\Temp\cc6pza3q.s 			page 3


  59:Generated_Source\PSoC5/I2C_Orientation.c **** #else
  60:Generated_Source\PSoC5/I2C_Orientation.c ****     uint8 intState;
  61:Generated_Source\PSoC5/I2C_Orientation.c **** 
  62:Generated_Source\PSoC5/I2C_Orientation.c ****     /* Configure control and interrupt sources */
  63:Generated_Source\PSoC5/I2C_Orientation.c ****     I2C_Orientation_CFG_REG      = I2C_Orientation_DEFAULT_CFG;
  64:Generated_Source\PSoC5/I2C_Orientation.c ****     I2C_Orientation_INT_MASK_REG = I2C_Orientation_DEFAULT_INT_MASK;
  65:Generated_Source\PSoC5/I2C_Orientation.c **** 
  66:Generated_Source\PSoC5/I2C_Orientation.c ****     /* Enable interrupt generation in status */
  67:Generated_Source\PSoC5/I2C_Orientation.c ****     intState = CyEnterCriticalSection();
  68:Generated_Source\PSoC5/I2C_Orientation.c ****     I2C_Orientation_INT_ENABLE_REG |= I2C_Orientation_INTR_ENABLE;
  69:Generated_Source\PSoC5/I2C_Orientation.c ****     CyExitCriticalSection(intState);
  70:Generated_Source\PSoC5/I2C_Orientation.c **** 
  71:Generated_Source\PSoC5/I2C_Orientation.c ****     /* Configure bit counter */
  72:Generated_Source\PSoC5/I2C_Orientation.c ****     #if (I2C_Orientation_MODE_SLAVE_ENABLED)
  73:Generated_Source\PSoC5/I2C_Orientation.c ****         I2C_Orientation_PERIOD_REG = I2C_Orientation_DEFAULT_PERIOD;
  74:Generated_Source\PSoC5/I2C_Orientation.c ****     #endif  /* (I2C_Orientation_MODE_SLAVE_ENABLED) */
  75:Generated_Source\PSoC5/I2C_Orientation.c **** 
  76:Generated_Source\PSoC5/I2C_Orientation.c ****     /* Configure clock generator */
  77:Generated_Source\PSoC5/I2C_Orientation.c ****     #if (I2C_Orientation_MODE_MASTER_ENABLED)
  78:Generated_Source\PSoC5/I2C_Orientation.c ****         I2C_Orientation_MCLK_PRD_REG = I2C_Orientation_DEFAULT_MCLK_PRD;
  79:Generated_Source\PSoC5/I2C_Orientation.c ****         I2C_Orientation_MCLK_CMP_REG = I2C_Orientation_DEFAULT_MCLK_CMP;
  80:Generated_Source\PSoC5/I2C_Orientation.c ****     #endif /* (I2C_Orientation_MODE_MASTER_ENABLED) */
  81:Generated_Source\PSoC5/I2C_Orientation.c **** #endif /* (I2C_Orientation_FF_IMPLEMENTED) */
  82:Generated_Source\PSoC5/I2C_Orientation.c **** 
  83:Generated_Source\PSoC5/I2C_Orientation.c **** #if (I2C_Orientation_TIMEOUT_ENABLED)
  84:Generated_Source\PSoC5/I2C_Orientation.c ****     I2C_Orientation_TimeoutInit();
  85:Generated_Source\PSoC5/I2C_Orientation.c **** #endif /* (I2C_Orientation_TIMEOUT_ENABLED) */
  86:Generated_Source\PSoC5/I2C_Orientation.c **** 
  87:Generated_Source\PSoC5/I2C_Orientation.c ****     /* Configure internal interrupt */
  88:Generated_Source\PSoC5/I2C_Orientation.c ****     CyIntDisable    (I2C_Orientation_ISR_NUMBER);
  55              		.loc 1 88 0
  56 001c 0C4B     		ldr	r3, .L2+8
  57 001e 4FF40042 		mov	r2, #32768
  58 0022 1A60     		str	r2, [r3]
  89:Generated_Source\PSoC5/I2C_Orientation.c ****     CyIntSetPriority(I2C_Orientation_ISR_NUMBER, I2C_Orientation_ISR_PRIORITY);
  59              		.loc 1 89 0
  60 0024 0721     		movs	r1, #7
  61 0026 0F20     		movs	r0, #15
  62 0028 FFF7FEFF 		bl	CyIntSetPriority
  63              	.LVL0:
  90:Generated_Source\PSoC5/I2C_Orientation.c ****     #if (I2C_Orientation_INTERN_I2C_INTR_HANDLER)
  91:Generated_Source\PSoC5/I2C_Orientation.c ****         (void) CyIntSetVector(I2C_Orientation_ISR_NUMBER, &I2C_Orientation_ISR);
  64              		.loc 1 91 0
  65 002c 0949     		ldr	r1, .L2+12
  66 002e 0F20     		movs	r0, #15
  67 0030 FFF7FEFF 		bl	CyIntSetVector
  68              	.LVL1:
  92:Generated_Source\PSoC5/I2C_Orientation.c ****     #endif /* (I2C_Orientation_INTERN_I2C_INTR_HANDLER) */
  93:Generated_Source\PSoC5/I2C_Orientation.c **** 
  94:Generated_Source\PSoC5/I2C_Orientation.c ****     /* Set FSM to default state */
  95:Generated_Source\PSoC5/I2C_Orientation.c ****     I2C_Orientation_state = I2C_Orientation_SM_IDLE;
  69              		.loc 1 95 0
  70 0034 084B     		ldr	r3, .L2+16
  71 0036 1022     		movs	r2, #16
  72 0038 1A70     		strb	r2, [r3]
  96:Generated_Source\PSoC5/I2C_Orientation.c **** 
  97:Generated_Source\PSoC5/I2C_Orientation.c **** #if (I2C_Orientation_MODE_SLAVE_ENABLED)
ARM GAS  C:\Users\Nathan\AppData\Local\Temp\cc6pza3q.s 			page 4


  98:Generated_Source\PSoC5/I2C_Orientation.c ****     /* Clear status and buffers index */
  99:Generated_Source\PSoC5/I2C_Orientation.c ****     I2C_Orientation_slStatus = 0u;
 100:Generated_Source\PSoC5/I2C_Orientation.c ****     I2C_Orientation_slRdBufIndex = 0u;
 101:Generated_Source\PSoC5/I2C_Orientation.c ****     I2C_Orientation_slWrBufIndex = 0u;
 102:Generated_Source\PSoC5/I2C_Orientation.c **** 
 103:Generated_Source\PSoC5/I2C_Orientation.c ****     /* Configure matched address */
 104:Generated_Source\PSoC5/I2C_Orientation.c ****     I2C_Orientation_SlaveSetAddress(I2C_Orientation_DEFAULT_ADDR);
 105:Generated_Source\PSoC5/I2C_Orientation.c **** #endif /* (I2C_Orientation_MODE_SLAVE_ENABLED) */
 106:Generated_Source\PSoC5/I2C_Orientation.c **** 
 107:Generated_Source\PSoC5/I2C_Orientation.c **** #if (I2C_Orientation_MODE_MASTER_ENABLED)
 108:Generated_Source\PSoC5/I2C_Orientation.c ****     /* Clear status and buffers index */
 109:Generated_Source\PSoC5/I2C_Orientation.c ****     I2C_Orientation_mstrStatus = 0u;
  73              		.loc 1 109 0
  74 003a 084B     		ldr	r3, .L2+20
  75 003c 1C70     		strb	r4, [r3]
 110:Generated_Source\PSoC5/I2C_Orientation.c ****     I2C_Orientation_mstrRdBufIndex = 0u;
  76              		.loc 1 110 0
  77 003e 084B     		ldr	r3, .L2+24
  78 0040 1C70     		strb	r4, [r3]
 111:Generated_Source\PSoC5/I2C_Orientation.c ****     I2C_Orientation_mstrWrBufIndex = 0u;
  79              		.loc 1 111 0
  80 0042 084B     		ldr	r3, .L2+28
  81 0044 1C70     		strb	r4, [r3]
  82 0046 10BD     		pop	{r4, pc}
  83              	.L3:
  84              		.align	2
  85              	.L2:
  86 0048 D6490040 		.word	1073760726
  87 004c DC490040 		.word	1073760732
  88 0050 80E100E0 		.word	-536813184
  89 0054 00000000 		.word	I2C_Orientation_ISR
  90 0058 00000000 		.word	I2C_Orientation_state
  91 005c 00000000 		.word	I2C_Orientation_mstrStatus
  92 0060 00000000 		.word	I2C_Orientation_mstrRdBufIndex
  93 0064 00000000 		.word	I2C_Orientation_mstrWrBufIndex
  94              		.cfi_endproc
  95              	.LFE0:
  96              		.size	I2C_Orientation_Init, .-I2C_Orientation_Init
  97              		.section	.text.I2C_Orientation_Enable,"ax",%progbits
  98              		.align	1
  99              		.global	I2C_Orientation_Enable
 100              		.thumb
 101              		.thumb_func
 102              		.type	I2C_Orientation_Enable, %function
 103              	I2C_Orientation_Enable:
 104              	.LFB1:
 112:Generated_Source\PSoC5/I2C_Orientation.c **** #endif /* (I2C_Orientation_MODE_MASTER_ENABLED) */
 113:Generated_Source\PSoC5/I2C_Orientation.c **** }
 114:Generated_Source\PSoC5/I2C_Orientation.c **** 
 115:Generated_Source\PSoC5/I2C_Orientation.c **** 
 116:Generated_Source\PSoC5/I2C_Orientation.c **** /*******************************************************************************
 117:Generated_Source\PSoC5/I2C_Orientation.c **** * Function Name: I2C_Orientation_Enable
 118:Generated_Source\PSoC5/I2C_Orientation.c **** ********************************************************************************
 119:Generated_Source\PSoC5/I2C_Orientation.c **** *
 120:Generated_Source\PSoC5/I2C_Orientation.c **** * Summary:
 121:Generated_Source\PSoC5/I2C_Orientation.c **** *  Enables I2C operations.
 122:Generated_Source\PSoC5/I2C_Orientation.c **** *
ARM GAS  C:\Users\Nathan\AppData\Local\Temp\cc6pza3q.s 			page 5


 123:Generated_Source\PSoC5/I2C_Orientation.c **** * Parameters:
 124:Generated_Source\PSoC5/I2C_Orientation.c **** *  None.
 125:Generated_Source\PSoC5/I2C_Orientation.c **** *
 126:Generated_Source\PSoC5/I2C_Orientation.c **** * Return:
 127:Generated_Source\PSoC5/I2C_Orientation.c **** *  None.
 128:Generated_Source\PSoC5/I2C_Orientation.c **** *
 129:Generated_Source\PSoC5/I2C_Orientation.c **** * Global variables:
 130:Generated_Source\PSoC5/I2C_Orientation.c **** *  None.
 131:Generated_Source\PSoC5/I2C_Orientation.c **** *
 132:Generated_Source\PSoC5/I2C_Orientation.c **** *******************************************************************************/
 133:Generated_Source\PSoC5/I2C_Orientation.c **** void I2C_Orientation_Enable(void) 
 134:Generated_Source\PSoC5/I2C_Orientation.c **** {
 105              		.loc 1 134 0
 106              		.cfi_startproc
 107              		@ args = 0, pretend = 0, frame = 0
 108              		@ frame_needed = 0, uses_anonymous_args = 0
 109 0000 08B5     		push	{r3, lr}
 110              		.cfi_def_cfa_offset 8
 111              		.cfi_offset 3, -8
 112              		.cfi_offset 14, -4
 135:Generated_Source\PSoC5/I2C_Orientation.c **** #if (I2C_Orientation_FF_IMPLEMENTED)
 136:Generated_Source\PSoC5/I2C_Orientation.c ****     uint8 intState;
 137:Generated_Source\PSoC5/I2C_Orientation.c **** 
 138:Generated_Source\PSoC5/I2C_Orientation.c ****     /* Enable power to block */
 139:Generated_Source\PSoC5/I2C_Orientation.c ****     intState = CyEnterCriticalSection();
 113              		.loc 1 139 0
 114 0002 FFF7FEFF 		bl	CyEnterCriticalSection
 115              	.LVL2:
 140:Generated_Source\PSoC5/I2C_Orientation.c ****     I2C_Orientation_ACT_PWRMGR_REG  |= I2C_Orientation_ACT_PWR_EN;
 116              		.loc 1 140 0
 117 0006 064A     		ldr	r2, .L5
 118 0008 1378     		ldrb	r3, [r2]	@ zero_extendqisi2
 119 000a 43F00403 		orr	r3, r3, #4
 120 000e 1370     		strb	r3, [r2]
 141:Generated_Source\PSoC5/I2C_Orientation.c ****     I2C_Orientation_STBY_PWRMGR_REG |= I2C_Orientation_STBY_PWR_EN;
 121              		.loc 1 141 0
 122 0010 137C     		ldrb	r3, [r2, #16]	@ zero_extendqisi2
 123 0012 43F00403 		orr	r3, r3, #4
 124 0016 1374     		strb	r3, [r2, #16]
 142:Generated_Source\PSoC5/I2C_Orientation.c ****     CyExitCriticalSection(intState);
 143:Generated_Source\PSoC5/I2C_Orientation.c **** #else
 144:Generated_Source\PSoC5/I2C_Orientation.c ****     #if (I2C_Orientation_MODE_SLAVE_ENABLED)
 145:Generated_Source\PSoC5/I2C_Orientation.c ****         /* Enable bit counter */
 146:Generated_Source\PSoC5/I2C_Orientation.c ****         uint8 intState = CyEnterCriticalSection();
 147:Generated_Source\PSoC5/I2C_Orientation.c ****         I2C_Orientation_COUNTER_AUX_CTL_REG |= I2C_Orientation_CNT7_ENABLE;
 148:Generated_Source\PSoC5/I2C_Orientation.c ****         CyExitCriticalSection(intState);
 149:Generated_Source\PSoC5/I2C_Orientation.c ****     #endif /* (I2C_Orientation_MODE_SLAVE_ENABLED) */
 150:Generated_Source\PSoC5/I2C_Orientation.c **** 
 151:Generated_Source\PSoC5/I2C_Orientation.c ****     /* Enable slave or master bits */
 152:Generated_Source\PSoC5/I2C_Orientation.c ****     I2C_Orientation_CFG_REG |= I2C_Orientation_ENABLE_MS;
 153:Generated_Source\PSoC5/I2C_Orientation.c **** #endif /* (I2C_Orientation_FF_IMPLEMENTED) */
 154:Generated_Source\PSoC5/I2C_Orientation.c **** 
 155:Generated_Source\PSoC5/I2C_Orientation.c **** #if (I2C_Orientation_TIMEOUT_ENABLED)
 156:Generated_Source\PSoC5/I2C_Orientation.c ****     I2C_Orientation_TimeoutEnable();
 157:Generated_Source\PSoC5/I2C_Orientation.c **** #endif /* (I2C_Orientation_TIMEOUT_ENABLED) */
 158:Generated_Source\PSoC5/I2C_Orientation.c **** }
 125              		.loc 1 158 0
ARM GAS  C:\Users\Nathan\AppData\Local\Temp\cc6pza3q.s 			page 6


 126 0018 BDE80840 		pop	{r3, lr}
 127              		.cfi_restore 14
 128              		.cfi_restore 3
 129              		.cfi_def_cfa_offset 0
 142:Generated_Source\PSoC5/I2C_Orientation.c ****     CyExitCriticalSection(intState);
 130              		.loc 1 142 0
 131 001c FFF7FEBF 		b	CyExitCriticalSection
 132              	.LVL3:
 133              	.L6:
 134              		.align	2
 135              	.L5:
 136 0020 A5430040 		.word	1073759141
 137              		.cfi_endproc
 138              	.LFE1:
 139              		.size	I2C_Orientation_Enable, .-I2C_Orientation_Enable
 140              		.section	.text.I2C_Orientation_Start,"ax",%progbits
 141              		.align	1
 142              		.global	I2C_Orientation_Start
 143              		.thumb
 144              		.thumb_func
 145              		.type	I2C_Orientation_Start, %function
 146              	I2C_Orientation_Start:
 147              	.LFB2:
 159:Generated_Source\PSoC5/I2C_Orientation.c **** 
 160:Generated_Source\PSoC5/I2C_Orientation.c **** 
 161:Generated_Source\PSoC5/I2C_Orientation.c **** /*******************************************************************************
 162:Generated_Source\PSoC5/I2C_Orientation.c **** * Function Name: I2C_Orientation_Start
 163:Generated_Source\PSoC5/I2C_Orientation.c **** ********************************************************************************
 164:Generated_Source\PSoC5/I2C_Orientation.c **** *
 165:Generated_Source\PSoC5/I2C_Orientation.c **** * Summary:
 166:Generated_Source\PSoC5/I2C_Orientation.c **** *  Starts the I2C hardware. Enables Active mode power template bits or clock
 167:Generated_Source\PSoC5/I2C_Orientation.c **** *  gating as appropriate. It is required to be executed before I2C bus
 168:Generated_Source\PSoC5/I2C_Orientation.c **** *  operation.
 169:Generated_Source\PSoC5/I2C_Orientation.c **** *
 170:Generated_Source\PSoC5/I2C_Orientation.c **** * Parameters:
 171:Generated_Source\PSoC5/I2C_Orientation.c **** *  None.
 172:Generated_Source\PSoC5/I2C_Orientation.c **** *
 173:Generated_Source\PSoC5/I2C_Orientation.c **** * Return:
 174:Generated_Source\PSoC5/I2C_Orientation.c **** *  None.
 175:Generated_Source\PSoC5/I2C_Orientation.c **** *
 176:Generated_Source\PSoC5/I2C_Orientation.c **** * Side Effects:
 177:Generated_Source\PSoC5/I2C_Orientation.c **** *  This component automatically enables its interrupt.  If I2C is enabled !
 178:Generated_Source\PSoC5/I2C_Orientation.c **** *  without the interrupt enabled, it can lock up the I2C bus.
 179:Generated_Source\PSoC5/I2C_Orientation.c **** *
 180:Generated_Source\PSoC5/I2C_Orientation.c **** * Global variables:
 181:Generated_Source\PSoC5/I2C_Orientation.c **** *  I2C_Orientation_initVar - This variable is used to check the initial
 182:Generated_Source\PSoC5/I2C_Orientation.c **** *                             configuration, modified on the first
 183:Generated_Source\PSoC5/I2C_Orientation.c **** *                             function call.
 184:Generated_Source\PSoC5/I2C_Orientation.c **** *
 185:Generated_Source\PSoC5/I2C_Orientation.c **** * Reentrant:
 186:Generated_Source\PSoC5/I2C_Orientation.c **** *  No.
 187:Generated_Source\PSoC5/I2C_Orientation.c **** *
 188:Generated_Source\PSoC5/I2C_Orientation.c **** *******************************************************************************/
 189:Generated_Source\PSoC5/I2C_Orientation.c **** void I2C_Orientation_Start(void) 
 190:Generated_Source\PSoC5/I2C_Orientation.c **** {
 148              		.loc 1 190 0
 149              		.cfi_startproc
ARM GAS  C:\Users\Nathan\AppData\Local\Temp\cc6pza3q.s 			page 7


 150              		@ args = 0, pretend = 0, frame = 0
 151              		@ frame_needed = 0, uses_anonymous_args = 0
 152 0000 10B5     		push	{r4, lr}
 153              		.cfi_def_cfa_offset 8
 154              		.cfi_offset 4, -8
 155              		.cfi_offset 14, -4
 191:Generated_Source\PSoC5/I2C_Orientation.c ****     if (0u == I2C_Orientation_initVar)
 156              		.loc 1 191 0
 157 0002 074C     		ldr	r4, .L10
 158 0004 2378     		ldrb	r3, [r4]	@ zero_extendqisi2
 159 0006 1BB9     		cbnz	r3, .L8
 192:Generated_Source\PSoC5/I2C_Orientation.c ****     {
 193:Generated_Source\PSoC5/I2C_Orientation.c ****         I2C_Orientation_Init();
 160              		.loc 1 193 0
 161 0008 FFF7FEFF 		bl	I2C_Orientation_Init
 162              	.LVL4:
 194:Generated_Source\PSoC5/I2C_Orientation.c ****         I2C_Orientation_initVar = 1u; /* Component initialized */
 163              		.loc 1 194 0
 164 000c 0123     		movs	r3, #1
 165 000e 2370     		strb	r3, [r4]
 166              	.L8:
 195:Generated_Source\PSoC5/I2C_Orientation.c ****     }
 196:Generated_Source\PSoC5/I2C_Orientation.c **** 
 197:Generated_Source\PSoC5/I2C_Orientation.c ****     I2C_Orientation_Enable();
 167              		.loc 1 197 0
 168 0010 FFF7FEFF 		bl	I2C_Orientation_Enable
 169              	.LVL5:
 198:Generated_Source\PSoC5/I2C_Orientation.c ****     I2C_Orientation_EnableInt();
 170              		.loc 1 198 0
 171 0014 034B     		ldr	r3, .L10+4
 172 0016 4FF40042 		mov	r2, #32768
 173 001a 1A60     		str	r2, [r3]
 174 001c 10BD     		pop	{r4, pc}
 175              	.L11:
 176 001e 00BF     		.align	2
 177              	.L10:
 178 0020 00000000 		.word	.LANCHOR0
 179 0024 00E100E0 		.word	-536813312
 180              		.cfi_endproc
 181              	.LFE2:
 182              		.size	I2C_Orientation_Start, .-I2C_Orientation_Start
 183              		.section	.text.I2C_Orientation_Stop,"ax",%progbits
 184              		.align	1
 185              		.global	I2C_Orientation_Stop
 186              		.thumb
 187              		.thumb_func
 188              		.type	I2C_Orientation_Stop, %function
 189              	I2C_Orientation_Stop:
 190              	.LFB3:
 199:Generated_Source\PSoC5/I2C_Orientation.c **** }
 200:Generated_Source\PSoC5/I2C_Orientation.c **** 
 201:Generated_Source\PSoC5/I2C_Orientation.c **** 
 202:Generated_Source\PSoC5/I2C_Orientation.c **** /*******************************************************************************
 203:Generated_Source\PSoC5/I2C_Orientation.c **** * Function Name: I2C_Orientation_Stop
 204:Generated_Source\PSoC5/I2C_Orientation.c **** ********************************************************************************
 205:Generated_Source\PSoC5/I2C_Orientation.c **** *
 206:Generated_Source\PSoC5/I2C_Orientation.c **** * Summary:
ARM GAS  C:\Users\Nathan\AppData\Local\Temp\cc6pza3q.s 			page 8


 207:Generated_Source\PSoC5/I2C_Orientation.c **** *  Disables I2C hardware and disables I2C interrupt. Disables Active mode power
 208:Generated_Source\PSoC5/I2C_Orientation.c **** *  template bits or clock gating as appropriate.
 209:Generated_Source\PSoC5/I2C_Orientation.c **** *
 210:Generated_Source\PSoC5/I2C_Orientation.c **** * Parameters:
 211:Generated_Source\PSoC5/I2C_Orientation.c **** *  None.
 212:Generated_Source\PSoC5/I2C_Orientation.c **** *
 213:Generated_Source\PSoC5/I2C_Orientation.c **** * Return:
 214:Generated_Source\PSoC5/I2C_Orientation.c **** *  None.
 215:Generated_Source\PSoC5/I2C_Orientation.c **** *
 216:Generated_Source\PSoC5/I2C_Orientation.c **** *******************************************************************************/
 217:Generated_Source\PSoC5/I2C_Orientation.c **** void I2C_Orientation_Stop(void) 
 218:Generated_Source\PSoC5/I2C_Orientation.c **** {
 191              		.loc 1 218 0
 192              		.cfi_startproc
 193              		@ args = 0, pretend = 0, frame = 0
 194              		@ frame_needed = 0, uses_anonymous_args = 0
 195 0000 2DE9F843 		push	{r3, r4, r5, r6, r7, r8, r9, lr}
 196              		.cfi_def_cfa_offset 32
 197              		.cfi_offset 3, -32
 198              		.cfi_offset 4, -28
 199              		.cfi_offset 5, -24
 200              		.cfi_offset 6, -20
 201              		.cfi_offset 7, -16
 202              		.cfi_offset 8, -12
 203              		.cfi_offset 9, -8
 204              		.cfi_offset 14, -4
 219:Generated_Source\PSoC5/I2C_Orientation.c ****     I2C_Orientation_DisableInt();
 205              		.loc 1 219 0
 206 0004 224B     		ldr	r3, .L13
 207              	.LBB2:
 220:Generated_Source\PSoC5/I2C_Orientation.c **** 
 221:Generated_Source\PSoC5/I2C_Orientation.c **** #if (I2C_Orientation_TIMEOUT_ENABLED)
 222:Generated_Source\PSoC5/I2C_Orientation.c ****     I2C_Orientation_TimeoutStop();
 223:Generated_Source\PSoC5/I2C_Orientation.c **** #endif  /* End (I2C_Orientation_TIMEOUT_ENABLED) */
 224:Generated_Source\PSoC5/I2C_Orientation.c **** 
 225:Generated_Source\PSoC5/I2C_Orientation.c **** #if (I2C_Orientation_FF_IMPLEMENTED)
 226:Generated_Source\PSoC5/I2C_Orientation.c ****     {
 227:Generated_Source\PSoC5/I2C_Orientation.c ****         uint8 intState;
 228:Generated_Source\PSoC5/I2C_Orientation.c ****         uint16 blockResetCycles;
 229:Generated_Source\PSoC5/I2C_Orientation.c **** 
 230:Generated_Source\PSoC5/I2C_Orientation.c ****         /* Store registers effected by block disable */
 231:Generated_Source\PSoC5/I2C_Orientation.c ****         I2C_Orientation_backup.addr    = I2C_Orientation_ADDR_REG;
 208              		.loc 1 231 0
 209 0006 DFF8A880 		ldr	r8, .L13+32
 210              	.LBE2:
 219:Generated_Source\PSoC5/I2C_Orientation.c ****     I2C_Orientation_DisableInt();
 211              		.loc 1 219 0
 212 000a 4FF40049 		mov	r9, #32768
 213 000e C3F80090 		str	r9, [r3]
 214              	.LBB3:
 215              		.loc 1 231 0
 216 0012 98F80030 		ldrb	r3, [r8]	@ zero_extendqisi2
 217 0016 1F4C     		ldr	r4, .L13+4
 232:Generated_Source\PSoC5/I2C_Orientation.c ****         I2C_Orientation_backup.clkDiv1 = I2C_Orientation_CLKDIV1_REG;
 218              		.loc 1 232 0
 219 0018 1F4F     		ldr	r7, .L13+8
 231:Generated_Source\PSoC5/I2C_Orientation.c ****         I2C_Orientation_backup.clkDiv1 = I2C_Orientation_CLKDIV1_REG;
ARM GAS  C:\Users\Nathan\AppData\Local\Temp\cc6pza3q.s 			page 9


 220              		.loc 1 231 0
 221 001a E370     		strb	r3, [r4, #3]
 222              		.loc 1 232 0
 223 001c 3B78     		ldrb	r3, [r7]	@ zero_extendqisi2
 233:Generated_Source\PSoC5/I2C_Orientation.c ****         I2C_Orientation_backup.clkDiv2 = I2C_Orientation_CLKDIV2_REG;
 224              		.loc 1 233 0
 225 001e 1F4E     		ldr	r6, .L13+12
 232:Generated_Source\PSoC5/I2C_Orientation.c ****         I2C_Orientation_backup.clkDiv1 = I2C_Orientation_CLKDIV1_REG;
 226              		.loc 1 232 0
 227 0020 2371     		strb	r3, [r4, #4]
 228              		.loc 1 233 0
 229 0022 3378     		ldrb	r3, [r6]	@ zero_extendqisi2
 234:Generated_Source\PSoC5/I2C_Orientation.c **** 
 235:Generated_Source\PSoC5/I2C_Orientation.c ****         /* Calculate number of cycles to reset block */
 236:Generated_Source\PSoC5/I2C_Orientation.c ****         blockResetCycles = ((uint16) ((uint16) I2C_Orientation_CLKDIV2_REG << 8u) | I2C_Orientation
 237:Generated_Source\PSoC5/I2C_Orientation.c **** 
 238:Generated_Source\PSoC5/I2C_Orientation.c ****         /* Disable block */
 239:Generated_Source\PSoC5/I2C_Orientation.c ****         I2C_Orientation_CFG_REG &= (uint8) ~I2C_Orientation_CFG_EN_SLAVE;
 230              		.loc 1 239 0
 231 0024 1E4D     		ldr	r5, .L13+16
 233:Generated_Source\PSoC5/I2C_Orientation.c ****         I2C_Orientation_backup.clkDiv2 = I2C_Orientation_CLKDIV2_REG;
 232              		.loc 1 233 0
 233 0026 6371     		strb	r3, [r4, #5]
 236:Generated_Source\PSoC5/I2C_Orientation.c **** 
 234              		.loc 1 236 0
 235 0028 3078     		ldrb	r0, [r6]	@ zero_extendqisi2
 236 002a 3B78     		ldrb	r3, [r7]	@ zero_extendqisi2
 237              	.LVL6:
 238              		.loc 1 239 0
 239 002c 2A78     		ldrb	r2, [r5]	@ zero_extendqisi2
 240:Generated_Source\PSoC5/I2C_Orientation.c ****         /* Wait for block reset before disable power */
 241:Generated_Source\PSoC5/I2C_Orientation.c ****         CyDelayCycles((uint32) blockResetCycles);
 240              		.loc 1 241 0
 241 002e 43EA0020 		orr	r0, r3, r0, lsl #8
 242              	.LVL7:
 239:Generated_Source\PSoC5/I2C_Orientation.c ****         /* Wait for block reset before disable power */
 243              		.loc 1 239 0
 244 0032 02F0FE02 		and	r2, r2, #254
 245              		.loc 1 241 0
 246 0036 0130     		adds	r0, r0, #1
 239:Generated_Source\PSoC5/I2C_Orientation.c ****         /* Wait for block reset before disable power */
 247              		.loc 1 239 0
 248 0038 2A70     		strb	r2, [r5]
 249              		.loc 1 241 0
 250 003a 80B2     		uxth	r0, r0
 251 003c FFF7FEFF 		bl	CyDelayCycles
 252              	.LVL8:
 242:Generated_Source\PSoC5/I2C_Orientation.c **** 
 243:Generated_Source\PSoC5/I2C_Orientation.c ****         /* Disable power to block */
 244:Generated_Source\PSoC5/I2C_Orientation.c ****         intState = CyEnterCriticalSection();
 253              		.loc 1 244 0
 254 0040 FFF7FEFF 		bl	CyEnterCriticalSection
 255              	.LVL9:
 245:Generated_Source\PSoC5/I2C_Orientation.c ****         I2C_Orientation_ACT_PWRMGR_REG  &= (uint8) ~I2C_Orientation_ACT_PWR_EN;
 256              		.loc 1 245 0
 257 0044 174A     		ldr	r2, .L13+20
 258 0046 1378     		ldrb	r3, [r2]	@ zero_extendqisi2
ARM GAS  C:\Users\Nathan\AppData\Local\Temp\cc6pza3q.s 			page 10


 259 0048 03F0FB03 		and	r3, r3, #251
 260 004c 1370     		strb	r3, [r2]
 246:Generated_Source\PSoC5/I2C_Orientation.c ****         I2C_Orientation_STBY_PWRMGR_REG &= (uint8) ~I2C_Orientation_STBY_PWR_EN;
 261              		.loc 1 246 0
 262 004e 137C     		ldrb	r3, [r2, #16]	@ zero_extendqisi2
 263 0050 03F0FB03 		and	r3, r3, #251
 264 0054 1374     		strb	r3, [r2, #16]
 247:Generated_Source\PSoC5/I2C_Orientation.c ****         CyExitCriticalSection(intState);
 265              		.loc 1 247 0
 266 0056 FFF7FEFF 		bl	CyExitCriticalSection
 267              	.LVL10:
 248:Generated_Source\PSoC5/I2C_Orientation.c **** 
 249:Generated_Source\PSoC5/I2C_Orientation.c ****         /* Enable block */
 250:Generated_Source\PSoC5/I2C_Orientation.c ****         I2C_Orientation_CFG_REG |= (uint8) I2C_Orientation_ENABLE_MS;
 268              		.loc 1 250 0
 269 005a 2B78     		ldrb	r3, [r5]	@ zero_extendqisi2
 270              	.LBE3:
 251:Generated_Source\PSoC5/I2C_Orientation.c **** 
 252:Generated_Source\PSoC5/I2C_Orientation.c ****         /* Restore registers effected by block disable. Ticket ID#198004 */
 253:Generated_Source\PSoC5/I2C_Orientation.c ****         I2C_Orientation_ADDR_REG    = I2C_Orientation_backup.addr;
 254:Generated_Source\PSoC5/I2C_Orientation.c ****         I2C_Orientation_ADDR_REG    = I2C_Orientation_backup.addr;
 255:Generated_Source\PSoC5/I2C_Orientation.c ****         I2C_Orientation_CLKDIV1_REG = I2C_Orientation_backup.clkDiv1;
 256:Generated_Source\PSoC5/I2C_Orientation.c ****         I2C_Orientation_CLKDIV2_REG = I2C_Orientation_backup.clkDiv2;
 257:Generated_Source\PSoC5/I2C_Orientation.c ****     }
 258:Generated_Source\PSoC5/I2C_Orientation.c **** #else
 259:Generated_Source\PSoC5/I2C_Orientation.c **** 
 260:Generated_Source\PSoC5/I2C_Orientation.c ****     /* Disable slave or master bits */
 261:Generated_Source\PSoC5/I2C_Orientation.c ****     I2C_Orientation_CFG_REG &= (uint8) ~I2C_Orientation_ENABLE_MS;
 262:Generated_Source\PSoC5/I2C_Orientation.c **** 
 263:Generated_Source\PSoC5/I2C_Orientation.c **** #if (I2C_Orientation_MODE_SLAVE_ENABLED)
 264:Generated_Source\PSoC5/I2C_Orientation.c ****     {
 265:Generated_Source\PSoC5/I2C_Orientation.c ****         /* Disable bit counter */
 266:Generated_Source\PSoC5/I2C_Orientation.c ****         uint8 intState = CyEnterCriticalSection();
 267:Generated_Source\PSoC5/I2C_Orientation.c ****         I2C_Orientation_COUNTER_AUX_CTL_REG &= (uint8) ~I2C_Orientation_CNT7_ENABLE;
 268:Generated_Source\PSoC5/I2C_Orientation.c ****         CyExitCriticalSection(intState);
 269:Generated_Source\PSoC5/I2C_Orientation.c ****     }
 270:Generated_Source\PSoC5/I2C_Orientation.c **** #endif /* (I2C_Orientation_MODE_SLAVE_ENABLED) */
 271:Generated_Source\PSoC5/I2C_Orientation.c **** 
 272:Generated_Source\PSoC5/I2C_Orientation.c ****     /* Clear interrupt source register */
 273:Generated_Source\PSoC5/I2C_Orientation.c ****     (void) I2C_Orientation_CSR_REG;
 274:Generated_Source\PSoC5/I2C_Orientation.c **** #endif /* (I2C_Orientation_FF_IMPLEMENTED) */
 275:Generated_Source\PSoC5/I2C_Orientation.c **** 
 276:Generated_Source\PSoC5/I2C_Orientation.c ****     /* Disable interrupt on stop (enabled by write transaction) */
 277:Generated_Source\PSoC5/I2C_Orientation.c ****     I2C_Orientation_DISABLE_INT_ON_STOP;
 278:Generated_Source\PSoC5/I2C_Orientation.c ****     I2C_Orientation_ClearPendingInt();
 279:Generated_Source\PSoC5/I2C_Orientation.c **** 
 280:Generated_Source\PSoC5/I2C_Orientation.c ****     /* Reset FSM to default state */
 281:Generated_Source\PSoC5/I2C_Orientation.c ****     I2C_Orientation_state = I2C_Orientation_SM_IDLE;
 271              		.loc 1 281 0
 272 005c 1022     		movs	r2, #16
 273              	.LBB4:
 250:Generated_Source\PSoC5/I2C_Orientation.c **** 
 274              		.loc 1 250 0
 275 005e 43F00203 		orr	r3, r3, #2
 276 0062 2B70     		strb	r3, [r5]
 253:Generated_Source\PSoC5/I2C_Orientation.c ****         I2C_Orientation_ADDR_REG    = I2C_Orientation_backup.addr;
 277              		.loc 1 253 0
ARM GAS  C:\Users\Nathan\AppData\Local\Temp\cc6pza3q.s 			page 11


 278 0064 E378     		ldrb	r3, [r4, #3]	@ zero_extendqisi2
 279 0066 88F80030 		strb	r3, [r8]
 254:Generated_Source\PSoC5/I2C_Orientation.c ****         I2C_Orientation_CLKDIV1_REG = I2C_Orientation_backup.clkDiv1;
 280              		.loc 1 254 0
 281 006a E378     		ldrb	r3, [r4, #3]	@ zero_extendqisi2
 282 006c 88F80030 		strb	r3, [r8]
 255:Generated_Source\PSoC5/I2C_Orientation.c ****         I2C_Orientation_CLKDIV2_REG = I2C_Orientation_backup.clkDiv2;
 283              		.loc 1 255 0
 284 0070 2379     		ldrb	r3, [r4, #4]	@ zero_extendqisi2
 285 0072 3B70     		strb	r3, [r7]
 256:Generated_Source\PSoC5/I2C_Orientation.c ****     }
 286              		.loc 1 256 0
 287 0074 6379     		ldrb	r3, [r4, #5]	@ zero_extendqisi2
 288 0076 3370     		strb	r3, [r6]
 289              	.LBE4:
 277:Generated_Source\PSoC5/I2C_Orientation.c ****     I2C_Orientation_ClearPendingInt();
 290              		.loc 1 277 0
 291 0078 2B78     		ldrb	r3, [r5]	@ zero_extendqisi2
 292 007a 03F0EF03 		and	r3, r3, #239
 293 007e 2B70     		strb	r3, [r5]
 278:Generated_Source\PSoC5/I2C_Orientation.c **** 
 294              		.loc 1 278 0
 295 0080 094B     		ldr	r3, .L13+24
 296 0082 C3F80090 		str	r9, [r3]
 297              		.loc 1 281 0
 298 0086 094B     		ldr	r3, .L13+28
 299 0088 1A70     		strb	r2, [r3]
 300 008a BDE8F883 		pop	{r3, r4, r5, r6, r7, r8, r9, pc}
 301              	.L14:
 302 008e 00BF     		.align	2
 303              	.L13:
 304 0090 80E100E0 		.word	-536813184
 305 0094 00000000 		.word	I2C_Orientation_backup
 306 0098 DB490040 		.word	1073760731
 307 009c DC490040 		.word	1073760732
 308 00a0 D6490040 		.word	1073760726
 309 00a4 A5430040 		.word	1073759141
 310 00a8 80E200E0 		.word	-536812928
 311 00ac 00000000 		.word	I2C_Orientation_state
 312 00b0 CA490040 		.word	1073760714
 313              		.cfi_endproc
 314              	.LFE3:
 315              		.size	I2C_Orientation_Stop, .-I2C_Orientation_Stop
 316              		.comm	I2C_Orientation_state,1,1
 317              		.global	I2C_Orientation_initVar
 318              		.bss
 319              		.set	.LANCHOR0,. + 0
 320              		.type	I2C_Orientation_initVar, %object
 321              		.size	I2C_Orientation_initVar, 1
 322              	I2C_Orientation_initVar:
 323 0000 00       		.space	1
 324              		.text
 325              	.Letext0:
 326              		.file 2 "Generated_Source\\PSoC5\\cytypes.h"
 327              		.file 3 "Generated_Source\\PSoC5\\I2C_Orientation.h"
 328              		.file 4 "Generated_Source\\PSoC5\\I2C_Orientation_PVT.h"
 329              		.file 5 "Generated_Source\\PSoC5\\CyLib.h"
ARM GAS  C:\Users\Nathan\AppData\Local\Temp\cc6pza3q.s 			page 12

