ARM GAS  C:\Users\Nathan\AppData\Local\Temp\ccyb9Lfo.s 			page 1


   1              		.syntax unified
   2              		.cpu cortex-m3
   3              		.fpu softvfp
   4              		.eabi_attribute 20, 1
   5              		.eabi_attribute 21, 1
   6              		.eabi_attribute 23, 3
   7              		.eabi_attribute 24, 1
   8              		.eabi_attribute 25, 1
   9              		.eabi_attribute 26, 1
  10              		.eabi_attribute 30, 4
  11              		.eabi_attribute 34, 1
  12              		.eabi_attribute 18, 4
  13              		.thumb
  14              		.syntax unified
  15              		.file	"main.c"
  16              		.text
  17              	.Ltext0:
  18              		.cfi_sections	.debug_frame
  19              		.section	.text.Start_SD_Card,"ax",%progbits
  20              		.align	1
  21              		.global	Start_SD_Card
  22              		.thumb
  23              		.thumb_func
  24              		.type	Start_SD_Card, %function
  25              	Start_SD_Card:
  26              	.LFB65:
  27              		.file 1 "main.c"
   1:main.c        **** /* ========================================
   2:main.c        ****  *
   3:main.c        ****  * Copyright YOUR COMPANY, THE YEAR
   4:main.c        ****  * All Rights Reserved
   5:main.c        ****  * UNPUBLISHED, LICENSED SOFTWARE.
   6:main.c        ****  *
   7:main.c        ****  * CONFIDENTIAL AND PROPRIETARY INFORMATION
   8:main.c        ****  * WHICH IS THE PROPERTY OF your company.
   9:main.c        ****  *
  10:main.c        ****  * ========================================
  11:main.c        **** */
  12:main.c        **** 
  13:main.c        **** #ifndef PROJECT_H
  14:main.c        **** #define PROJECT_H
  15:main.c        **** #include <project.h>
  16:main.c        **** #endif
  17:main.c        **** 
  18:main.c        **** //Included files for writing to SD Card?
  19:main.c        **** #include <FS.h>
  20:main.c        **** #include <string.h>
  21:main.c        **** #include <Global.h>
  22:main.c        **** #include <stdio.h>
  23:main.c        **** 
  24:main.c        **** #include "Adafruit_BNO055.h"
  25:main.c        **** #include "Adafruit_GPS.h"
  26:main.c        **** 
  27:main.c        **** 
  28:main.c        **** #define DEFAULT_PRIORITY                    (3u)
  29:main.c        **** #define HIGHER_PRIORITY                     (2u)
  30:main.c        **** 
ARM GAS  C:\Users\Nathan\AppData\Local\Temp\ccyb9Lfo.s 			page 2


  31:main.c        **** 
  32:main.c        **** 
  33:main.c        **** 
  34:main.c        **** 
  35:main.c        **** //PROTOTYPES
  36:main.c        **** void Start_SD_Card();
  37:main.c        **** void Close_SD_Card();
  38:main.c        **** /*
  39:main.c        **** void Write_AGM_Config(uint8 RegisterAdrress, uint8 DataByte); 
  40:main.c        **** void AGM_Start();
  41:main.c        **** void AGM_EulersRefresh();
  42:main.c        **** void AGM_AccelRefresh();
  43:main.c        **** void AGM_GetTemp();
  44:main.c        **** void GPS_Start();
  45:main.c        **** void GPS_Refresh();
  46:main.c        **** */
  47:main.c        **** 
  48:main.c        **** //GLOBAL VARIABLES
  49:main.c        **** char sdFile[13] = {'T','E','M','P','D','A','T','A','.','t','x','t'};
  50:main.c        **** FS_FILE * pFile;
  51:main.c        **** char sdVolName[12];     /* Buffer that will hold SD card Volume name */  
  52:main.c        **** 
  53:main.c        **** uint8 fileNumber;
  54:main.c        **** 
  55:main.c        **** /*
  56:main.c        **** int16 ROLL, PITCH; uint16 YAW;
  57:main.c        **** int16 XACCEL, YACCEL, ZACCEL;
  58:main.c        **** uint8 AGMTEMP;
  59:main.c        **** 
  60:main.c        **** char GPS_RMC_Data[100];
  61:main.c        **** char GPS_GGA_Data[100];
  62:main.c        **** 
  63:main.c        **** uint8 NewGPSData = 0;
  64:main.c        **** */
  65:main.c        **** 
  66:main.c        **** CY_ISR_PROTO(GPS_Handler);
  67:main.c        **** 
  68:main.c        **** 
  69:main.c        **** 
  70:main.c        **** int main(void)
  71:main.c        **** {
  72:main.c        ****     
  73:main.c        ****     
  74:main.c        ****     //=========================== Initialization =====================================
  75:main.c        ****     CyGlobalIntEnable; /* Enable global interrupts. */
  76:main.c        ****     
  77:main.c        ****     //isr_GPS_StartEx(GPS_Handler);
  78:main.c        ****     //isr_GPS_SetPriority(DEFAULT_PRIORITY);
  79:main.c        ****       
  80:main.c        ****     Timer_1_Start();
  81:main.c        ****     Counter_Duration_Start();
  82:main.c        ****     
  83:main.c        ****     GPS_Start();
  84:main.c        ****     UART_HC12_Start();
  85:main.c        **** 
  86:main.c        ****     Stabilizer_Start();
  87:main.c        ****     Aileron_Start();
ARM GAS  C:\Users\Nathan\AppData\Local\Temp\ccyb9Lfo.s 			page 3


  88:main.c        ****     Motor_Speed_Start();
  89:main.c        ****     
  90:main.c        ****     VDAC8_1_Start();
  91:main.c        ****     SPI_Altitude_Start();
  92:main.c        ****     
  93:main.c        ****     
  94:main.c        ****     //Start Accel/Gyro/Mag sensor
  95:main.c        ****     AGM_Start();
  96:main.c        **** 
  97:main.c        ****     EEPROM_Start();
  98:main.c        ****     /*
  99:main.c        ****     cystatus EEPROM_WriteByte(uint8 dataByte, uint16 address)
 100:main.c        ****     uint8 EEPROM_ReadByte(uint16 address)
 101:main.c        ****     uint8 EEPROM_UpdateTemperature(void)
 102:main.c        ****     cystatus EEPROM_EraseSector(uint8 sectorNumber)
 103:main.c        ****     cystatus EEPROM_StartWrite(const uint8 *rowData, uint8 rowNumber)
 104:main.c        ****     cystatus EEPROM_Query(void)
 105:main.c        ****     */  //EEPROM useful functions
 106:main.c        ****     
 107:main.c        ****     
 108:main.c        ****     
 109:main.c        ****     
 110:main.c        ****     
 111:main.c        ****     fileNumber = EEPROM_ReadByte(0x1A); //gets the next file number from eeprom
 112:main.c        **** 
 113:main.c        ****     //Starts and configures emFile and file system
 114:main.c        ****     Start_SD_Card(); 
 115:main.c        ****         
 116:main.c        ****     
 117:main.c        ****     //===========================================================================================
 118:main.c        ****       
 119:main.c        ****     
 120:main.c        ****     
 121:main.c        ****     
 122:main.c        ****     
 123:main.c        ****     //duration,X,Y,Z,Yaw,Roll,Pitch,TEMP,$GPS,,,,,,,,,,,, 
 124:main.c        **** 
 125:main.c        ****     uint16  refreshTime = 10  ,  timerPeriod = 1000;  //mS
 126:main.c        ****     uint duration = 0;
 127:main.c        ****     uint8 endLoop = 0;
 128:main.c        ****     char dataArray[300]; 
 129:main.c        ****     
 130:main.c        ****     for(;;)
 131:main.c        ****     {
 132:main.c        ****       
 133:main.c        ****         if (Timer_1_ReadCounter() <= (timerPeriod - refreshTime))
 134:main.c        ****         {
 135:main.c        ****             
 136:main.c        ****             AGM_EulersRefresh();
 137:main.c        ****             AGM_AccelRefresh();
 138:main.c        ****             AGM_GetTemp();
 139:main.c        ****             GPS_Refresh();
 140:main.c        ****             
 141:main.c        ****             duration = Counter_Duration_ReadCounter();
 142:main.c        ****             
 143:main.c        ****             
 144:main.c        ****             //Write the comma seperated vector to save and send   
ARM GAS  C:\Users\Nathan\AppData\Local\Temp\ccyb9Lfo.s 			page 4


 145:main.c        ****             sprintf(dataArray,"%u,%i,%i,%i,%i,%i,%i,%i,",duration,PITCH,ROLL,YAW,XACCEL,YACCEL,ZACC
 146:main.c        ****             
 147:main.c        ****             
 148:main.c        ****             //Concatinate the gps data with the orientation data array
 149:main.c        ****             if(NewGPSData == 1){
 150:main.c        ****                 strcat(dataArray,GPS_RMC_Data);
 151:main.c        ****                 NewGPSData = 2;
 152:main.c        ****             }
 153:main.c        ****             
 154:main.c        ****             else if(NewGPSData == 3){
 155:main.c        ****                 strcat(dataArray,GPS_GGA_Data);
 156:main.c        ****                 NewGPSData = 0;
 157:main.c        ****             }
 158:main.c        ****             
 159:main.c        ****             
 160:main.c        ****             strcat(dataArray,"\r\n");
 161:main.c        ****             
 162:main.c        ****             
 163:main.c        ****             
 164:main.c        ****             //send it!
 165:main.c        ****             UART_HC12_PutString(dataArray);
 166:main.c        ****                    
 167:main.c        ****             
 168:main.c        ****             
 169:main.c        ****             
 170:main.c        ****             
 171:main.c        ****             //Save it!
 172:main.c        ****             if(pFile)//Checks if file was created
 173:main.c        ****             {
 174:main.c        ****                 if(0 != FS_Write(pFile, &dataArray, strlen(dataArray))) 
 175:main.c        ****                 {
 176:main.c        ****                     /* Indicate that data was written to a file */
 177:main.c        ****                 }
 178:main.c        ****                 else
 179:main.c        ****                 {
 180:main.c        **** 
 181:main.c        ****                 }
 182:main.c        ****             }
 183:main.c        ****             
 184:main.c        ****             
 185:main.c        ****             
 186:main.c        ****             //Nullify the data Array
 187:main.c        ****             for (U16 i = 100; i < 300; ++i){
 188:main.c        ****                 dataArray[i] = '\0';
 189:main.c        ****             }
 190:main.c        ****             
 191:main.c        ****             
 192:main.c        ****             
 193:main.c        ****             //Reset the timer
 194:main.c        ****             Timer_1_WriteCounter(timerPeriod);
 195:main.c        ****         }//End if 
 196:main.c        ****         
 197:main.c        ****         
 198:main.c        ****         
 199:main.c        ****         
 200:main.c        ****         //Turn off program to save the file
 201:main.c        ****         if (Button_Read() == 0){
ARM GAS  C:\Users\Nathan\AppData\Local\Temp\ccyb9Lfo.s 			page 5


 202:main.c        ****             
 203:main.c        ****             int start = Counter_Duration_ReadCounter();
 204:main.c        ****             int current;
 205:main.c        ****             
 206:main.c        ****             while(Button_Read() == 0){                
 207:main.c        ****                 current = Counter_Duration_ReadCounter();
 208:main.c        ****                 
 209:main.c        ****                 if ( (current - start) >= 2){
 210:main.c        ****                     LED_Write(1u);
 211:main.c        ****                     endLoop = 1;
 212:main.c        ****                     break;
 213:main.c        ****                 }
 214:main.c        ****             }
 215:main.c        ****         }
 216:main.c        ****         
 217:main.c        ****         if (endLoop ==1){
 218:main.c        ****             break;    
 219:main.c        ****         }
 220:main.c        ****         
 221:main.c        ****     } //End for(;;) loop   
 222:main.c        ****     
 223:main.c        ****     
 224:main.c        ****     //ShutDown Operation
 225:main.c        ****     Close_SD_Card();
 226:main.c        ****     
 227:main.c        ****     while(1){
 228:main.c        ****         CyDelay(100);
 229:main.c        ****         LED_Write(0);
 230:main.c        ****         CyDelay(100);
 231:main.c        ****         LED_Write(1);
 232:main.c        ****     }
 233:main.c        ****     
 234:main.c        **** }/* [] END OF MAIN  */
 235:main.c        **** 
 236:main.c        **** 
 237:main.c        **** 
 238:main.c        **** 
 239:main.c        **** 
 240:main.c        **** 
 241:main.c        **** 
 242:main.c        **** 
 243:main.c        **** 
 244:main.c        **** /*========================= FUNCTION  DEFINITIONS ============================*/
 245:main.c        **** //    -------------------------------------------------------------------
 246:main.c        **** 
 247:main.c        **** 
 248:main.c        **** 
 249:main.c        **** 
 250:main.c        **** //-------------------- SD Card Functions ----------------------------------
 251:main.c        **** 
 252:main.c        **** void Start_SD_Card(){
  28              		.loc 1 252 0
  29              		.cfi_startproc
  30              		@ args = 0, pretend = 0, frame = 0
  31              		@ frame_needed = 0, uses_anonymous_args = 0
  32 0000 08B5     		push	{r3, lr}
  33              		.cfi_def_cfa_offset 8
ARM GAS  C:\Users\Nathan\AppData\Local\Temp\ccyb9Lfo.s 			page 6


  34              		.cfi_offset 3, -8
  35              		.cfi_offset 14, -4
 253:main.c        ****     // set  'char sdFile[15];' as a global
 254:main.c        ****     // set 'FS_FILE * pFile;' as a global too
 255:main.c        ****     // set char sdVolName[12];    as a global
 256:main.c        ****     // fileNumber as a global
 257:main.c        ****    
 258:main.c        ****     
 259:main.c        ****     
 260:main.c        ****     /* Initialize file system */
 261:main.c        ****     FS_Init(); 
  36              		.loc 1 261 0
  37 0002 FFF7FEFF 		bl	FS_Init
  38              	.LVL0:
 262:main.c        ****     CyDelay(250);
  39              		.loc 1 262 0
  40 0006 FA20     		movs	r0, #250
  41 0008 FFF7FEFF 		bl	CyDelay
  42              	.LVL1:
 263:main.c        ****     
 264:main.c        ****     
 265:main.c        **** 
 266:main.c        ****     /* Get volume name of SD card #0 */
 267:main.c        ****     if(0 != FS_GetVolumeName(0u, &sdVolName[0], 12u))
  43              		.loc 1 267 0
  44 000c 0C22     		movs	r2, #12
  45 000e 0C49     		ldr	r1, .L4
  46 0010 0020     		movs	r0, #0
  47 0012 FFF7FEFF 		bl	FS_GetVolumeName
  48              	.LVL2:
 268:main.c        ****     {
 269:main.c        ****         //CAN PUT SOMETHING HERE IF VOLUME NAME IS SUCCESFULLY FOUND
 270:main.c        ****     }
 271:main.c        ****     
 272:main.c        ****     else
 273:main.c        ****     {
 274:main.c        ****         //PUT SOMETHING HERE IF VOLUME IS NOT SUCCESFULLY FOUND
 275:main.c        ****     }
 276:main.c        ****      
 277:main.c        ****     
 278:main.c        ****     FS_Mount (&sdVolName[0]);
  49              		.loc 1 278 0
  50 0016 0A48     		ldr	r0, .L4
  51 0018 FFF7FEFF 		bl	FS_Mount
  52              	.LVL3:
 279:main.c        ****     
 280:main.c        ****        
 281:main.c        ****     
 282:main.c        ****     
 283:main.c        ****     /* Create specific file for modification */
 284:main.c        ****     pFile = FS_FOpen(sdFile, "a");/*
  53              		.loc 1 284 0
  54 001c 0949     		ldr	r1, .L4+4
  55 001e 0A48     		ldr	r0, .L4+8
  56 0020 FFF7FEFF 		bl	FS_FOpen
  57              	.LVL4:
  58 0024 094B     		ldr	r3, .L4+12
ARM GAS  C:\Users\Nathan\AppData\Local\Temp\ccyb9Lfo.s 			page 7


  59 0026 1860     		str	r0, [r3]
 285:main.c        ****     r -for reading
 286:main.c        ****     w -Truncate to zero length or create file for writing
 287:main.c        ****     "a"	-Append; open and create file for writing at end-of-file
 288:main.c        ****     "r+ or rb+ or r+b"	Open file for update (reading and writing)
 289:main.c        ****     "w+ or wb+ or w+b"	Truncate to zero length or create file for update
 290:main.c        ****     "a+ or ab+ or a+b"	Append; open or create for update, writing at end-of-file
 291:main.c        ****     */    
 292:main.c        ****    
 293:main.c        ****     
 294:main.c        ****     
 295:main.c        ****     
 296:main.c        ****     if (pFile){
  60              		.loc 1 296 0
  61 0028 40B1     		cbz	r0, .L1
 297:main.c        ****         EEPROM_WriteByte((fileNumber + 1), 0x1A);   // increments, in eeprom, the file number for n
  62              		.loc 1 297 0
  63 002a 094B     		ldr	r3, .L4+16
  64 002c 1A21     		movs	r1, #26
  65 002e 1878     		ldrb	r0, [r3]	@ zero_extendqisi2
 298:main.c        ****     }
 299:main.c        ****     return;
 300:main.c        **** 
 301:main.c        **** 
 302:main.c        **** }
  66              		.loc 1 302 0
  67 0030 BDE80840 		pop	{r3, lr}
  68              		.cfi_remember_state
  69              		.cfi_restore 14
  70              		.cfi_restore 3
  71              		.cfi_def_cfa_offset 0
 297:main.c        ****         EEPROM_WriteByte((fileNumber + 1), 0x1A);   // increments, in eeprom, the file number for n
  72              		.loc 1 297 0
  73 0034 0130     		adds	r0, r0, #1
  74 0036 C0B2     		uxtb	r0, r0
  75 0038 FFF7FEBF 		b	EEPROM_WriteByte
  76              	.LVL5:
  77              	.L1:
  78              		.cfi_restore_state
  79 003c 08BD     		pop	{r3, pc}
  80              	.L5:
  81 003e 00BF     		.align	2
  82              	.L4:
  83 0040 00000000 		.word	sdVolName
  84 0044 00000000 		.word	.LC0
  85 0048 00000000 		.word	.LANCHOR0
  86 004c 00000000 		.word	pFile
  87 0050 00000000 		.word	fileNumber
  88              		.cfi_endproc
  89              	.LFE65:
  90              		.size	Start_SD_Card, .-Start_SD_Card
  91              		.section	.text.Close_SD_Card,"ax",%progbits
  92              		.align	1
  93              		.global	Close_SD_Card
  94              		.thumb
  95              		.thumb_func
  96              		.type	Close_SD_Card, %function
ARM GAS  C:\Users\Nathan\AppData\Local\Temp\ccyb9Lfo.s 			page 8


  97              	Close_SD_Card:
  98              	.LFB66:
 303:main.c        **** 
 304:main.c        **** 
 305:main.c        **** 
 306:main.c        **** 
 307:main.c        **** void Close_SD_Card(){
  99              		.loc 1 307 0
 100              		.cfi_startproc
 101              		@ args = 0, pretend = 0, frame = 32
 102              		@ frame_needed = 0, uses_anonymous_args = 0
 103 0000 30B5     		push	{r4, r5, lr}
 104              		.cfi_def_cfa_offset 12
 105              		.cfi_offset 4, -12
 106              		.cfi_offset 5, -8
 107              		.cfi_offset 14, -4
 308:main.c        ****     //close file
 309:main.c        ****     if(0 == FS_FClose(pFile))
 108              		.loc 1 309 0
 109 0002 0F4B     		ldr	r3, .L7
 307:main.c        ****     //close file
 110              		.loc 1 307 0
 111 0004 89B0     		sub	sp, sp, #36
 112              		.cfi_def_cfa_offset 48
 113              		.loc 1 309 0
 114 0006 1868     		ldr	r0, [r3]
 115 0008 FFF7FEFF 		bl	FS_FClose
 116              	.LVL6:
 310:main.c        ****     {
 311:main.c        ****     }
 312:main.c        ****     else
 313:main.c        ****     {
 314:main.c        ****     }
 315:main.c        ****     
 316:main.c        ****     
 317:main.c        ****   
 318:main.c        ****     
 319:main.c        ****     char NewDestination[32];
 320:main.c        ****     //Copy a file to a previously created directory
 321:main.c        ****     sprintf(NewDestination,"\\SSASPIRE\\FLIGHT%u.csv",fileNumber);
 117              		.loc 1 321 0
 118 000c 0D4B     		ldr	r3, .L7+4
 322:main.c        ****     if(0 == FS_CopyFile(sdFile,NewDestination))
 119              		.loc 1 322 0
 120 000e 0E4D     		ldr	r5, .L7+8
 321:main.c        ****     if(0 == FS_CopyFile(sdFile,NewDestination))
 121              		.loc 1 321 0
 122 0010 1A78     		ldrb	r2, [r3]	@ zero_extendqisi2
 323:main.c        ****     {
 324:main.c        ****     }
 325:main.c        ****     else
 326:main.c        ****     {
 327:main.c        ****     }
 328:main.c        ****     FS_SetFileTime(sdFile,  0x5ADA0420);
 123              		.loc 1 328 0
 124 0012 0E4C     		ldr	r4, .L7+12
 321:main.c        ****     if(0 == FS_CopyFile(sdFile,NewDestination))
ARM GAS  C:\Users\Nathan\AppData\Local\Temp\ccyb9Lfo.s 			page 9


 125              		.loc 1 321 0
 126 0014 0E49     		ldr	r1, .L7+16
 127 0016 6846     		mov	r0, sp
 128 0018 FFF7FEFF 		bl	sprintf
 129              	.LVL7:
 322:main.c        ****     {
 130              		.loc 1 322 0
 131 001c 6946     		mov	r1, sp
 132 001e 2846     		mov	r0, r5
 133 0020 FFF7FEFF 		bl	FS_CopyFile
 134              	.LVL8:
 135              		.loc 1 328 0
 136 0024 2146     		mov	r1, r4
 137 0026 2846     		mov	r0, r5
 138 0028 FFF7FEFF 		bl	FS_SetFileTime
 139              	.LVL9:
 329:main.c        ****     FS_SetFileTime(NewDestination,  0x5ADA0420);
 140              		.loc 1 329 0
 141 002c 2146     		mov	r1, r4
 142 002e 6846     		mov	r0, sp
 143 0030 FFF7FEFF 		bl	FS_SetFileTime
 144              	.LVL10:
 330:main.c        ****     
 331:main.c        ****     FS_Unmount (&sdVolName[0]); 
 145              		.loc 1 331 0
 146 0034 0748     		ldr	r0, .L7+20
 147 0036 FFF7FEFF 		bl	FS_Unmount
 148              	.LVL11:
 332:main.c        ****     
 333:main.c        ****     
 334:main.c        ****     return;    
 335:main.c        **** }
 149              		.loc 1 335 0
 150 003a 09B0     		add	sp, sp, #36
 151              		.cfi_def_cfa_offset 12
 152              		@ sp needed
 153 003c 30BD     		pop	{r4, r5, pc}
 154              	.L8:
 155 003e 00BF     		.align	2
 156              	.L7:
 157 0040 00000000 		.word	pFile
 158 0044 00000000 		.word	fileNumber
 159 0048 00000000 		.word	.LANCHOR0
 160 004c 2004DA5A 		.word	1524237344
 161 0050 02000000 		.word	.LC1
 162 0054 00000000 		.word	sdVolName
 163              		.cfi_endproc
 164              	.LFE66:
 165              		.size	Close_SD_Card, .-Close_SD_Card
 166              		.section	.text.startup.main,"ax",%progbits
 167              		.align	1
 168              		.global	main
 169              		.thumb
 170              		.thumb_func
 171              		.type	main, %function
 172              	main:
 173              	.LFB64:
ARM GAS  C:\Users\Nathan\AppData\Local\Temp\ccyb9Lfo.s 			page 10


  71:main.c        ****     
 174              		.loc 1 71 0
 175              		.cfi_startproc
 176              		@ args = 0, pretend = 0, frame = 304
 177              		@ frame_needed = 0, uses_anonymous_args = 0
 178 0000 F0B5     		push	{r4, r5, r6, r7, lr}
 179              		.cfi_def_cfa_offset 20
 180              		.cfi_offset 4, -20
 181              		.cfi_offset 5, -16
 182              		.cfi_offset 6, -12
 183              		.cfi_offset 7, -8
 184              		.cfi_offset 14, -4
 185 0002 D3B0     		sub	sp, sp, #332
 186              		.cfi_def_cfa_offset 352
  75:main.c        ****     
 187              		.loc 1 75 0
 188              		.syntax unified
 189              	@ 75 "main.c" 1
 190 0004 62B6     		CPSIE   i
 191              	@ 0 "" 2
  80:main.c        ****     Counter_Duration_Start();
 192              		.loc 1 80 0
 193              		.thumb
 194              		.syntax unified
 195 0006 FFF7FEFF 		bl	Timer_1_Start
 196              	.LVL12:
  81:main.c        ****     
 197              		.loc 1 81 0
 198 000a FFF7FEFF 		bl	Counter_Duration_Start
 199              	.LVL13:
  83:main.c        ****     UART_HC12_Start();
 200              		.loc 1 83 0
 201 000e FFF7FEFF 		bl	GPS_Start
 202              	.LVL14:
  84:main.c        **** 
 203              		.loc 1 84 0
 204 0012 FFF7FEFF 		bl	UART_HC12_Start
 205              	.LVL15:
  86:main.c        ****     Aileron_Start();
 206              		.loc 1 86 0
 207 0016 FFF7FEFF 		bl	Stabilizer_Start
 208              	.LVL16:
  87:main.c        ****     Motor_Speed_Start();
 209              		.loc 1 87 0
 210 001a FFF7FEFF 		bl	Aileron_Start
 211              	.LVL17:
  88:main.c        ****     
 212              		.loc 1 88 0
 213 001e FFF7FEFF 		bl	Motor_Speed_Start
 214              	.LVL18:
  90:main.c        ****     SPI_Altitude_Start();
 215              		.loc 1 90 0
 216 0022 FFF7FEFF 		bl	VDAC8_1_Start
 217              	.LVL19:
  91:main.c        ****     
 218              		.loc 1 91 0
 219 0026 FFF7FEFF 		bl	SPI_Altitude_Start
ARM GAS  C:\Users\Nathan\AppData\Local\Temp\ccyb9Lfo.s 			page 11


 220              	.LVL20:
  95:main.c        **** 
 221              		.loc 1 95 0
 222 002a FFF7FEFF 		bl	AGM_Start
 223              	.LVL21:
  97:main.c        ****     /*
 224              		.loc 1 97 0
 225 002e FFF7FEFF 		bl	EEPROM_Start
 226              	.LVL22:
 111:main.c        **** 
 227              		.loc 1 111 0
 228 0032 1A20     		movs	r0, #26
 229 0034 FFF7FEFF 		bl	EEPROM_ReadByte
 230              	.LVL23:
 231 0038 424B     		ldr	r3, .L26
 145:main.c        ****             
 232              		.loc 1 145 0
 233 003a 434D     		ldr	r5, .L26+4
 111:main.c        **** 
 234              		.loc 1 111 0
 235 003c 1870     		strb	r0, [r3]
 114:main.c        ****         
 236              		.loc 1 114 0
 237 003e FFF7FEFF 		bl	Start_SD_Card
 238              	.LVL24:
 145:main.c        ****             
 239              		.loc 1 145 0
 240 0042 424E     		ldr	r6, .L26+8
 241 0044 424F     		ldr	r7, .L26+12
 242              	.LVL25:
 243              	.L19:
 133:main.c        ****         {
 244              		.loc 1 133 0
 245 0046 FFF7FEFF 		bl	Timer_1_ReadCounter
 246              	.LVL26:
 247 004a 40F2DE33 		movw	r3, #990
 248 004e 9842     		cmp	r0, r3
 249 0050 55DC     		bgt	.L10
 136:main.c        ****             AGM_AccelRefresh();
 250              		.loc 1 136 0
 251 0052 FFF7FEFF 		bl	AGM_EulersRefresh
 252              	.LVL27:
 137:main.c        ****             AGM_GetTemp();
 253              		.loc 1 137 0
 254 0056 FFF7FEFF 		bl	AGM_AccelRefresh
 255              	.LVL28:
 138:main.c        ****             GPS_Refresh();
 256              		.loc 1 138 0
 257 005a FFF7FEFF 		bl	AGM_GetTemp
 258              	.LVL29:
 139:main.c        ****             
 259              		.loc 1 139 0
 260 005e FFF7FEFF 		bl	GPS_Refresh
 261              	.LVL30:
 141:main.c        ****             
 262              		.loc 1 141 0
 263 0062 FFF7FEFF 		bl	Counter_Duration_ReadCounter
ARM GAS  C:\Users\Nathan\AppData\Local\Temp\ccyb9Lfo.s 			page 12


 264              	.LVL31:
 145:main.c        ****             
 265              		.loc 1 145 0
 266 0066 3278     		ldrb	r2, [r6]	@ zero_extendqisi2
 149:main.c        ****                 strcat(dataArray,GPS_RMC_Data);
 267              		.loc 1 149 0
 268 0068 3A4C     		ldr	r4, .L26+16
 145:main.c        ****             
 269              		.loc 1 145 0
 270 006a 0592     		str	r2, [sp, #20]
 271 006c B7F90020 		ldrsh	r2, [r7]
 272 0070 B5F90030 		ldrsh	r3, [r5]
 273 0074 0492     		str	r2, [sp, #16]
 274 0076 384A     		ldr	r2, .L26+20
 275 0078 3849     		ldr	r1, .L26+24
 276 007a B2F90020 		ldrsh	r2, [r2]
 277 007e 0392     		str	r2, [sp, #12]
 278 0080 374A     		ldr	r2, .L26+28
 279 0082 B2F90020 		ldrsh	r2, [r2]
 280 0086 0292     		str	r2, [sp, #8]
 281 0088 364A     		ldr	r2, .L26+32
 282 008a 1288     		ldrh	r2, [r2]
 283 008c 0192     		str	r2, [sp, #4]
 284 008e 364A     		ldr	r2, .L26+36
 285 0090 B2F90020 		ldrsh	r2, [r2]
 286 0094 0092     		str	r2, [sp]
 287 0096 0246     		mov	r2, r0
 288 0098 07A8     		add	r0, sp, #28
 289              	.LVL32:
 290 009a FFF7FEFF 		bl	sprintf
 291              	.LVL33:
 149:main.c        ****                 strcat(dataArray,GPS_RMC_Data);
 292              		.loc 1 149 0
 293 009e 2378     		ldrb	r3, [r4]	@ zero_extendqisi2
 294 00a0 012B     		cmp	r3, #1
 295 00a2 05D1     		bne	.L11
 150:main.c        ****                 NewGPSData = 2;
 296              		.loc 1 150 0
 297 00a4 3149     		ldr	r1, .L26+40
 298 00a6 07A8     		add	r0, sp, #28
 299 00a8 FFF7FEFF 		bl	strcat
 300              	.LVL34:
 151:main.c        ****             }
 301              		.loc 1 151 0
 302 00ac 0223     		movs	r3, #2
 303 00ae 06E0     		b	.L25
 304              	.L11:
 154:main.c        ****                 strcat(dataArray,GPS_GGA_Data);
 305              		.loc 1 154 0
 306 00b0 032B     		cmp	r3, #3
 307 00b2 05D1     		bne	.L12
 155:main.c        ****                 NewGPSData = 0;
 308              		.loc 1 155 0
 309 00b4 2E49     		ldr	r1, .L26+44
 310 00b6 07A8     		add	r0, sp, #28
 311 00b8 FFF7FEFF 		bl	strcat
 312              	.LVL35:
ARM GAS  C:\Users\Nathan\AppData\Local\Temp\ccyb9Lfo.s 			page 13


 156:main.c        ****             }
 313              		.loc 1 156 0
 314 00bc 0023     		movs	r3, #0
 315              	.L25:
 316 00be 2370     		strb	r3, [r4]
 317              	.L12:
 160:main.c        ****             
 318              		.loc 1 160 0
 319 00c0 2C49     		ldr	r1, .L26+48
 320 00c2 07A8     		add	r0, sp, #28
 321 00c4 FFF7FEFF 		bl	strcat
 322              	.LVL36:
 165:main.c        ****                    
 323              		.loc 1 165 0
 324 00c8 07A8     		add	r0, sp, #28
 325 00ca FFF7FEFF 		bl	UART_HC12_PutString
 326              	.LVL37:
 172:main.c        ****             {
 327              		.loc 1 172 0
 328 00ce 2A4B     		ldr	r3, .L26+52
 329 00d0 1C68     		ldr	r4, [r3]
 330 00d2 3CB1     		cbz	r4, .L13
 174:main.c        ****                 {
 331              		.loc 1 174 0
 332 00d4 07A8     		add	r0, sp, #28
 333 00d6 FFF7FEFF 		bl	strlen
 334              	.LVL38:
 335 00da 07A9     		add	r1, sp, #28
 336 00dc 0246     		mov	r2, r0
 337 00de 2046     		mov	r0, r4
 338 00e0 FFF7FEFF 		bl	FS_Write
 339              	.LVL39:
 340              	.L13:
  71:main.c        ****     
 341              		.loc 1 71 0 discriminator 1
 342 00e4 0023     		movs	r3, #0
 343              	.LBB2:
 188:main.c        ****             }
 344              		.loc 1 188 0 discriminator 1
 345 00e6 1946     		mov	r1, r3
 346              	.LVL40:
 347              	.L14:
 188:main.c        ****             }
 348              		.loc 1 188 0 is_stmt 0 discriminator 3
 349 00e8 07AA     		add	r2, sp, #28
 350 00ea 1A44     		add	r2, r2, r3
 351 00ec 0133     		adds	r3, r3, #1
 352              	.LVL41:
 187:main.c        ****                 dataArray[i] = '\0';
 353              		.loc 1 187 0 is_stmt 1 discriminator 3
 354 00ee C82B     		cmp	r3, #200
 188:main.c        ****             }
 355              		.loc 1 188 0 discriminator 3
 356 00f0 82F86410 		strb	r1, [r2, #100]
 187:main.c        ****                 dataArray[i] = '\0';
 357              		.loc 1 187 0 discriminator 3
 358 00f4 F8D1     		bne	.L14
ARM GAS  C:\Users\Nathan\AppData\Local\Temp\ccyb9Lfo.s 			page 14


 359              	.LBE2:
 194:main.c        ****         }//End if 
 360              		.loc 1 194 0
 361 00f6 4FF47A70 		mov	r0, #1000
 362 00fa FFF7FEFF 		bl	Timer_1_WriteCounter
 363              	.LVL42:
 364              	.L10:
 201:main.c        ****             
 365              		.loc 1 201 0
 366 00fe FFF7FEFF 		bl	Button_Read
 367              	.LVL43:
 368 0102 0028     		cmp	r0, #0
 369 0104 9FD1     		bne	.L19
 370              	.LBB3:
 203:main.c        ****             int current;
 371              		.loc 1 203 0
 372 0106 FFF7FEFF 		bl	Counter_Duration_ReadCounter
 373              	.LVL44:
 374 010a 0446     		mov	r4, r0
 375              	.LVL45:
 376              	.L16:
 206:main.c        ****                 current = Counter_Duration_ReadCounter();
 377              		.loc 1 206 0
 378 010c FFF7FEFF 		bl	Button_Read
 379              	.LVL46:
 380 0110 0028     		cmp	r0, #0
 381 0112 98D1     		bne	.L19
 207:main.c        ****                 
 382              		.loc 1 207 0
 383 0114 FFF7FEFF 		bl	Counter_Duration_ReadCounter
 384              	.LVL47:
 209:main.c        ****                     LED_Write(1u);
 385              		.loc 1 209 0
 386 0118 001B     		subs	r0, r0, r4
 387              	.LVL48:
 388 011a 0128     		cmp	r0, #1
 389 011c F6DD     		ble	.L16
 210:main.c        ****                     endLoop = 1;
 390              		.loc 1 210 0
 391 011e 0120     		movs	r0, #1
 392 0120 FFF7FEFF 		bl	LED_Write
 393              	.LVL49:
 394              	.LBE3:
 225:main.c        ****     
 395              		.loc 1 225 0
 396 0124 FFF7FEFF 		bl	Close_SD_Card
 397              	.LVL50:
 398              	.L17:
 228:main.c        ****         LED_Write(0);
 399              		.loc 1 228 0 discriminator 1
 400 0128 6420     		movs	r0, #100
 401 012a FFF7FEFF 		bl	CyDelay
 402              	.LVL51:
 229:main.c        ****         CyDelay(100);
 403              		.loc 1 229 0 discriminator 1
 404 012e 0020     		movs	r0, #0
 405 0130 FFF7FEFF 		bl	LED_Write
ARM GAS  C:\Users\Nathan\AppData\Local\Temp\ccyb9Lfo.s 			page 15


 406              	.LVL52:
 230:main.c        ****         LED_Write(1);
 407              		.loc 1 230 0 discriminator 1
 408 0134 6420     		movs	r0, #100
 409 0136 FFF7FEFF 		bl	CyDelay
 410              	.LVL53:
 231:main.c        ****     }
 411              		.loc 1 231 0 discriminator 1
 412 013a 0120     		movs	r0, #1
 413 013c FFF7FEFF 		bl	LED_Write
 414              	.LVL54:
 415 0140 F2E7     		b	.L17
 416              	.L27:
 417 0142 00BF     		.align	2
 418              	.L26:
 419 0144 00000000 		.word	fileNumber
 420 0148 00000000 		.word	PITCH
 421 014c 00000000 		.word	AGMTEMP
 422 0150 00000000 		.word	ZACCEL
 423 0154 00000000 		.word	.LANCHOR1
 424 0158 00000000 		.word	YACCEL
 425 015c 19000000 		.word	.LC2
 426 0160 00000000 		.word	XACCEL
 427 0164 00000000 		.word	YAW
 428 0168 00000000 		.word	ROLL
 429 016c 00000000 		.word	GPS_RMC_Data
 430 0170 00000000 		.word	GPS_GGA_Data
 431 0174 32000000 		.word	.LC3
 432 0178 00000000 		.word	pFile
 433              		.cfi_endproc
 434              	.LFE64:
 435              		.size	main, .-main
 436              		.section	.text.GPS_Handler,"ax",%progbits
 437              		.align	1
 438              		.global	GPS_Handler
 439              		.thumb
 440              		.thumb_func
 441              		.type	GPS_Handler, %function
 442              	GPS_Handler:
 443              	.LFB67:
 336:main.c        **** 
 337:main.c        **** 
 338:main.c        **** 
 339:main.c        **** 
 340:main.c        **** CY_ISR(GPS_Handler)
 341:main.c        **** {
 444              		.loc 1 341 0
 445              		.cfi_startproc
 446              		@ args = 0, pretend = 0, frame = 0
 447              		@ frame_needed = 0, uses_anonymous_args = 0
 448              		@ link register save eliminated.
 449 0000 7047     		bx	lr
 450              		.cfi_endproc
 451              	.LFE67:
 452              		.size	GPS_Handler, .-GPS_Handler
 453              		.comm	fileNumber,1,1
 454              		.comm	sdVolName,12,1
ARM GAS  C:\Users\Nathan\AppData\Local\Temp\ccyb9Lfo.s 			page 16


 455              		.comm	pFile,4,4
 456              		.global	sdFile
 457              		.global	NewGPSData
 458              		.comm	GPS_GGA_Data,100,1
 459              		.comm	GPS_RMC_Data,100,1
 460              		.comm	AGMTEMP,1,1
 461              		.comm	ZACCEL,2,2
 462              		.comm	YACCEL,2,2
 463              		.comm	XACCEL,2,2
 464              		.comm	YAW,2,2
 465              		.comm	PITCH,2,2
 466              		.comm	ROLL,2,2
 467              		.section	.rodata.str1.1,"aMS",%progbits,1
 468              	.LC0:
 469 0000 6100     		.ascii	"a\000"
 470              	.LC1:
 471 0002 5C535341 		.ascii	"\\SSASPIRE\\FLIGHT%u.csv\000"
 471      53504952 
 471      455C464C 
 471      49474854 
 471      25752E63 
 472              	.LC2:
 473 0019 25752C25 		.ascii	"%u,%i,%i,%i,%i,%i,%i,%i,\000"
 473      692C2569 
 473      2C25692C 
 473      25692C25 
 473      692C2569 
 474              	.LC3:
 475 0032 0D0A00   		.ascii	"\015\012\000"
 476              		.data
 477              		.set	.LANCHOR0,. + 0
 478              		.type	sdFile, %object
 479              		.size	sdFile, 13
 480              	sdFile:
 481 0000 54       		.byte	84
 482 0001 45       		.byte	69
 483 0002 4D       		.byte	77
 484 0003 50       		.byte	80
 485 0004 44       		.byte	68
 486 0005 41       		.byte	65
 487 0006 54       		.byte	84
 488 0007 41       		.byte	65
 489 0008 2E       		.byte	46
 490 0009 74       		.byte	116
 491 000a 78       		.byte	120
 492 000b 74       		.byte	116
 493 000c 00       		.space	1
 494              		.bss
 495              		.set	.LANCHOR1,. + 0
 496              		.type	NewGPSData, %object
 497              		.size	NewGPSData, 1
 498              	NewGPSData:
 499 0000 00       		.space	1
 500              		.text
 501              	.Letext0:
 502              		.file 2 "c:\\program files (x86)\\cypress\\psoc creator\\4.1\\psoc creator\\import\\gnu\\arm\\5.4.
 503              		.file 3 "c:\\program files (x86)\\cypress\\psoc creator\\4.1\\psoc creator\\import\\gnu\\arm\\5.4.
ARM GAS  C:\Users\Nathan\AppData\Local\Temp\ccyb9Lfo.s 			page 17


 504              		.file 4 "Generated_Source\\PSoC5/cytypes.h"
 505              		.file 5 "./FS_Types.h"
 506              		.file 6 "c:\\program files (x86)\\cypress\\psoc creator\\4.1\\psoc creator\\import\\gnu\\arm\\5.4.
 507              		.file 7 "Generated_Source\\PSoC5/core_cm3.h"
 508              		.file 8 "Adafruit_BNO055.h"
 509              		.file 9 "Adafruit_GPS.h"
 510              		.file 10 "./FS.h"
 511              		.file 11 "Generated_Source\\PSoC5/CyLib.h"
 512              		.file 12 "Generated_Source\\PSoC5/EEPROM.h"
 513              		.file 13 "c:\\program files (x86)\\cypress\\psoc creator\\4.1\\psoc creator\\import\\gnu\\arm\\5.4
 514              		.file 14 "Generated_Source\\PSoC5/Counter_Duration.h"
 515              		.file 15 "Generated_Source\\PSoC5/Button.h"
 516              		.file 16 "Generated_Source\\PSoC5/LED.h"
 517              		.file 17 "Generated_Source\\PSoC5/Timer_1.h"
 518              		.file 18 "Generated_Source\\PSoC5/UART_HC12.h"
 519              		.file 19 "Generated_Source\\PSoC5/Stabilizer.h"
 520              		.file 20 "Generated_Source\\PSoC5/Aileron.h"
 521              		.file 21 "Generated_Source\\PSoC5/Motor_Speed.h"
 522              		.file 22 "Generated_Source\\PSoC5/VDAC8_1.h"
 523              		.file 23 "Generated_Source\\PSoC5/SPI_Altitude.h"
 524              		.file 24 "c:\\program files (x86)\\cypress\\psoc creator\\4.1\\psoc creator\\import\\gnu\\arm\\5.4