ARM GAS  C:\Users\Nathan\AppData\Local\Temp\ccxYnS06.s 			page 1


   1              		.syntax unified
   2              		.cpu cortex-m3
   3              		.fpu softvfp
   4              		.eabi_attribute 20, 1
   5              		.eabi_attribute 21, 1
   6              		.eabi_attribute 23, 3
   7              		.eabi_attribute 24, 1
   8              		.eabi_attribute 25, 1
   9              		.eabi_attribute 26, 1
  10              		.eabi_attribute 30, 4
  11              		.eabi_attribute 34, 1
  12              		.eabi_attribute 18, 4
  13              		.thumb
  14              		.syntax unified
  15              		.file	"SPI_Altitude.c"
  16              		.text
  17              	.Ltext0:
  18              		.cfi_sections	.debug_frame
  19              		.section	.text.SPI_Altitude_Enable,"ax",%progbits
  20              		.align	1
  21              		.global	SPI_Altitude_Enable
  22              		.thumb
  23              		.thumb_func
  24              		.type	SPI_Altitude_Enable, %function
  25              	SPI_Altitude_Enable:
  26              	.LFB1:
  27              		.file 1 "Generated_Source\\PSoC5\\SPI_Altitude.c"
   1:Generated_Source\PSoC5/SPI_Altitude.c **** /*******************************************************************************
   2:Generated_Source\PSoC5/SPI_Altitude.c **** * File Name: SPI_Altitude.c
   3:Generated_Source\PSoC5/SPI_Altitude.c **** * Version 2.50
   4:Generated_Source\PSoC5/SPI_Altitude.c **** *
   5:Generated_Source\PSoC5/SPI_Altitude.c **** * Description:
   6:Generated_Source\PSoC5/SPI_Altitude.c **** *  This file provides all API functionality of the SPI Master component.
   7:Generated_Source\PSoC5/SPI_Altitude.c **** *
   8:Generated_Source\PSoC5/SPI_Altitude.c **** * Note:
   9:Generated_Source\PSoC5/SPI_Altitude.c **** *  None.
  10:Generated_Source\PSoC5/SPI_Altitude.c **** *
  11:Generated_Source\PSoC5/SPI_Altitude.c **** ********************************************************************************
  12:Generated_Source\PSoC5/SPI_Altitude.c **** * Copyright 2008-2015, Cypress Semiconductor Corporation.  All rights reserved.
  13:Generated_Source\PSoC5/SPI_Altitude.c **** * You may use this file only in accordance with the license, terms, conditions,
  14:Generated_Source\PSoC5/SPI_Altitude.c **** * disclaimers, and limitations in the end user license agreement accompanying
  15:Generated_Source\PSoC5/SPI_Altitude.c **** * the software package with which this file was provided.
  16:Generated_Source\PSoC5/SPI_Altitude.c **** *******************************************************************************/
  17:Generated_Source\PSoC5/SPI_Altitude.c **** 
  18:Generated_Source\PSoC5/SPI_Altitude.c **** #include "SPI_Altitude_PVT.h"
  19:Generated_Source\PSoC5/SPI_Altitude.c **** 
  20:Generated_Source\PSoC5/SPI_Altitude.c **** #if(SPI_Altitude_TX_SOFTWARE_BUF_ENABLED)
  21:Generated_Source\PSoC5/SPI_Altitude.c ****     volatile uint8 SPI_Altitude_txBuffer[SPI_Altitude_TX_BUFFER_SIZE];
  22:Generated_Source\PSoC5/SPI_Altitude.c ****     volatile uint8 SPI_Altitude_txBufferFull;
  23:Generated_Source\PSoC5/SPI_Altitude.c ****     volatile uint8 SPI_Altitude_txBufferRead;
  24:Generated_Source\PSoC5/SPI_Altitude.c ****     volatile uint8 SPI_Altitude_txBufferWrite;
  25:Generated_Source\PSoC5/SPI_Altitude.c **** #endif /* (SPI_Altitude_TX_SOFTWARE_BUF_ENABLED) */
  26:Generated_Source\PSoC5/SPI_Altitude.c **** 
  27:Generated_Source\PSoC5/SPI_Altitude.c **** #if(SPI_Altitude_RX_SOFTWARE_BUF_ENABLED)
  28:Generated_Source\PSoC5/SPI_Altitude.c ****     volatile uint8 SPI_Altitude_rxBuffer[SPI_Altitude_RX_BUFFER_SIZE];
  29:Generated_Source\PSoC5/SPI_Altitude.c ****     volatile uint8 SPI_Altitude_rxBufferFull;
  30:Generated_Source\PSoC5/SPI_Altitude.c ****     volatile uint8 SPI_Altitude_rxBufferRead;
ARM GAS  C:\Users\Nathan\AppData\Local\Temp\ccxYnS06.s 			page 2


  31:Generated_Source\PSoC5/SPI_Altitude.c ****     volatile uint8 SPI_Altitude_rxBufferWrite;
  32:Generated_Source\PSoC5/SPI_Altitude.c **** #endif /* (SPI_Altitude_RX_SOFTWARE_BUF_ENABLED) */
  33:Generated_Source\PSoC5/SPI_Altitude.c **** 
  34:Generated_Source\PSoC5/SPI_Altitude.c **** uint8 SPI_Altitude_initVar = 0u;
  35:Generated_Source\PSoC5/SPI_Altitude.c **** 
  36:Generated_Source\PSoC5/SPI_Altitude.c **** volatile uint8 SPI_Altitude_swStatusTx;
  37:Generated_Source\PSoC5/SPI_Altitude.c **** volatile uint8 SPI_Altitude_swStatusRx;
  38:Generated_Source\PSoC5/SPI_Altitude.c **** 
  39:Generated_Source\PSoC5/SPI_Altitude.c **** 
  40:Generated_Source\PSoC5/SPI_Altitude.c **** /*******************************************************************************
  41:Generated_Source\PSoC5/SPI_Altitude.c **** * Function Name: SPI_Altitude_Init
  42:Generated_Source\PSoC5/SPI_Altitude.c **** ********************************************************************************
  43:Generated_Source\PSoC5/SPI_Altitude.c **** *
  44:Generated_Source\PSoC5/SPI_Altitude.c **** * Summary:
  45:Generated_Source\PSoC5/SPI_Altitude.c **** *  Inits/Restores default SPIM configuration provided with customizer.
  46:Generated_Source\PSoC5/SPI_Altitude.c **** *
  47:Generated_Source\PSoC5/SPI_Altitude.c **** * Parameters:
  48:Generated_Source\PSoC5/SPI_Altitude.c **** *  None.
  49:Generated_Source\PSoC5/SPI_Altitude.c **** *
  50:Generated_Source\PSoC5/SPI_Altitude.c **** * Return:
  51:Generated_Source\PSoC5/SPI_Altitude.c **** *  None.
  52:Generated_Source\PSoC5/SPI_Altitude.c **** *
  53:Generated_Source\PSoC5/SPI_Altitude.c **** * Side Effects:
  54:Generated_Source\PSoC5/SPI_Altitude.c **** *  When this function is called it initializes all of the necessary parameters
  55:Generated_Source\PSoC5/SPI_Altitude.c **** *  for execution. i.e. setting the initial interrupt mask, configuring the
  56:Generated_Source\PSoC5/SPI_Altitude.c **** *  interrupt service routine, configuring the bit-counter parameters and
  57:Generated_Source\PSoC5/SPI_Altitude.c **** *  clearing the FIFO and Status Register.
  58:Generated_Source\PSoC5/SPI_Altitude.c **** *
  59:Generated_Source\PSoC5/SPI_Altitude.c **** * Reentrant:
  60:Generated_Source\PSoC5/SPI_Altitude.c **** *  No.
  61:Generated_Source\PSoC5/SPI_Altitude.c **** *
  62:Generated_Source\PSoC5/SPI_Altitude.c **** *******************************************************************************/
  63:Generated_Source\PSoC5/SPI_Altitude.c **** void SPI_Altitude_Init(void) 
  64:Generated_Source\PSoC5/SPI_Altitude.c **** {
  65:Generated_Source\PSoC5/SPI_Altitude.c ****     /* Initialize the Bit counter */
  66:Generated_Source\PSoC5/SPI_Altitude.c ****     SPI_Altitude_COUNTER_PERIOD_REG = SPI_Altitude_BITCTR_INIT;
  67:Generated_Source\PSoC5/SPI_Altitude.c **** 
  68:Generated_Source\PSoC5/SPI_Altitude.c ****     /* Init TX ISR  */
  69:Generated_Source\PSoC5/SPI_Altitude.c ****     #if(0u != SPI_Altitude_INTERNAL_TX_INT_ENABLED)
  70:Generated_Source\PSoC5/SPI_Altitude.c ****         CyIntDisable         (SPI_Altitude_TX_ISR_NUMBER);
  71:Generated_Source\PSoC5/SPI_Altitude.c ****         CyIntSetPriority     (SPI_Altitude_TX_ISR_NUMBER,  SPI_Altitude_TX_ISR_PRIORITY);
  72:Generated_Source\PSoC5/SPI_Altitude.c ****         (void) CyIntSetVector(SPI_Altitude_TX_ISR_NUMBER, &SPI_Altitude_TX_ISR);
  73:Generated_Source\PSoC5/SPI_Altitude.c ****     #endif /* (0u != SPI_Altitude_INTERNAL_TX_INT_ENABLED) */
  74:Generated_Source\PSoC5/SPI_Altitude.c **** 
  75:Generated_Source\PSoC5/SPI_Altitude.c ****     /* Init RX ISR  */
  76:Generated_Source\PSoC5/SPI_Altitude.c ****     #if(0u != SPI_Altitude_INTERNAL_RX_INT_ENABLED)
  77:Generated_Source\PSoC5/SPI_Altitude.c ****         CyIntDisable         (SPI_Altitude_RX_ISR_NUMBER);
  78:Generated_Source\PSoC5/SPI_Altitude.c ****         CyIntSetPriority     (SPI_Altitude_RX_ISR_NUMBER,  SPI_Altitude_RX_ISR_PRIORITY);
  79:Generated_Source\PSoC5/SPI_Altitude.c ****         (void) CyIntSetVector(SPI_Altitude_RX_ISR_NUMBER, &SPI_Altitude_RX_ISR);
  80:Generated_Source\PSoC5/SPI_Altitude.c ****     #endif /* (0u != SPI_Altitude_INTERNAL_RX_INT_ENABLED) */
  81:Generated_Source\PSoC5/SPI_Altitude.c **** 
  82:Generated_Source\PSoC5/SPI_Altitude.c ****     /* Clear any stray data from the RX and TX FIFO */
  83:Generated_Source\PSoC5/SPI_Altitude.c ****     SPI_Altitude_ClearFIFO();
  84:Generated_Source\PSoC5/SPI_Altitude.c **** 
  85:Generated_Source\PSoC5/SPI_Altitude.c ****     #if(SPI_Altitude_RX_SOFTWARE_BUF_ENABLED)
  86:Generated_Source\PSoC5/SPI_Altitude.c ****         SPI_Altitude_rxBufferFull  = 0u;
  87:Generated_Source\PSoC5/SPI_Altitude.c ****         SPI_Altitude_rxBufferRead  = 0u;
ARM GAS  C:\Users\Nathan\AppData\Local\Temp\ccxYnS06.s 			page 3


  88:Generated_Source\PSoC5/SPI_Altitude.c ****         SPI_Altitude_rxBufferWrite = 0u;
  89:Generated_Source\PSoC5/SPI_Altitude.c ****     #endif /* (SPI_Altitude_RX_SOFTWARE_BUF_ENABLED) */
  90:Generated_Source\PSoC5/SPI_Altitude.c **** 
  91:Generated_Source\PSoC5/SPI_Altitude.c ****     #if(SPI_Altitude_TX_SOFTWARE_BUF_ENABLED)
  92:Generated_Source\PSoC5/SPI_Altitude.c ****         SPI_Altitude_txBufferFull  = 0u;
  93:Generated_Source\PSoC5/SPI_Altitude.c ****         SPI_Altitude_txBufferRead  = 0u;
  94:Generated_Source\PSoC5/SPI_Altitude.c ****         SPI_Altitude_txBufferWrite = 0u;
  95:Generated_Source\PSoC5/SPI_Altitude.c ****     #endif /* (SPI_Altitude_TX_SOFTWARE_BUF_ENABLED) */
  96:Generated_Source\PSoC5/SPI_Altitude.c **** 
  97:Generated_Source\PSoC5/SPI_Altitude.c ****     (void) SPI_Altitude_ReadTxStatus(); /* Clear Tx status and swStatusTx */
  98:Generated_Source\PSoC5/SPI_Altitude.c ****     (void) SPI_Altitude_ReadRxStatus(); /* Clear Rx status and swStatusRx */
  99:Generated_Source\PSoC5/SPI_Altitude.c **** 
 100:Generated_Source\PSoC5/SPI_Altitude.c ****     /* Configure TX and RX interrupt mask */
 101:Generated_Source\PSoC5/SPI_Altitude.c ****     SPI_Altitude_TX_STATUS_MASK_REG = SPI_Altitude_TX_INIT_INTERRUPTS_MASK;
 102:Generated_Source\PSoC5/SPI_Altitude.c ****     SPI_Altitude_RX_STATUS_MASK_REG = SPI_Altitude_RX_INIT_INTERRUPTS_MASK;
 103:Generated_Source\PSoC5/SPI_Altitude.c **** }
 104:Generated_Source\PSoC5/SPI_Altitude.c **** 
 105:Generated_Source\PSoC5/SPI_Altitude.c **** 
 106:Generated_Source\PSoC5/SPI_Altitude.c **** /*******************************************************************************
 107:Generated_Source\PSoC5/SPI_Altitude.c **** * Function Name: SPI_Altitude_Enable
 108:Generated_Source\PSoC5/SPI_Altitude.c **** ********************************************************************************
 109:Generated_Source\PSoC5/SPI_Altitude.c **** *
 110:Generated_Source\PSoC5/SPI_Altitude.c **** * Summary:
 111:Generated_Source\PSoC5/SPI_Altitude.c **** *  Enable SPIM component.
 112:Generated_Source\PSoC5/SPI_Altitude.c **** *
 113:Generated_Source\PSoC5/SPI_Altitude.c **** * Parameters:
 114:Generated_Source\PSoC5/SPI_Altitude.c **** *  None.
 115:Generated_Source\PSoC5/SPI_Altitude.c **** *
 116:Generated_Source\PSoC5/SPI_Altitude.c **** * Return:
 117:Generated_Source\PSoC5/SPI_Altitude.c **** *  None.
 118:Generated_Source\PSoC5/SPI_Altitude.c **** *
 119:Generated_Source\PSoC5/SPI_Altitude.c **** *******************************************************************************/
 120:Generated_Source\PSoC5/SPI_Altitude.c **** void SPI_Altitude_Enable(void) 
 121:Generated_Source\PSoC5/SPI_Altitude.c **** {
  28              		.loc 1 121 0
  29              		.cfi_startproc
  30              		@ args = 0, pretend = 0, frame = 0
  31              		@ frame_needed = 0, uses_anonymous_args = 0
  32 0000 08B5     		push	{r3, lr}
  33              		.cfi_def_cfa_offset 8
  34              		.cfi_offset 3, -8
  35              		.cfi_offset 14, -4
 122:Generated_Source\PSoC5/SPI_Altitude.c ****     uint8 enableInterrupts;
 123:Generated_Source\PSoC5/SPI_Altitude.c **** 
 124:Generated_Source\PSoC5/SPI_Altitude.c ****     enableInterrupts = CyEnterCriticalSection();
  36              		.loc 1 124 0
  37 0002 FFF7FEFF 		bl	CyEnterCriticalSection
  38              	.LVL0:
 125:Generated_Source\PSoC5/SPI_Altitude.c ****     SPI_Altitude_COUNTER_CONTROL_REG |= SPI_Altitude_CNTR_ENABLE;
  39              		.loc 1 125 0
  40 0006 0D4A     		ldr	r2, .L2
  41 0008 1378     		ldrb	r3, [r2]	@ zero_extendqisi2
 126:Generated_Source\PSoC5/SPI_Altitude.c ****     SPI_Altitude_TX_STATUS_ACTL_REG  |= SPI_Altitude_INT_ENABLE;
 127:Generated_Source\PSoC5/SPI_Altitude.c ****     SPI_Altitude_RX_STATUS_ACTL_REG  |= SPI_Altitude_INT_ENABLE;
  42              		.loc 1 127 0
  43 000a 043A     		subs	r2, r2, #4
 125:Generated_Source\PSoC5/SPI_Altitude.c ****     SPI_Altitude_COUNTER_CONTROL_REG |= SPI_Altitude_CNTR_ENABLE;
ARM GAS  C:\Users\Nathan\AppData\Local\Temp\ccxYnS06.s 			page 4


  44              		.loc 1 125 0
  45 000c 43F02003 		orr	r3, r3, #32
  46 0010 1371     		strb	r3, [r2, #4]
 126:Generated_Source\PSoC5/SPI_Altitude.c ****     SPI_Altitude_TX_STATUS_ACTL_REG  |= SPI_Altitude_INT_ENABLE;
  47              		.loc 1 126 0
  48 0012 92F80731 		ldrb	r3, [r2, #263]	@ zero_extendqisi2
  49 0016 43F01003 		orr	r3, r3, #16
  50 001a 82F80731 		strb	r3, [r2, #263]
  51              		.loc 1 127 0
  52 001e 1378     		ldrb	r3, [r2]	@ zero_extendqisi2
  53 0020 43F01003 		orr	r3, r3, #16
  54 0024 1370     		strb	r3, [r2]
 128:Generated_Source\PSoC5/SPI_Altitude.c ****     CyExitCriticalSection(enableInterrupts);
  55              		.loc 1 128 0
  56 0026 FFF7FEFF 		bl	CyExitCriticalSection
  57              	.LVL1:
 129:Generated_Source\PSoC5/SPI_Altitude.c **** 
 130:Generated_Source\PSoC5/SPI_Altitude.c ****     #if(0u != SPI_Altitude_INTERNAL_CLOCK)
 131:Generated_Source\PSoC5/SPI_Altitude.c ****         SPI_Altitude_IntClock_Enable();
  58              		.loc 1 131 0
  59 002a FFF7FEFF 		bl	SPI_Altitude_IntClock_Start
  60              	.LVL2:
  61              	.LBB50:
  62              	.LBB51:
 132:Generated_Source\PSoC5/SPI_Altitude.c ****     #endif /* (0u != SPI_Altitude_INTERNAL_CLOCK) */
 133:Generated_Source\PSoC5/SPI_Altitude.c **** 
 134:Generated_Source\PSoC5/SPI_Altitude.c ****     SPI_Altitude_EnableTxInt();
 135:Generated_Source\PSoC5/SPI_Altitude.c ****     SPI_Altitude_EnableRxInt();
 136:Generated_Source\PSoC5/SPI_Altitude.c **** }
 137:Generated_Source\PSoC5/SPI_Altitude.c **** 
 138:Generated_Source\PSoC5/SPI_Altitude.c **** 
 139:Generated_Source\PSoC5/SPI_Altitude.c **** /*******************************************************************************
 140:Generated_Source\PSoC5/SPI_Altitude.c **** * Function Name: SPI_Altitude_Start
 141:Generated_Source\PSoC5/SPI_Altitude.c **** ********************************************************************************
 142:Generated_Source\PSoC5/SPI_Altitude.c **** *
 143:Generated_Source\PSoC5/SPI_Altitude.c **** * Summary:
 144:Generated_Source\PSoC5/SPI_Altitude.c **** *  Initialize and Enable the SPI Master component.
 145:Generated_Source\PSoC5/SPI_Altitude.c **** *
 146:Generated_Source\PSoC5/SPI_Altitude.c **** * Parameters:
 147:Generated_Source\PSoC5/SPI_Altitude.c **** *  None.
 148:Generated_Source\PSoC5/SPI_Altitude.c **** *
 149:Generated_Source\PSoC5/SPI_Altitude.c **** * Return:
 150:Generated_Source\PSoC5/SPI_Altitude.c **** *  None.
 151:Generated_Source\PSoC5/SPI_Altitude.c **** *
 152:Generated_Source\PSoC5/SPI_Altitude.c **** * Global variables:
 153:Generated_Source\PSoC5/SPI_Altitude.c **** *  SPI_Altitude_initVar - used to check initial configuration, modified on
 154:Generated_Source\PSoC5/SPI_Altitude.c **** *  first function call.
 155:Generated_Source\PSoC5/SPI_Altitude.c **** *
 156:Generated_Source\PSoC5/SPI_Altitude.c **** * Theory:
 157:Generated_Source\PSoC5/SPI_Altitude.c **** *  Enable the clock input to enable operation.
 158:Generated_Source\PSoC5/SPI_Altitude.c **** *
 159:Generated_Source\PSoC5/SPI_Altitude.c **** * Reentrant:
 160:Generated_Source\PSoC5/SPI_Altitude.c **** *  No.
 161:Generated_Source\PSoC5/SPI_Altitude.c **** *
 162:Generated_Source\PSoC5/SPI_Altitude.c **** *******************************************************************************/
 163:Generated_Source\PSoC5/SPI_Altitude.c **** void SPI_Altitude_Start(void) 
 164:Generated_Source\PSoC5/SPI_Altitude.c **** {
ARM GAS  C:\Users\Nathan\AppData\Local\Temp\ccxYnS06.s 			page 5


 165:Generated_Source\PSoC5/SPI_Altitude.c ****     if(0u == SPI_Altitude_initVar)
 166:Generated_Source\PSoC5/SPI_Altitude.c ****     {
 167:Generated_Source\PSoC5/SPI_Altitude.c ****         SPI_Altitude_Init();
 168:Generated_Source\PSoC5/SPI_Altitude.c ****         SPI_Altitude_initVar = 1u;
 169:Generated_Source\PSoC5/SPI_Altitude.c ****     }
 170:Generated_Source\PSoC5/SPI_Altitude.c **** 
 171:Generated_Source\PSoC5/SPI_Altitude.c ****     SPI_Altitude_Enable();
 172:Generated_Source\PSoC5/SPI_Altitude.c **** }
 173:Generated_Source\PSoC5/SPI_Altitude.c **** 
 174:Generated_Source\PSoC5/SPI_Altitude.c **** 
 175:Generated_Source\PSoC5/SPI_Altitude.c **** /*******************************************************************************
 176:Generated_Source\PSoC5/SPI_Altitude.c **** * Function Name: SPI_Altitude_Stop
 177:Generated_Source\PSoC5/SPI_Altitude.c **** ********************************************************************************
 178:Generated_Source\PSoC5/SPI_Altitude.c **** *
 179:Generated_Source\PSoC5/SPI_Altitude.c **** * Summary:
 180:Generated_Source\PSoC5/SPI_Altitude.c **** *  Disable the SPI Master component.
 181:Generated_Source\PSoC5/SPI_Altitude.c **** *
 182:Generated_Source\PSoC5/SPI_Altitude.c **** * Parameters:
 183:Generated_Source\PSoC5/SPI_Altitude.c **** *  None.
 184:Generated_Source\PSoC5/SPI_Altitude.c **** *
 185:Generated_Source\PSoC5/SPI_Altitude.c **** * Return:
 186:Generated_Source\PSoC5/SPI_Altitude.c **** *  None.
 187:Generated_Source\PSoC5/SPI_Altitude.c **** *
 188:Generated_Source\PSoC5/SPI_Altitude.c **** * Theory:
 189:Generated_Source\PSoC5/SPI_Altitude.c **** *  Disable the clock input to enable operation.
 190:Generated_Source\PSoC5/SPI_Altitude.c **** *
 191:Generated_Source\PSoC5/SPI_Altitude.c **** *******************************************************************************/
 192:Generated_Source\PSoC5/SPI_Altitude.c **** void SPI_Altitude_Stop(void) 
 193:Generated_Source\PSoC5/SPI_Altitude.c **** {
 194:Generated_Source\PSoC5/SPI_Altitude.c ****     uint8 enableInterrupts;
 195:Generated_Source\PSoC5/SPI_Altitude.c **** 
 196:Generated_Source\PSoC5/SPI_Altitude.c ****     enableInterrupts = CyEnterCriticalSection();
 197:Generated_Source\PSoC5/SPI_Altitude.c ****     SPI_Altitude_TX_STATUS_ACTL_REG &= ((uint8) ~SPI_Altitude_INT_ENABLE);
 198:Generated_Source\PSoC5/SPI_Altitude.c ****     SPI_Altitude_RX_STATUS_ACTL_REG &= ((uint8) ~SPI_Altitude_INT_ENABLE);
 199:Generated_Source\PSoC5/SPI_Altitude.c ****     CyExitCriticalSection(enableInterrupts);
 200:Generated_Source\PSoC5/SPI_Altitude.c **** 
 201:Generated_Source\PSoC5/SPI_Altitude.c ****     #if(0u != SPI_Altitude_INTERNAL_CLOCK)
 202:Generated_Source\PSoC5/SPI_Altitude.c ****         SPI_Altitude_IntClock_Disable();
 203:Generated_Source\PSoC5/SPI_Altitude.c ****     #endif /* (0u != SPI_Altitude_INTERNAL_CLOCK) */
 204:Generated_Source\PSoC5/SPI_Altitude.c **** 
 205:Generated_Source\PSoC5/SPI_Altitude.c ****     SPI_Altitude_DisableTxInt();
 206:Generated_Source\PSoC5/SPI_Altitude.c ****     SPI_Altitude_DisableRxInt();
 207:Generated_Source\PSoC5/SPI_Altitude.c **** }
 208:Generated_Source\PSoC5/SPI_Altitude.c **** 
 209:Generated_Source\PSoC5/SPI_Altitude.c **** 
 210:Generated_Source\PSoC5/SPI_Altitude.c **** /*******************************************************************************
 211:Generated_Source\PSoC5/SPI_Altitude.c **** * Function Name: SPI_Altitude_EnableTxInt
 212:Generated_Source\PSoC5/SPI_Altitude.c **** ********************************************************************************
 213:Generated_Source\PSoC5/SPI_Altitude.c **** *
 214:Generated_Source\PSoC5/SPI_Altitude.c **** * Summary:
 215:Generated_Source\PSoC5/SPI_Altitude.c **** *  Enable internal Tx interrupt generation.
 216:Generated_Source\PSoC5/SPI_Altitude.c **** *
 217:Generated_Source\PSoC5/SPI_Altitude.c **** * Parameters:
 218:Generated_Source\PSoC5/SPI_Altitude.c **** *  None.
 219:Generated_Source\PSoC5/SPI_Altitude.c **** *
 220:Generated_Source\PSoC5/SPI_Altitude.c **** * Return:
 221:Generated_Source\PSoC5/SPI_Altitude.c **** *  None.
ARM GAS  C:\Users\Nathan\AppData\Local\Temp\ccxYnS06.s 			page 6


 222:Generated_Source\PSoC5/SPI_Altitude.c **** *
 223:Generated_Source\PSoC5/SPI_Altitude.c **** * Theory:
 224:Generated_Source\PSoC5/SPI_Altitude.c **** *  Enable the internal Tx interrupt output -or- the interrupt component itself.
 225:Generated_Source\PSoC5/SPI_Altitude.c **** *
 226:Generated_Source\PSoC5/SPI_Altitude.c **** *******************************************************************************/
 227:Generated_Source\PSoC5/SPI_Altitude.c **** void SPI_Altitude_EnableTxInt(void) 
 228:Generated_Source\PSoC5/SPI_Altitude.c **** {
 229:Generated_Source\PSoC5/SPI_Altitude.c ****     #if(0u != SPI_Altitude_INTERNAL_TX_INT_ENABLED)
 230:Generated_Source\PSoC5/SPI_Altitude.c ****         CyIntEnable(SPI_Altitude_TX_ISR_NUMBER);
  63              		.loc 1 230 0
  64 002e 044B     		ldr	r3, .L2+4
  65 0030 0222     		movs	r2, #2
  66 0032 1A60     		str	r2, [r3]
  67              	.LBE51:
  68              	.LBE50:
  69              	.LBB52:
  70              	.LBB53:
 231:Generated_Source\PSoC5/SPI_Altitude.c ****     #endif /* (0u != SPI_Altitude_INTERNAL_TX_INT_ENABLED) */
 232:Generated_Source\PSoC5/SPI_Altitude.c **** }
 233:Generated_Source\PSoC5/SPI_Altitude.c **** 
 234:Generated_Source\PSoC5/SPI_Altitude.c **** 
 235:Generated_Source\PSoC5/SPI_Altitude.c **** /*******************************************************************************
 236:Generated_Source\PSoC5/SPI_Altitude.c **** * Function Name: SPI_Altitude_EnableRxInt
 237:Generated_Source\PSoC5/SPI_Altitude.c **** ********************************************************************************
 238:Generated_Source\PSoC5/SPI_Altitude.c **** *
 239:Generated_Source\PSoC5/SPI_Altitude.c **** * Summary:
 240:Generated_Source\PSoC5/SPI_Altitude.c **** *  Enable internal Rx interrupt generation.
 241:Generated_Source\PSoC5/SPI_Altitude.c **** *
 242:Generated_Source\PSoC5/SPI_Altitude.c **** * Parameters:
 243:Generated_Source\PSoC5/SPI_Altitude.c **** *  None.
 244:Generated_Source\PSoC5/SPI_Altitude.c **** *
 245:Generated_Source\PSoC5/SPI_Altitude.c **** * Return:
 246:Generated_Source\PSoC5/SPI_Altitude.c **** *  None.
 247:Generated_Source\PSoC5/SPI_Altitude.c **** *
 248:Generated_Source\PSoC5/SPI_Altitude.c **** * Theory:
 249:Generated_Source\PSoC5/SPI_Altitude.c **** *  Enable the internal Rx interrupt output -or- the interrupt component itself.
 250:Generated_Source\PSoC5/SPI_Altitude.c **** *
 251:Generated_Source\PSoC5/SPI_Altitude.c **** *******************************************************************************/
 252:Generated_Source\PSoC5/SPI_Altitude.c **** void SPI_Altitude_EnableRxInt(void) 
 253:Generated_Source\PSoC5/SPI_Altitude.c **** {
 254:Generated_Source\PSoC5/SPI_Altitude.c ****     #if(0u != SPI_Altitude_INTERNAL_RX_INT_ENABLED)
 255:Generated_Source\PSoC5/SPI_Altitude.c ****         CyIntEnable(SPI_Altitude_RX_ISR_NUMBER);
  71              		.loc 1 255 0
  72 0034 0122     		movs	r2, #1
  73 0036 1A60     		str	r2, [r3]
  74 0038 08BD     		pop	{r3, pc}
  75              	.L3:
  76 003a 00BF     		.align	2
  77              	.L2:
  78 003c 98640040 		.word	1073767576
  79 0040 00E100E0 		.word	-536813312
  80              	.LBE53:
  81              	.LBE52:
  82              		.cfi_endproc
  83              	.LFE1:
  84              		.size	SPI_Altitude_Enable, .-SPI_Altitude_Enable
  85              		.section	.text.SPI_Altitude_Stop,"ax",%progbits
ARM GAS  C:\Users\Nathan\AppData\Local\Temp\ccxYnS06.s 			page 7


  86              		.align	1
  87              		.global	SPI_Altitude_Stop
  88              		.thumb
  89              		.thumb_func
  90              		.type	SPI_Altitude_Stop, %function
  91              	SPI_Altitude_Stop:
  92              	.LFB3:
 193:Generated_Source\PSoC5/SPI_Altitude.c ****     uint8 enableInterrupts;
  93              		.loc 1 193 0
  94              		.cfi_startproc
  95              		@ args = 0, pretend = 0, frame = 0
  96              		@ frame_needed = 0, uses_anonymous_args = 0
  97 0000 08B5     		push	{r3, lr}
  98              		.cfi_def_cfa_offset 8
  99              		.cfi_offset 3, -8
 100              		.cfi_offset 14, -4
 196:Generated_Source\PSoC5/SPI_Altitude.c ****     SPI_Altitude_TX_STATUS_ACTL_REG &= ((uint8) ~SPI_Altitude_INT_ENABLE);
 101              		.loc 1 196 0
 102 0002 FFF7FEFF 		bl	CyEnterCriticalSection
 103              	.LVL3:
 197:Generated_Source\PSoC5/SPI_Altitude.c ****     SPI_Altitude_RX_STATUS_ACTL_REG &= ((uint8) ~SPI_Altitude_INT_ENABLE);
 104              		.loc 1 197 0
 105 0006 0B4A     		ldr	r2, .L5
 106 0008 1378     		ldrb	r3, [r2]	@ zero_extendqisi2
 107 000a 03F0EF03 		and	r3, r3, #239
 108 000e 1370     		strb	r3, [r2]
 198:Generated_Source\PSoC5/SPI_Altitude.c ****     CyExitCriticalSection(enableInterrupts);
 109              		.loc 1 198 0
 110 0010 6FF48373 		mvn	r3, #262
 111 0014 1A44     		add	r2, r2, r3
 112 0016 1378     		ldrb	r3, [r2]	@ zero_extendqisi2
 113 0018 03F0EF03 		and	r3, r3, #239
 114 001c 1370     		strb	r3, [r2]
 199:Generated_Source\PSoC5/SPI_Altitude.c **** 
 115              		.loc 1 199 0
 116 001e FFF7FEFF 		bl	CyExitCriticalSection
 117              	.LVL4:
 202:Generated_Source\PSoC5/SPI_Altitude.c ****     #endif /* (0u != SPI_Altitude_INTERNAL_CLOCK) */
 118              		.loc 1 202 0
 119 0022 FFF7FEFF 		bl	SPI_Altitude_IntClock_Stop
 120              	.LVL5:
 121              	.LBB54:
 122              	.LBB55:
 256:Generated_Source\PSoC5/SPI_Altitude.c ****     #endif /* (0u != SPI_Altitude_INTERNAL_RX_INT_ENABLED) */
 257:Generated_Source\PSoC5/SPI_Altitude.c **** }
 258:Generated_Source\PSoC5/SPI_Altitude.c **** 
 259:Generated_Source\PSoC5/SPI_Altitude.c **** 
 260:Generated_Source\PSoC5/SPI_Altitude.c **** /*******************************************************************************
 261:Generated_Source\PSoC5/SPI_Altitude.c **** * Function Name: SPI_Altitude_DisableTxInt
 262:Generated_Source\PSoC5/SPI_Altitude.c **** ********************************************************************************
 263:Generated_Source\PSoC5/SPI_Altitude.c **** *
 264:Generated_Source\PSoC5/SPI_Altitude.c **** * Summary:
 265:Generated_Source\PSoC5/SPI_Altitude.c **** *  Disable internal Tx interrupt generation.
 266:Generated_Source\PSoC5/SPI_Altitude.c **** *
 267:Generated_Source\PSoC5/SPI_Altitude.c **** * Parameters:
 268:Generated_Source\PSoC5/SPI_Altitude.c **** *  None.
 269:Generated_Source\PSoC5/SPI_Altitude.c **** *
ARM GAS  C:\Users\Nathan\AppData\Local\Temp\ccxYnS06.s 			page 8


 270:Generated_Source\PSoC5/SPI_Altitude.c **** * Return:
 271:Generated_Source\PSoC5/SPI_Altitude.c **** *  None.
 272:Generated_Source\PSoC5/SPI_Altitude.c **** *
 273:Generated_Source\PSoC5/SPI_Altitude.c **** * Theory:
 274:Generated_Source\PSoC5/SPI_Altitude.c **** *  Disable the internal Tx interrupt output -or- the interrupt component itself.
 275:Generated_Source\PSoC5/SPI_Altitude.c **** *
 276:Generated_Source\PSoC5/SPI_Altitude.c **** *******************************************************************************/
 277:Generated_Source\PSoC5/SPI_Altitude.c **** void SPI_Altitude_DisableTxInt(void) 
 278:Generated_Source\PSoC5/SPI_Altitude.c **** {
 279:Generated_Source\PSoC5/SPI_Altitude.c ****     #if(0u != SPI_Altitude_INTERNAL_TX_INT_ENABLED)
 280:Generated_Source\PSoC5/SPI_Altitude.c ****         CyIntDisable(SPI_Altitude_TX_ISR_NUMBER);
 123              		.loc 1 280 0
 124 0026 044B     		ldr	r3, .L5+4
 125 0028 0222     		movs	r2, #2
 126 002a 1A60     		str	r2, [r3]
 127              	.LBE55:
 128              	.LBE54:
 129              	.LBB56:
 130              	.LBB57:
 281:Generated_Source\PSoC5/SPI_Altitude.c ****     #endif /* (0u != SPI_Altitude_INTERNAL_TX_INT_ENABLED) */
 282:Generated_Source\PSoC5/SPI_Altitude.c **** }
 283:Generated_Source\PSoC5/SPI_Altitude.c **** 
 284:Generated_Source\PSoC5/SPI_Altitude.c **** 
 285:Generated_Source\PSoC5/SPI_Altitude.c **** /*******************************************************************************
 286:Generated_Source\PSoC5/SPI_Altitude.c **** * Function Name: SPI_Altitude_DisableRxInt
 287:Generated_Source\PSoC5/SPI_Altitude.c **** ********************************************************************************
 288:Generated_Source\PSoC5/SPI_Altitude.c **** *
 289:Generated_Source\PSoC5/SPI_Altitude.c **** * Summary:
 290:Generated_Source\PSoC5/SPI_Altitude.c **** *  Disable internal Rx interrupt generation.
 291:Generated_Source\PSoC5/SPI_Altitude.c **** *
 292:Generated_Source\PSoC5/SPI_Altitude.c **** * Parameters:
 293:Generated_Source\PSoC5/SPI_Altitude.c **** *  None.
 294:Generated_Source\PSoC5/SPI_Altitude.c **** *
 295:Generated_Source\PSoC5/SPI_Altitude.c **** * Return:
 296:Generated_Source\PSoC5/SPI_Altitude.c **** *  None.
 297:Generated_Source\PSoC5/SPI_Altitude.c **** *
 298:Generated_Source\PSoC5/SPI_Altitude.c **** * Theory:
 299:Generated_Source\PSoC5/SPI_Altitude.c **** *  Disable the internal Rx interrupt output -or- the interrupt component itself.
 300:Generated_Source\PSoC5/SPI_Altitude.c **** *
 301:Generated_Source\PSoC5/SPI_Altitude.c **** *******************************************************************************/
 302:Generated_Source\PSoC5/SPI_Altitude.c **** void SPI_Altitude_DisableRxInt(void) 
 303:Generated_Source\PSoC5/SPI_Altitude.c **** {
 304:Generated_Source\PSoC5/SPI_Altitude.c ****     #if(0u != SPI_Altitude_INTERNAL_RX_INT_ENABLED)
 305:Generated_Source\PSoC5/SPI_Altitude.c ****         CyIntDisable(SPI_Altitude_RX_ISR_NUMBER);
 131              		.loc 1 305 0
 132 002c 0122     		movs	r2, #1
 133 002e 1A60     		str	r2, [r3]
 134 0030 08BD     		pop	{r3, pc}
 135              	.L6:
 136 0032 00BF     		.align	2
 137              	.L5:
 138 0034 9B650040 		.word	1073767835
 139 0038 80E100E0 		.word	-536813184
 140              	.LBE57:
 141              	.LBE56:
 142              		.cfi_endproc
 143              	.LFE3:
ARM GAS  C:\Users\Nathan\AppData\Local\Temp\ccxYnS06.s 			page 9


 144              		.size	SPI_Altitude_Stop, .-SPI_Altitude_Stop
 145              		.section	.text.SPI_Altitude_EnableTxInt,"ax",%progbits
 146              		.align	1
 147              		.global	SPI_Altitude_EnableTxInt
 148              		.thumb
 149              		.thumb_func
 150              		.type	SPI_Altitude_EnableTxInt, %function
 151              	SPI_Altitude_EnableTxInt:
 152              	.LFB4:
 228:Generated_Source\PSoC5/SPI_Altitude.c ****     #if(0u != SPI_Altitude_INTERNAL_TX_INT_ENABLED)
 153              		.loc 1 228 0
 154              		.cfi_startproc
 155              		@ args = 0, pretend = 0, frame = 0
 156              		@ frame_needed = 0, uses_anonymous_args = 0
 157              		@ link register save eliminated.
 230:Generated_Source\PSoC5/SPI_Altitude.c ****     #endif /* (0u != SPI_Altitude_INTERNAL_TX_INT_ENABLED) */
 158              		.loc 1 230 0
 159 0000 014B     		ldr	r3, .L8
 160 0002 0222     		movs	r2, #2
 161 0004 1A60     		str	r2, [r3]
 162 0006 7047     		bx	lr
 163              	.L9:
 164              		.align	2
 165              	.L8:
 166 0008 00E100E0 		.word	-536813312
 167              		.cfi_endproc
 168              	.LFE4:
 169              		.size	SPI_Altitude_EnableTxInt, .-SPI_Altitude_EnableTxInt
 170              		.section	.text.SPI_Altitude_EnableRxInt,"ax",%progbits
 171              		.align	1
 172              		.global	SPI_Altitude_EnableRxInt
 173              		.thumb
 174              		.thumb_func
 175              		.type	SPI_Altitude_EnableRxInt, %function
 176              	SPI_Altitude_EnableRxInt:
 177              	.LFB5:
 253:Generated_Source\PSoC5/SPI_Altitude.c ****     #if(0u != SPI_Altitude_INTERNAL_RX_INT_ENABLED)
 178              		.loc 1 253 0
 179              		.cfi_startproc
 180              		@ args = 0, pretend = 0, frame = 0
 181              		@ frame_needed = 0, uses_anonymous_args = 0
 182              		@ link register save eliminated.
 255:Generated_Source\PSoC5/SPI_Altitude.c ****     #endif /* (0u != SPI_Altitude_INTERNAL_RX_INT_ENABLED) */
 183              		.loc 1 255 0
 184 0000 014B     		ldr	r3, .L11
 185 0002 0122     		movs	r2, #1
 186 0004 1A60     		str	r2, [r3]
 187 0006 7047     		bx	lr
 188              	.L12:
 189              		.align	2
 190              	.L11:
 191 0008 00E100E0 		.word	-536813312
 192              		.cfi_endproc
 193              	.LFE5:
 194              		.size	SPI_Altitude_EnableRxInt, .-SPI_Altitude_EnableRxInt
 195              		.section	.text.SPI_Altitude_DisableTxInt,"ax",%progbits
 196              		.align	1
ARM GAS  C:\Users\Nathan\AppData\Local\Temp\ccxYnS06.s 			page 10


 197              		.global	SPI_Altitude_DisableTxInt
 198              		.thumb
 199              		.thumb_func
 200              		.type	SPI_Altitude_DisableTxInt, %function
 201              	SPI_Altitude_DisableTxInt:
 202              	.LFB6:
 278:Generated_Source\PSoC5/SPI_Altitude.c ****     #if(0u != SPI_Altitude_INTERNAL_TX_INT_ENABLED)
 203              		.loc 1 278 0
 204              		.cfi_startproc
 205              		@ args = 0, pretend = 0, frame = 0
 206              		@ frame_needed = 0, uses_anonymous_args = 0
 207              		@ link register save eliminated.
 280:Generated_Source\PSoC5/SPI_Altitude.c ****     #endif /* (0u != SPI_Altitude_INTERNAL_TX_INT_ENABLED) */
 208              		.loc 1 280 0
 209 0000 014B     		ldr	r3, .L14
 210 0002 0222     		movs	r2, #2
 211 0004 1A60     		str	r2, [r3]
 212 0006 7047     		bx	lr
 213              	.L15:
 214              		.align	2
 215              	.L14:
 216 0008 80E100E0 		.word	-536813184
 217              		.cfi_endproc
 218              	.LFE6:
 219              		.size	SPI_Altitude_DisableTxInt, .-SPI_Altitude_DisableTxInt
 220              		.section	.text.SPI_Altitude_DisableRxInt,"ax",%progbits
 221              		.align	1
 222              		.global	SPI_Altitude_DisableRxInt
 223              		.thumb
 224              		.thumb_func
 225              		.type	SPI_Altitude_DisableRxInt, %function
 226              	SPI_Altitude_DisableRxInt:
 227              	.LFB7:
 303:Generated_Source\PSoC5/SPI_Altitude.c ****     #if(0u != SPI_Altitude_INTERNAL_RX_INT_ENABLED)
 228              		.loc 1 303 0
 229              		.cfi_startproc
 230              		@ args = 0, pretend = 0, frame = 0
 231              		@ frame_needed = 0, uses_anonymous_args = 0
 232              		@ link register save eliminated.
 233              		.loc 1 305 0
 234 0000 014B     		ldr	r3, .L17
 235 0002 0122     		movs	r2, #1
 236 0004 1A60     		str	r2, [r3]
 237 0006 7047     		bx	lr
 238              	.L18:
 239              		.align	2
 240              	.L17:
 241 0008 80E100E0 		.word	-536813184
 242              		.cfi_endproc
 243              	.LFE7:
 244              		.size	SPI_Altitude_DisableRxInt, .-SPI_Altitude_DisableRxInt
 245              		.section	.text.SPI_Altitude_SetTxInterruptMode,"ax",%progbits
 246              		.align	1
 247              		.global	SPI_Altitude_SetTxInterruptMode
 248              		.thumb
 249              		.thumb_func
 250              		.type	SPI_Altitude_SetTxInterruptMode, %function
ARM GAS  C:\Users\Nathan\AppData\Local\Temp\ccxYnS06.s 			page 11


 251              	SPI_Altitude_SetTxInterruptMode:
 252              	.LFB8:
 306:Generated_Source\PSoC5/SPI_Altitude.c ****     #endif /* (0u != SPI_Altitude_INTERNAL_RX_INT_ENABLED) */
 307:Generated_Source\PSoC5/SPI_Altitude.c **** }
 308:Generated_Source\PSoC5/SPI_Altitude.c **** 
 309:Generated_Source\PSoC5/SPI_Altitude.c **** 
 310:Generated_Source\PSoC5/SPI_Altitude.c **** /*******************************************************************************
 311:Generated_Source\PSoC5/SPI_Altitude.c **** * Function Name: SPI_Altitude_SetTxInterruptMode
 312:Generated_Source\PSoC5/SPI_Altitude.c **** ********************************************************************************
 313:Generated_Source\PSoC5/SPI_Altitude.c **** *
 314:Generated_Source\PSoC5/SPI_Altitude.c **** * Summary:
 315:Generated_Source\PSoC5/SPI_Altitude.c **** *  Configure which status bits trigger an interrupt event.
 316:Generated_Source\PSoC5/SPI_Altitude.c **** *
 317:Generated_Source\PSoC5/SPI_Altitude.c **** * Parameters:
 318:Generated_Source\PSoC5/SPI_Altitude.c **** *  intSrc: An or'd combination of the desired status bit masks (defined in the
 319:Generated_Source\PSoC5/SPI_Altitude.c **** *  header file).
 320:Generated_Source\PSoC5/SPI_Altitude.c **** *
 321:Generated_Source\PSoC5/SPI_Altitude.c **** * Return:
 322:Generated_Source\PSoC5/SPI_Altitude.c **** *  None.
 323:Generated_Source\PSoC5/SPI_Altitude.c **** *
 324:Generated_Source\PSoC5/SPI_Altitude.c **** * Theory:
 325:Generated_Source\PSoC5/SPI_Altitude.c **** *  Enables the output of specific status bits to the interrupt controller.
 326:Generated_Source\PSoC5/SPI_Altitude.c **** *
 327:Generated_Source\PSoC5/SPI_Altitude.c **** *******************************************************************************/
 328:Generated_Source\PSoC5/SPI_Altitude.c **** void SPI_Altitude_SetTxInterruptMode(uint8 intSrc) 
 329:Generated_Source\PSoC5/SPI_Altitude.c **** {
 253              		.loc 1 329 0
 254              		.cfi_startproc
 255              		@ args = 0, pretend = 0, frame = 0
 256              		@ frame_needed = 0, uses_anonymous_args = 0
 257              		@ link register save eliminated.
 258              	.LVL6:
 330:Generated_Source\PSoC5/SPI_Altitude.c ****     SPI_Altitude_TX_STATUS_MASK_REG = intSrc;
 259              		.loc 1 330 0
 260 0000 014B     		ldr	r3, .L20
 261 0002 1870     		strb	r0, [r3]
 262 0004 7047     		bx	lr
 263              	.L21:
 264 0006 00BF     		.align	2
 265              	.L20:
 266 0008 8B650040 		.word	1073767819
 267              		.cfi_endproc
 268              	.LFE8:
 269              		.size	SPI_Altitude_SetTxInterruptMode, .-SPI_Altitude_SetTxInterruptMode
 270              		.section	.text.SPI_Altitude_SetRxInterruptMode,"ax",%progbits
 271              		.align	1
 272              		.global	SPI_Altitude_SetRxInterruptMode
 273              		.thumb
 274              		.thumb_func
 275              		.type	SPI_Altitude_SetRxInterruptMode, %function
 276              	SPI_Altitude_SetRxInterruptMode:
 277              	.LFB9:
 331:Generated_Source\PSoC5/SPI_Altitude.c **** }
 332:Generated_Source\PSoC5/SPI_Altitude.c **** 
 333:Generated_Source\PSoC5/SPI_Altitude.c **** 
 334:Generated_Source\PSoC5/SPI_Altitude.c **** /*******************************************************************************
 335:Generated_Source\PSoC5/SPI_Altitude.c **** * Function Name: SPI_Altitude_SetRxInterruptMode
ARM GAS  C:\Users\Nathan\AppData\Local\Temp\ccxYnS06.s 			page 12


 336:Generated_Source\PSoC5/SPI_Altitude.c **** ********************************************************************************
 337:Generated_Source\PSoC5/SPI_Altitude.c **** *
 338:Generated_Source\PSoC5/SPI_Altitude.c **** * Summary:
 339:Generated_Source\PSoC5/SPI_Altitude.c **** *  Configure which status bits trigger an interrupt event.
 340:Generated_Source\PSoC5/SPI_Altitude.c **** *
 341:Generated_Source\PSoC5/SPI_Altitude.c **** * Parameters:
 342:Generated_Source\PSoC5/SPI_Altitude.c **** *  intSrc: An or'd combination of the desired status bit masks (defined in the
 343:Generated_Source\PSoC5/SPI_Altitude.c **** *  header file).
 344:Generated_Source\PSoC5/SPI_Altitude.c **** *
 345:Generated_Source\PSoC5/SPI_Altitude.c **** * Return:
 346:Generated_Source\PSoC5/SPI_Altitude.c **** *  None.
 347:Generated_Source\PSoC5/SPI_Altitude.c **** *
 348:Generated_Source\PSoC5/SPI_Altitude.c **** * Theory:
 349:Generated_Source\PSoC5/SPI_Altitude.c **** *  Enables the output of specific status bits to the interrupt controller.
 350:Generated_Source\PSoC5/SPI_Altitude.c **** *
 351:Generated_Source\PSoC5/SPI_Altitude.c **** *******************************************************************************/
 352:Generated_Source\PSoC5/SPI_Altitude.c **** void SPI_Altitude_SetRxInterruptMode(uint8 intSrc) 
 353:Generated_Source\PSoC5/SPI_Altitude.c **** {
 278              		.loc 1 353 0
 279              		.cfi_startproc
 280              		@ args = 0, pretend = 0, frame = 0
 281              		@ frame_needed = 0, uses_anonymous_args = 0
 282              		@ link register save eliminated.
 283              	.LVL7:
 354:Generated_Source\PSoC5/SPI_Altitude.c ****     SPI_Altitude_RX_STATUS_MASK_REG  = intSrc;
 284              		.loc 1 354 0
 285 0000 014B     		ldr	r3, .L23
 286 0002 1870     		strb	r0, [r3]
 287 0004 7047     		bx	lr
 288              	.L24:
 289 0006 00BF     		.align	2
 290              	.L23:
 291 0008 84640040 		.word	1073767556
 292              		.cfi_endproc
 293              	.LFE9:
 294              		.size	SPI_Altitude_SetRxInterruptMode, .-SPI_Altitude_SetRxInterruptMode
 295              		.section	.text.SPI_Altitude_ReadTxStatus,"ax",%progbits
 296              		.align	1
 297              		.global	SPI_Altitude_ReadTxStatus
 298              		.thumb
 299              		.thumb_func
 300              		.type	SPI_Altitude_ReadTxStatus, %function
 301              	SPI_Altitude_ReadTxStatus:
 302              	.LFB10:
 355:Generated_Source\PSoC5/SPI_Altitude.c **** }
 356:Generated_Source\PSoC5/SPI_Altitude.c **** 
 357:Generated_Source\PSoC5/SPI_Altitude.c **** 
 358:Generated_Source\PSoC5/SPI_Altitude.c **** /*******************************************************************************
 359:Generated_Source\PSoC5/SPI_Altitude.c **** * Function Name: SPI_Altitude_ReadTxStatus
 360:Generated_Source\PSoC5/SPI_Altitude.c **** ********************************************************************************
 361:Generated_Source\PSoC5/SPI_Altitude.c **** *
 362:Generated_Source\PSoC5/SPI_Altitude.c **** * Summary:
 363:Generated_Source\PSoC5/SPI_Altitude.c **** *  Read the Tx status register for the component.
 364:Generated_Source\PSoC5/SPI_Altitude.c **** *
 365:Generated_Source\PSoC5/SPI_Altitude.c **** * Parameters:
 366:Generated_Source\PSoC5/SPI_Altitude.c **** *  None.
 367:Generated_Source\PSoC5/SPI_Altitude.c **** *
ARM GAS  C:\Users\Nathan\AppData\Local\Temp\ccxYnS06.s 			page 13


 368:Generated_Source\PSoC5/SPI_Altitude.c **** * Return:
 369:Generated_Source\PSoC5/SPI_Altitude.c **** *  Contents of the Tx status register.
 370:Generated_Source\PSoC5/SPI_Altitude.c **** *
 371:Generated_Source\PSoC5/SPI_Altitude.c **** * Global variables:
 372:Generated_Source\PSoC5/SPI_Altitude.c **** *  SPI_Altitude_swStatusTx - used to store in software status register,
 373:Generated_Source\PSoC5/SPI_Altitude.c **** *  modified every function call - resets to zero.
 374:Generated_Source\PSoC5/SPI_Altitude.c **** *
 375:Generated_Source\PSoC5/SPI_Altitude.c **** * Theory:
 376:Generated_Source\PSoC5/SPI_Altitude.c **** *  Allows the user and the API to read the Tx status register for error
 377:Generated_Source\PSoC5/SPI_Altitude.c **** *  detection and flow control.
 378:Generated_Source\PSoC5/SPI_Altitude.c **** *
 379:Generated_Source\PSoC5/SPI_Altitude.c **** * Side Effects:
 380:Generated_Source\PSoC5/SPI_Altitude.c **** *  Clear Tx status register of the component.
 381:Generated_Source\PSoC5/SPI_Altitude.c **** *
 382:Generated_Source\PSoC5/SPI_Altitude.c **** * Reentrant:
 383:Generated_Source\PSoC5/SPI_Altitude.c **** *  No.
 384:Generated_Source\PSoC5/SPI_Altitude.c **** *
 385:Generated_Source\PSoC5/SPI_Altitude.c **** *******************************************************************************/
 386:Generated_Source\PSoC5/SPI_Altitude.c **** uint8 SPI_Altitude_ReadTxStatus(void) 
 387:Generated_Source\PSoC5/SPI_Altitude.c **** {
 303              		.loc 1 387 0
 304              		.cfi_startproc
 305              		@ args = 0, pretend = 0, frame = 0
 306              		@ frame_needed = 0, uses_anonymous_args = 0
 307 0000 10B5     		push	{r4, lr}
 308              		.cfi_def_cfa_offset 8
 309              		.cfi_offset 4, -8
 310              		.cfi_offset 14, -4
 311              	.LBB58:
 312              	.LBB59:
 280:Generated_Source\PSoC5/SPI_Altitude.c ****     #endif /* (0u != SPI_Altitude_INTERNAL_TX_INT_ENABLED) */
 313              		.loc 1 280 0
 314 0002 074B     		ldr	r3, .L26
 315 0004 0222     		movs	r2, #2
 316 0006 1A60     		str	r2, [r3]
 317              	.LBE59:
 318              	.LBE58:
 388:Generated_Source\PSoC5/SPI_Altitude.c ****     uint8 tmpStatus;
 389:Generated_Source\PSoC5/SPI_Altitude.c **** 
 390:Generated_Source\PSoC5/SPI_Altitude.c ****     #if(SPI_Altitude_TX_SOFTWARE_BUF_ENABLED)
 391:Generated_Source\PSoC5/SPI_Altitude.c ****         /* Disable TX interrupt to protect global veriables */
 392:Generated_Source\PSoC5/SPI_Altitude.c ****         SPI_Altitude_DisableTxInt();
 393:Generated_Source\PSoC5/SPI_Altitude.c **** 
 394:Generated_Source\PSoC5/SPI_Altitude.c ****         tmpStatus = SPI_Altitude_GET_STATUS_TX(SPI_Altitude_swStatusTx);
 319              		.loc 1 394 0
 320 0008 0649     		ldr	r1, .L26+4
 321 000a 074B     		ldr	r3, .L26+8
 395:Generated_Source\PSoC5/SPI_Altitude.c ****         SPI_Altitude_swStatusTx = 0u;
 322              		.loc 1 395 0
 323 000c 0024     		movs	r4, #0
 394:Generated_Source\PSoC5/SPI_Altitude.c ****         SPI_Altitude_swStatusTx = 0u;
 324              		.loc 1 394 0
 325 000e 1878     		ldrb	r0, [r3]	@ zero_extendqisi2
 326 0010 0B78     		ldrb	r3, [r1]	@ zero_extendqisi2
 327              	.LVL8:
 328              		.loc 1 395 0
 329 0012 0C70     		strb	r4, [r1]
ARM GAS  C:\Users\Nathan\AppData\Local\Temp\ccxYnS06.s 			page 14


 330              	.LBB60:
 331              	.LBB61:
 230:Generated_Source\PSoC5/SPI_Altitude.c ****     #endif /* (0u != SPI_Altitude_INTERNAL_TX_INT_ENABLED) */
 332              		.loc 1 230 0
 333 0014 0549     		ldr	r1, .L26+12
 334              	.LBE61:
 335              	.LBE60:
 396:Generated_Source\PSoC5/SPI_Altitude.c **** 
 397:Generated_Source\PSoC5/SPI_Altitude.c ****         SPI_Altitude_EnableTxInt();
 398:Generated_Source\PSoC5/SPI_Altitude.c **** 
 399:Generated_Source\PSoC5/SPI_Altitude.c ****     #else
 400:Generated_Source\PSoC5/SPI_Altitude.c **** 
 401:Generated_Source\PSoC5/SPI_Altitude.c ****         tmpStatus = SPI_Altitude_TX_STATUS_REG;
 402:Generated_Source\PSoC5/SPI_Altitude.c **** 
 403:Generated_Source\PSoC5/SPI_Altitude.c ****     #endif /* (SPI_Altitude_TX_SOFTWARE_BUF_ENABLED) */
 404:Generated_Source\PSoC5/SPI_Altitude.c **** 
 405:Generated_Source\PSoC5/SPI_Altitude.c ****     return(tmpStatus);
 336              		.loc 1 405 0
 337 0016 03F00903 		and	r3, r3, #9
 338              	.LVL9:
 339              	.LBB63:
 340              	.LBB62:
 230:Generated_Source\PSoC5/SPI_Altitude.c ****     #endif /* (0u != SPI_Altitude_INTERNAL_TX_INT_ENABLED) */
 341              		.loc 1 230 0
 342 001a 0A60     		str	r2, [r1]
 343              	.LBE62:
 344              	.LBE63:
 406:Generated_Source\PSoC5/SPI_Altitude.c **** }
 345              		.loc 1 406 0
 346 001c 1843     		orrs	r0, r0, r3
 347 001e 10BD     		pop	{r4, pc}
 348              	.L27:
 349              		.align	2
 350              	.L26:
 351 0020 80E100E0 		.word	-536813184
 352 0024 00000000 		.word	SPI_Altitude_swStatusTx
 353 0028 6B650040 		.word	1073767787
 354 002c 00E100E0 		.word	-536813312
 355              		.cfi_endproc
 356              	.LFE10:
 357              		.size	SPI_Altitude_ReadTxStatus, .-SPI_Altitude_ReadTxStatus
 358              		.section	.text.SPI_Altitude_ReadRxStatus,"ax",%progbits
 359              		.align	1
 360              		.global	SPI_Altitude_ReadRxStatus
 361              		.thumb
 362              		.thumb_func
 363              		.type	SPI_Altitude_ReadRxStatus, %function
 364              	SPI_Altitude_ReadRxStatus:
 365              	.LFB11:
 407:Generated_Source\PSoC5/SPI_Altitude.c **** 
 408:Generated_Source\PSoC5/SPI_Altitude.c **** 
 409:Generated_Source\PSoC5/SPI_Altitude.c **** /*******************************************************************************
 410:Generated_Source\PSoC5/SPI_Altitude.c **** * Function Name: SPI_Altitude_ReadRxStatus
 411:Generated_Source\PSoC5/SPI_Altitude.c **** ********************************************************************************
 412:Generated_Source\PSoC5/SPI_Altitude.c **** *
 413:Generated_Source\PSoC5/SPI_Altitude.c **** * Summary:
 414:Generated_Source\PSoC5/SPI_Altitude.c **** *  Read the Rx status register for the component.
ARM GAS  C:\Users\Nathan\AppData\Local\Temp\ccxYnS06.s 			page 15


 415:Generated_Source\PSoC5/SPI_Altitude.c **** *
 416:Generated_Source\PSoC5/SPI_Altitude.c **** * Parameters:
 417:Generated_Source\PSoC5/SPI_Altitude.c **** *  None.
 418:Generated_Source\PSoC5/SPI_Altitude.c **** *
 419:Generated_Source\PSoC5/SPI_Altitude.c **** * Return:
 420:Generated_Source\PSoC5/SPI_Altitude.c **** *  Contents of the Rx status register.
 421:Generated_Source\PSoC5/SPI_Altitude.c **** *
 422:Generated_Source\PSoC5/SPI_Altitude.c **** * Global variables:
 423:Generated_Source\PSoC5/SPI_Altitude.c **** *  SPI_Altitude_swStatusRx - used to store in software Rx status register,
 424:Generated_Source\PSoC5/SPI_Altitude.c **** *  modified every function call - resets to zero.
 425:Generated_Source\PSoC5/SPI_Altitude.c **** *
 426:Generated_Source\PSoC5/SPI_Altitude.c **** * Theory:
 427:Generated_Source\PSoC5/SPI_Altitude.c **** *  Allows the user and the API to read the Rx status register for error
 428:Generated_Source\PSoC5/SPI_Altitude.c **** *  detection and flow control.
 429:Generated_Source\PSoC5/SPI_Altitude.c **** *
 430:Generated_Source\PSoC5/SPI_Altitude.c **** * Side Effects:
 431:Generated_Source\PSoC5/SPI_Altitude.c **** *  Clear Rx status register of the component.
 432:Generated_Source\PSoC5/SPI_Altitude.c **** *
 433:Generated_Source\PSoC5/SPI_Altitude.c **** * Reentrant:
 434:Generated_Source\PSoC5/SPI_Altitude.c **** *  No.
 435:Generated_Source\PSoC5/SPI_Altitude.c **** *
 436:Generated_Source\PSoC5/SPI_Altitude.c **** *******************************************************************************/
 437:Generated_Source\PSoC5/SPI_Altitude.c **** uint8 SPI_Altitude_ReadRxStatus(void) 
 438:Generated_Source\PSoC5/SPI_Altitude.c **** {
 366              		.loc 1 438 0
 367              		.cfi_startproc
 368              		@ args = 0, pretend = 0, frame = 0
 369              		@ frame_needed = 0, uses_anonymous_args = 0
 370 0000 10B5     		push	{r4, lr}
 371              		.cfi_def_cfa_offset 8
 372              		.cfi_offset 4, -8
 373              		.cfi_offset 14, -4
 374              	.LBB64:
 375              	.LBB65:
 305:Generated_Source\PSoC5/SPI_Altitude.c ****     #endif /* (0u != SPI_Altitude_INTERNAL_RX_INT_ENABLED) */
 376              		.loc 1 305 0
 377 0002 074B     		ldr	r3, .L29
 378 0004 0122     		movs	r2, #1
 379 0006 1A60     		str	r2, [r3]
 380              	.LBE65:
 381              	.LBE64:
 439:Generated_Source\PSoC5/SPI_Altitude.c ****     uint8 tmpStatus;
 440:Generated_Source\PSoC5/SPI_Altitude.c **** 
 441:Generated_Source\PSoC5/SPI_Altitude.c ****     #if(SPI_Altitude_RX_SOFTWARE_BUF_ENABLED)
 442:Generated_Source\PSoC5/SPI_Altitude.c ****         /* Disable RX interrupt to protect global veriables */
 443:Generated_Source\PSoC5/SPI_Altitude.c ****         SPI_Altitude_DisableRxInt();
 444:Generated_Source\PSoC5/SPI_Altitude.c **** 
 445:Generated_Source\PSoC5/SPI_Altitude.c ****         tmpStatus = SPI_Altitude_GET_STATUS_RX(SPI_Altitude_swStatusRx);
 382              		.loc 1 445 0
 383 0008 0649     		ldr	r1, .L29+4
 384 000a 074B     		ldr	r3, .L29+8
 446:Generated_Source\PSoC5/SPI_Altitude.c ****         SPI_Altitude_swStatusRx = 0u;
 385              		.loc 1 446 0
 386 000c 0024     		movs	r4, #0
 445:Generated_Source\PSoC5/SPI_Altitude.c ****         SPI_Altitude_swStatusRx = 0u;
 387              		.loc 1 445 0
 388 000e 1878     		ldrb	r0, [r3]	@ zero_extendqisi2
ARM GAS  C:\Users\Nathan\AppData\Local\Temp\ccxYnS06.s 			page 16


 389 0010 0B78     		ldrb	r3, [r1]	@ zero_extendqisi2
 390              	.LVL10:
 391              		.loc 1 446 0
 392 0012 0C70     		strb	r4, [r1]
 393              	.LBB66:
 394              	.LBB67:
 255:Generated_Source\PSoC5/SPI_Altitude.c ****     #endif /* (0u != SPI_Altitude_INTERNAL_RX_INT_ENABLED) */
 395              		.loc 1 255 0
 396 0014 0549     		ldr	r1, .L29+12
 397              	.LBE67:
 398              	.LBE66:
 447:Generated_Source\PSoC5/SPI_Altitude.c **** 
 448:Generated_Source\PSoC5/SPI_Altitude.c ****         SPI_Altitude_EnableRxInt();
 449:Generated_Source\PSoC5/SPI_Altitude.c **** 
 450:Generated_Source\PSoC5/SPI_Altitude.c ****     #else
 451:Generated_Source\PSoC5/SPI_Altitude.c **** 
 452:Generated_Source\PSoC5/SPI_Altitude.c ****         tmpStatus = SPI_Altitude_RX_STATUS_REG;
 453:Generated_Source\PSoC5/SPI_Altitude.c **** 
 454:Generated_Source\PSoC5/SPI_Altitude.c ****     #endif /* (SPI_Altitude_RX_SOFTWARE_BUF_ENABLED) */
 455:Generated_Source\PSoC5/SPI_Altitude.c **** 
 456:Generated_Source\PSoC5/SPI_Altitude.c ****     return(tmpStatus);
 399              		.loc 1 456 0
 400 0016 03F04003 		and	r3, r3, #64
 401              	.LVL11:
 402              	.LBB69:
 403              	.LBB68:
 255:Generated_Source\PSoC5/SPI_Altitude.c ****     #endif /* (0u != SPI_Altitude_INTERNAL_RX_INT_ENABLED) */
 404              		.loc 1 255 0
 405 001a 0A60     		str	r2, [r1]
 406              	.LBE68:
 407              	.LBE69:
 457:Generated_Source\PSoC5/SPI_Altitude.c **** }
 408              		.loc 1 457 0
 409 001c 1843     		orrs	r0, r0, r3
 410 001e 10BD     		pop	{r4, pc}
 411              	.L30:
 412              		.align	2
 413              	.L29:
 414 0020 80E100E0 		.word	-536813184
 415 0024 00000000 		.word	SPI_Altitude_swStatusRx
 416 0028 64640040 		.word	1073767524
 417 002c 00E100E0 		.word	-536813312
 418              		.cfi_endproc
 419              	.LFE11:
 420              		.size	SPI_Altitude_ReadRxStatus, .-SPI_Altitude_ReadRxStatus
 421              		.section	.text.SPI_Altitude_WriteTxData,"ax",%progbits
 422              		.align	1
 423              		.global	SPI_Altitude_WriteTxData
 424              		.thumb
 425              		.thumb_func
 426              		.type	SPI_Altitude_WriteTxData, %function
 427              	SPI_Altitude_WriteTxData:
 428              	.LFB12:
 458:Generated_Source\PSoC5/SPI_Altitude.c **** 
 459:Generated_Source\PSoC5/SPI_Altitude.c **** 
 460:Generated_Source\PSoC5/SPI_Altitude.c **** /*******************************************************************************
 461:Generated_Source\PSoC5/SPI_Altitude.c **** * Function Name: SPI_Altitude_WriteTxData
ARM GAS  C:\Users\Nathan\AppData\Local\Temp\ccxYnS06.s 			page 17


 462:Generated_Source\PSoC5/SPI_Altitude.c **** ********************************************************************************
 463:Generated_Source\PSoC5/SPI_Altitude.c **** *
 464:Generated_Source\PSoC5/SPI_Altitude.c **** * Summary:
 465:Generated_Source\PSoC5/SPI_Altitude.c **** *  Write a byte of data to be sent across the SPI.
 466:Generated_Source\PSoC5/SPI_Altitude.c **** *
 467:Generated_Source\PSoC5/SPI_Altitude.c **** * Parameters:
 468:Generated_Source\PSoC5/SPI_Altitude.c **** *  txDataByte: The data value to send across the SPI.
 469:Generated_Source\PSoC5/SPI_Altitude.c **** *
 470:Generated_Source\PSoC5/SPI_Altitude.c **** * Return:
 471:Generated_Source\PSoC5/SPI_Altitude.c **** *  None.
 472:Generated_Source\PSoC5/SPI_Altitude.c **** *
 473:Generated_Source\PSoC5/SPI_Altitude.c **** * Global variables:
 474:Generated_Source\PSoC5/SPI_Altitude.c **** *  SPI_Altitude_txBufferWrite - used for the account of the bytes which
 475:Generated_Source\PSoC5/SPI_Altitude.c **** *  have been written down in the TX software buffer, modified every function
 476:Generated_Source\PSoC5/SPI_Altitude.c **** *  call if TX Software Buffer is used.
 477:Generated_Source\PSoC5/SPI_Altitude.c **** *  SPI_Altitude_txBufferRead - used for the account of the bytes which
 478:Generated_Source\PSoC5/SPI_Altitude.c **** *  have been read from the TX software buffer.
 479:Generated_Source\PSoC5/SPI_Altitude.c **** *  SPI_Altitude_txBuffer[SPI_Altitude_TX_BUFFER_SIZE] - used to store
 480:Generated_Source\PSoC5/SPI_Altitude.c **** *  data to sending, modified every function call if TX Software Buffer is used.
 481:Generated_Source\PSoC5/SPI_Altitude.c **** *
 482:Generated_Source\PSoC5/SPI_Altitude.c **** * Theory:
 483:Generated_Source\PSoC5/SPI_Altitude.c **** *  Allows the user to transmit any byte of data in a single transfer.
 484:Generated_Source\PSoC5/SPI_Altitude.c **** *
 485:Generated_Source\PSoC5/SPI_Altitude.c **** * Side Effects:
 486:Generated_Source\PSoC5/SPI_Altitude.c **** *  If this function is called again before the previous byte is finished then
 487:Generated_Source\PSoC5/SPI_Altitude.c **** *  the next byte will be appended to the transfer with no time between
 488:Generated_Source\PSoC5/SPI_Altitude.c **** *  the byte transfers. Clear Tx status register of the component.
 489:Generated_Source\PSoC5/SPI_Altitude.c **** *
 490:Generated_Source\PSoC5/SPI_Altitude.c **** * Reentrant:
 491:Generated_Source\PSoC5/SPI_Altitude.c **** *  No.
 492:Generated_Source\PSoC5/SPI_Altitude.c **** *
 493:Generated_Source\PSoC5/SPI_Altitude.c **** *******************************************************************************/
 494:Generated_Source\PSoC5/SPI_Altitude.c **** void SPI_Altitude_WriteTxData(uint8 txData) 
 495:Generated_Source\PSoC5/SPI_Altitude.c **** {
 429              		.loc 1 495 0
 430              		.cfi_startproc
 431              		@ args = 0, pretend = 0, frame = 0
 432              		@ frame_needed = 0, uses_anonymous_args = 0
 433              	.LVL12:
 434 0000 70B5     		push	{r4, r5, r6, lr}
 435              		.cfi_def_cfa_offset 16
 436              		.cfi_offset 4, -16
 437              		.cfi_offset 5, -12
 438              		.cfi_offset 6, -8
 439              		.cfi_offset 14, -4
 496:Generated_Source\PSoC5/SPI_Altitude.c ****     #if(SPI_Altitude_TX_SOFTWARE_BUF_ENABLED)
 497:Generated_Source\PSoC5/SPI_Altitude.c **** 
 498:Generated_Source\PSoC5/SPI_Altitude.c ****         uint8 tempStatus;
 499:Generated_Source\PSoC5/SPI_Altitude.c ****         uint8 tmpTxBufferRead;
 500:Generated_Source\PSoC5/SPI_Altitude.c **** 
 501:Generated_Source\PSoC5/SPI_Altitude.c ****         /* Block if TX buffer is FULL: don't overwrite */
 502:Generated_Source\PSoC5/SPI_Altitude.c ****         do
 503:Generated_Source\PSoC5/SPI_Altitude.c ****         {
 504:Generated_Source\PSoC5/SPI_Altitude.c ****             tmpTxBufferRead = SPI_Altitude_txBufferRead;
 505:Generated_Source\PSoC5/SPI_Altitude.c ****             if(0u == tmpTxBufferRead)
 506:Generated_Source\PSoC5/SPI_Altitude.c ****             {
 507:Generated_Source\PSoC5/SPI_Altitude.c ****                 tmpTxBufferRead = (SPI_Altitude_TX_BUFFER_SIZE - 1u);
ARM GAS  C:\Users\Nathan\AppData\Local\Temp\ccxYnS06.s 			page 18


 508:Generated_Source\PSoC5/SPI_Altitude.c ****             }
 509:Generated_Source\PSoC5/SPI_Altitude.c ****             else
 510:Generated_Source\PSoC5/SPI_Altitude.c ****             {
 511:Generated_Source\PSoC5/SPI_Altitude.c ****                 tmpTxBufferRead--;
 512:Generated_Source\PSoC5/SPI_Altitude.c ****             }
 513:Generated_Source\PSoC5/SPI_Altitude.c **** 
 514:Generated_Source\PSoC5/SPI_Altitude.c ****         }while(tmpTxBufferRead == SPI_Altitude_txBufferWrite);
 440              		.loc 1 514 0
 441 0002 2649     		ldr	r1, .L45
 504:Generated_Source\PSoC5/SPI_Altitude.c ****             if(0u == tmpTxBufferRead)
 442              		.loc 1 504 0
 443 0004 264E     		ldr	r6, .L45+4
 444              	.L33:
 445 0006 3278     		ldrb	r2, [r6]	@ zero_extendqisi2
 446              	.LVL13:
 447 0008 254C     		ldr	r4, .L45+4
 505:Generated_Source\PSoC5/SPI_Altitude.c ****             {
 448              		.loc 1 505 0
 449 000a 02F0FF03 		and	r3, r2, #255
 450 000e 12B1     		cbz	r2, .L39
 511:Generated_Source\PSoC5/SPI_Altitude.c ****             }
 451              		.loc 1 511 0
 452 0010 013B     		subs	r3, r3, #1
 453 0012 DBB2     		uxtb	r3, r3
 454              	.LVL14:
 455 0014 00E0     		b	.L32
 456              	.LVL15:
 457              	.L39:
 507:Generated_Source\PSoC5/SPI_Altitude.c ****             }
 458              		.loc 1 507 0
 459 0016 0723     		movs	r3, #7
 460              	.LVL16:
 461              	.L32:
 462              		.loc 1 514 0
 463 0018 0A78     		ldrb	r2, [r1]	@ zero_extendqisi2
 464 001a 204D     		ldr	r5, .L45
 465 001c 9342     		cmp	r3, r2
 466 001e 2B46     		mov	r3, r5
 467              	.LVL17:
 468 0020 F1D0     		beq	.L33
 469              	.LBB70:
 470              	.LBB71:
 280:Generated_Source\PSoC5/SPI_Altitude.c ****     #endif /* (0u != SPI_Altitude_INTERNAL_TX_INT_ENABLED) */
 471              		.loc 1 280 0
 472 0022 204A     		ldr	r2, .L45+8
 473 0024 0221     		movs	r1, #2
 474 0026 1160     		str	r1, [r2]
 475              	.LBE71:
 476              	.LBE70:
 515:Generated_Source\PSoC5/SPI_Altitude.c **** 
 516:Generated_Source\PSoC5/SPI_Altitude.c ****         /* Disable TX interrupt to protect global veriables */
 517:Generated_Source\PSoC5/SPI_Altitude.c ****         SPI_Altitude_DisableTxInt();
 518:Generated_Source\PSoC5/SPI_Altitude.c **** 
 519:Generated_Source\PSoC5/SPI_Altitude.c ****         tempStatus = SPI_Altitude_GET_STATUS_TX(SPI_Altitude_swStatusTx);
 477              		.loc 1 519 0
 478 0028 1F4A     		ldr	r2, .L45+12
 479 002a 2049     		ldr	r1, .L45+16
ARM GAS  C:\Users\Nathan\AppData\Local\Temp\ccxYnS06.s 			page 19


 480 002c 1678     		ldrb	r6, [r2]	@ zero_extendqisi2
 481 002e 0A78     		ldrb	r2, [r1]	@ zero_extendqisi2
 482 0030 02F00902 		and	r2, r2, #9
 483 0034 3243     		orrs	r2, r2, r6
 484              	.LVL18:
 520:Generated_Source\PSoC5/SPI_Altitude.c ****         SPI_Altitude_swStatusTx = tempStatus;
 485              		.loc 1 520 0
 486 0036 0A70     		strb	r2, [r1]
 521:Generated_Source\PSoC5/SPI_Altitude.c **** 
 522:Generated_Source\PSoC5/SPI_Altitude.c **** 
 523:Generated_Source\PSoC5/SPI_Altitude.c ****         if((SPI_Altitude_txBufferRead == SPI_Altitude_txBufferWrite) &&
 487              		.loc 1 523 0
 488 0038 2678     		ldrb	r6, [r4]	@ zero_extendqisi2
 489 003a 2A78     		ldrb	r2, [r5]	@ zero_extendqisi2
 490              	.LVL19:
 491 003c 9642     		cmp	r6, r2
 492 003e 05D1     		bne	.L34
 524:Generated_Source\PSoC5/SPI_Altitude.c ****            (0u != (SPI_Altitude_swStatusTx & SPI_Altitude_STS_TX_FIFO_NOT_FULL)))
 493              		.loc 1 524 0 discriminator 1
 494 0040 0A78     		ldrb	r2, [r1]	@ zero_extendqisi2
 523:Generated_Source\PSoC5/SPI_Altitude.c ****            (0u != (SPI_Altitude_swStatusTx & SPI_Altitude_STS_TX_FIFO_NOT_FULL)))
 495              		.loc 1 523 0 discriminator 1
 496 0042 5207     		lsls	r2, r2, #29
 497 0044 02D5     		bpl	.L34
 525:Generated_Source\PSoC5/SPI_Altitude.c ****         {
 526:Generated_Source\PSoC5/SPI_Altitude.c ****             /* Put data element into the TX FIFO */
 527:Generated_Source\PSoC5/SPI_Altitude.c ****             CY_SET_REG8(SPI_Altitude_TXDATA_PTR, txData);
 498              		.loc 1 527 0
 499 0046 1A4B     		ldr	r3, .L45+20
 500 0048 1870     		strb	r0, [r3]
 501              	.LVL20:
 502 004a 23E0     		b	.L35
 503              	.LVL21:
 504              	.L34:
 528:Generated_Source\PSoC5/SPI_Altitude.c ****         }
 529:Generated_Source\PSoC5/SPI_Altitude.c ****         else
 530:Generated_Source\PSoC5/SPI_Altitude.c ****         {
 531:Generated_Source\PSoC5/SPI_Altitude.c ****             /* Add to the TX software buffer */
 532:Generated_Source\PSoC5/SPI_Altitude.c ****             SPI_Altitude_txBufferWrite++;
 505              		.loc 1 532 0
 506 004c 1A78     		ldrb	r2, [r3]	@ zero_extendqisi2
 507 004e 0132     		adds	r2, r2, #1
 508 0050 D2B2     		uxtb	r2, r2
 509 0052 1A70     		strb	r2, [r3]
 510              	.LVL22:
 533:Generated_Source\PSoC5/SPI_Altitude.c ****             if(SPI_Altitude_txBufferWrite >= SPI_Altitude_TX_BUFFER_SIZE)
 511              		.loc 1 533 0
 512 0054 1A78     		ldrb	r2, [r3]	@ zero_extendqisi2
 513 0056 072A     		cmp	r2, #7
 534:Generated_Source\PSoC5/SPI_Altitude.c ****             {
 535:Generated_Source\PSoC5/SPI_Altitude.c ****                 SPI_Altitude_txBufferWrite = 0u;
 514              		.loc 1 535 0
 515 0058 82BF     		ittt	hi
 516 005a 104A     		ldrhi	r2, .L45
 517 005c 0021     		movhi	r1, #0
 518 005e 1170     		strbhi	r1, [r2]
 536:Generated_Source\PSoC5/SPI_Altitude.c ****             }
ARM GAS  C:\Users\Nathan\AppData\Local\Temp\ccxYnS06.s 			page 20


 537:Generated_Source\PSoC5/SPI_Altitude.c **** 
 538:Generated_Source\PSoC5/SPI_Altitude.c ****             if(SPI_Altitude_txBufferWrite == SPI_Altitude_txBufferRead)
 519              		.loc 1 538 0
 520 0060 1D78     		ldrb	r5, [r3]	@ zero_extendqisi2
 521 0062 2278     		ldrb	r2, [r4]	@ zero_extendqisi2
 522 0064 0E49     		ldr	r1, .L45+4
 523 0066 9542     		cmp	r5, r2
 524 0068 0BD1     		bne	.L37
 539:Generated_Source\PSoC5/SPI_Altitude.c ****             {
 540:Generated_Source\PSoC5/SPI_Altitude.c ****                 SPI_Altitude_txBufferRead++;
 525              		.loc 1 540 0
 526 006a 0A78     		ldrb	r2, [r1]	@ zero_extendqisi2
 527 006c 0132     		adds	r2, r2, #1
 528 006e D2B2     		uxtb	r2, r2
 529 0070 0A70     		strb	r2, [r1]
 541:Generated_Source\PSoC5/SPI_Altitude.c ****                 if(SPI_Altitude_txBufferRead >= SPI_Altitude_TX_BUFFER_SIZE)
 530              		.loc 1 541 0
 531 0072 0A78     		ldrb	r2, [r1]	@ zero_extendqisi2
 532 0074 072A     		cmp	r2, #7
 542:Generated_Source\PSoC5/SPI_Altitude.c ****                 {
 543:Generated_Source\PSoC5/SPI_Altitude.c ****                     SPI_Altitude_txBufferRead = 0u;
 533              		.loc 1 543 0
 534 0076 84BF     		itt	hi
 535 0078 0022     		movhi	r2, #0
 536 007a 0A70     		strbhi	r2, [r1]
 544:Generated_Source\PSoC5/SPI_Altitude.c ****                 }
 545:Generated_Source\PSoC5/SPI_Altitude.c ****                 SPI_Altitude_txBufferFull = 1u;
 537              		.loc 1 545 0
 538 007c 0D4A     		ldr	r2, .L45+24
 539 007e 0121     		movs	r1, #1
 540 0080 1170     		strb	r1, [r2]
 541              	.L37:
 546:Generated_Source\PSoC5/SPI_Altitude.c ****             }
 547:Generated_Source\PSoC5/SPI_Altitude.c **** 
 548:Generated_Source\PSoC5/SPI_Altitude.c ****             SPI_Altitude_txBuffer[SPI_Altitude_txBufferWrite] = txData;
 542              		.loc 1 548 0
 543 0082 1B78     		ldrb	r3, [r3]	@ zero_extendqisi2
 544 0084 0C4A     		ldr	r2, .L45+28
 545 0086 DBB2     		uxtb	r3, r3
 546 0088 D054     		strb	r0, [r2, r3]
 549:Generated_Source\PSoC5/SPI_Altitude.c **** 
 550:Generated_Source\PSoC5/SPI_Altitude.c ****             SPI_Altitude_TX_STATUS_MASK_REG |= SPI_Altitude_STS_TX_FIFO_NOT_FULL;
 547              		.loc 1 550 0
 548 008a 0C4A     		ldr	r2, .L45+32
 549 008c 1378     		ldrb	r3, [r2]	@ zero_extendqisi2
 550 008e 43F00403 		orr	r3, r3, #4
 551 0092 1370     		strb	r3, [r2]
 552              	.L35:
 553              	.LBB72:
 554              	.LBB73:
 230:Generated_Source\PSoC5/SPI_Altitude.c ****     #endif /* (0u != SPI_Altitude_INTERNAL_TX_INT_ENABLED) */
 555              		.loc 1 230 0
 556 0094 0A4B     		ldr	r3, .L45+36
 557 0096 0222     		movs	r2, #2
 558 0098 1A60     		str	r2, [r3]
 559 009a 70BD     		pop	{r4, r5, r6, pc}
 560              	.L46:
ARM GAS  C:\Users\Nathan\AppData\Local\Temp\ccxYnS06.s 			page 21


 561              		.align	2
 562              	.L45:
 563 009c 00000000 		.word	SPI_Altitude_txBufferWrite
 564 00a0 00000000 		.word	SPI_Altitude_txBufferRead
 565 00a4 80E100E0 		.word	-536813184
 566 00a8 6B650040 		.word	1073767787
 567 00ac 00000000 		.word	SPI_Altitude_swStatusTx
 568 00b0 4B640040 		.word	1073767499
 569 00b4 00000000 		.word	SPI_Altitude_txBufferFull
 570 00b8 00000000 		.word	SPI_Altitude_txBuffer
 571 00bc 8B650040 		.word	1073767819
 572 00c0 00E100E0 		.word	-536813312
 573              	.LBE73:
 574              	.LBE72:
 575              		.cfi_endproc
 576              	.LFE12:
 577              		.size	SPI_Altitude_WriteTxData, .-SPI_Altitude_WriteTxData
 578              		.section	.text.SPI_Altitude_ReadRxData,"ax",%progbits
 579              		.align	1
 580              		.global	SPI_Altitude_ReadRxData
 581              		.thumb
 582              		.thumb_func
 583              		.type	SPI_Altitude_ReadRxData, %function
 584              	SPI_Altitude_ReadRxData:
 585              	.LFB13:
 551:Generated_Source\PSoC5/SPI_Altitude.c ****         }
 552:Generated_Source\PSoC5/SPI_Altitude.c **** 
 553:Generated_Source\PSoC5/SPI_Altitude.c ****         SPI_Altitude_EnableTxInt();
 554:Generated_Source\PSoC5/SPI_Altitude.c **** 
 555:Generated_Source\PSoC5/SPI_Altitude.c ****     #else
 556:Generated_Source\PSoC5/SPI_Altitude.c ****         /* Wait until TX FIFO has a place */
 557:Generated_Source\PSoC5/SPI_Altitude.c ****         while(0u == (SPI_Altitude_TX_STATUS_REG & SPI_Altitude_STS_TX_FIFO_NOT_FULL))
 558:Generated_Source\PSoC5/SPI_Altitude.c ****         {
 559:Generated_Source\PSoC5/SPI_Altitude.c ****         }
 560:Generated_Source\PSoC5/SPI_Altitude.c **** 
 561:Generated_Source\PSoC5/SPI_Altitude.c ****         /* Put data element into the TX FIFO */
 562:Generated_Source\PSoC5/SPI_Altitude.c ****         CY_SET_REG8(SPI_Altitude_TXDATA_PTR, txData);
 563:Generated_Source\PSoC5/SPI_Altitude.c **** 
 564:Generated_Source\PSoC5/SPI_Altitude.c ****     #endif /* (SPI_Altitude_TX_SOFTWARE_BUF_ENABLED) */
 565:Generated_Source\PSoC5/SPI_Altitude.c **** }
 566:Generated_Source\PSoC5/SPI_Altitude.c **** 
 567:Generated_Source\PSoC5/SPI_Altitude.c **** 
 568:Generated_Source\PSoC5/SPI_Altitude.c **** /*******************************************************************************
 569:Generated_Source\PSoC5/SPI_Altitude.c **** * Function Name: SPI_Altitude_ReadRxData
 570:Generated_Source\PSoC5/SPI_Altitude.c **** ********************************************************************************
 571:Generated_Source\PSoC5/SPI_Altitude.c **** *
 572:Generated_Source\PSoC5/SPI_Altitude.c **** * Summary:
 573:Generated_Source\PSoC5/SPI_Altitude.c **** *  Read the next byte of data received across the SPI.
 574:Generated_Source\PSoC5/SPI_Altitude.c **** *
 575:Generated_Source\PSoC5/SPI_Altitude.c **** * Parameters:
 576:Generated_Source\PSoC5/SPI_Altitude.c **** *  None.
 577:Generated_Source\PSoC5/SPI_Altitude.c **** *
 578:Generated_Source\PSoC5/SPI_Altitude.c **** * Return:
 579:Generated_Source\PSoC5/SPI_Altitude.c **** *  The next byte of data read from the FIFO.
 580:Generated_Source\PSoC5/SPI_Altitude.c **** *
 581:Generated_Source\PSoC5/SPI_Altitude.c **** * Global variables:
 582:Generated_Source\PSoC5/SPI_Altitude.c **** *  SPI_Altitude_rxBufferWrite - used for the account of the bytes which
ARM GAS  C:\Users\Nathan\AppData\Local\Temp\ccxYnS06.s 			page 22


 583:Generated_Source\PSoC5/SPI_Altitude.c **** *  have been written down in the RX software buffer.
 584:Generated_Source\PSoC5/SPI_Altitude.c **** *  SPI_Altitude_rxBufferRead - used for the account of the bytes which
 585:Generated_Source\PSoC5/SPI_Altitude.c **** *  have been read from the RX software buffer, modified every function
 586:Generated_Source\PSoC5/SPI_Altitude.c **** *  call if RX Software Buffer is used.
 587:Generated_Source\PSoC5/SPI_Altitude.c **** *  SPI_Altitude_rxBuffer[SPI_Altitude_RX_BUFFER_SIZE] - used to store
 588:Generated_Source\PSoC5/SPI_Altitude.c **** *  received data.
 589:Generated_Source\PSoC5/SPI_Altitude.c **** *
 590:Generated_Source\PSoC5/SPI_Altitude.c **** * Theory:
 591:Generated_Source\PSoC5/SPI_Altitude.c **** *  Allows the user to read a byte of data received.
 592:Generated_Source\PSoC5/SPI_Altitude.c **** *
 593:Generated_Source\PSoC5/SPI_Altitude.c **** * Side Effects:
 594:Generated_Source\PSoC5/SPI_Altitude.c **** *  Will return invalid data if the FIFO is empty. The user should Call
 595:Generated_Source\PSoC5/SPI_Altitude.c **** *  GetRxBufferSize() and if it returns a non-zero value then it is safe to call
 596:Generated_Source\PSoC5/SPI_Altitude.c **** *  ReadByte() function.
 597:Generated_Source\PSoC5/SPI_Altitude.c **** *
 598:Generated_Source\PSoC5/SPI_Altitude.c **** * Reentrant:
 599:Generated_Source\PSoC5/SPI_Altitude.c **** *  No.
 600:Generated_Source\PSoC5/SPI_Altitude.c **** *
 601:Generated_Source\PSoC5/SPI_Altitude.c **** *******************************************************************************/
 602:Generated_Source\PSoC5/SPI_Altitude.c **** uint8 SPI_Altitude_ReadRxData(void) 
 603:Generated_Source\PSoC5/SPI_Altitude.c **** {
 586              		.loc 1 603 0
 587              		.cfi_startproc
 588              		@ args = 0, pretend = 0, frame = 0
 589              		@ frame_needed = 0, uses_anonymous_args = 0
 590              		@ link register save eliminated.
 591              	.LBB74:
 592              	.LBB75:
 305:Generated_Source\PSoC5/SPI_Altitude.c ****     #endif /* (0u != SPI_Altitude_INTERNAL_RX_INT_ENABLED) */
 593              		.loc 1 305 0
 594 0000 104B     		ldr	r3, .L52
 595 0002 0122     		movs	r2, #1
 596 0004 1A60     		str	r2, [r3]
 597              	.LBE75:
 598              	.LBE74:
 604:Generated_Source\PSoC5/SPI_Altitude.c ****     uint8 rxData;
 605:Generated_Source\PSoC5/SPI_Altitude.c **** 
 606:Generated_Source\PSoC5/SPI_Altitude.c ****     #if(SPI_Altitude_RX_SOFTWARE_BUF_ENABLED)
 607:Generated_Source\PSoC5/SPI_Altitude.c **** 
 608:Generated_Source\PSoC5/SPI_Altitude.c ****         /* Disable RX interrupt to protect global veriables */
 609:Generated_Source\PSoC5/SPI_Altitude.c ****         SPI_Altitude_DisableRxInt();
 610:Generated_Source\PSoC5/SPI_Altitude.c **** 
 611:Generated_Source\PSoC5/SPI_Altitude.c ****         if(SPI_Altitude_rxBufferRead != SPI_Altitude_rxBufferWrite)
 599              		.loc 1 611 0
 600 0006 104B     		ldr	r3, .L52+4
 601 0008 104A     		ldr	r2, .L52+8
 602 000a 1978     		ldrb	r1, [r3]	@ zero_extendqisi2
 603 000c 1278     		ldrb	r2, [r2]	@ zero_extendqisi2
 604 000e 9142     		cmp	r1, r2
 605 0010 0FD0     		beq	.L49
 612:Generated_Source\PSoC5/SPI_Altitude.c ****         {
 613:Generated_Source\PSoC5/SPI_Altitude.c ****             if(0u == SPI_Altitude_rxBufferFull)
 606              		.loc 1 613 0
 607 0012 0F4A     		ldr	r2, .L52+12
 608 0014 1178     		ldrb	r1, [r2]	@ zero_extendqisi2
 609 0016 01F0FF00 		and	r0, r1, #255
 610 001a 41B9     		cbnz	r1, .L50
ARM GAS  C:\Users\Nathan\AppData\Local\Temp\ccxYnS06.s 			page 23


 614:Generated_Source\PSoC5/SPI_Altitude.c ****             {
 615:Generated_Source\PSoC5/SPI_Altitude.c ****                 SPI_Altitude_rxBufferRead++;
 611              		.loc 1 615 0
 612 001c 1A78     		ldrb	r2, [r3]	@ zero_extendqisi2
 613 001e 0132     		adds	r2, r2, #1
 614 0020 D2B2     		uxtb	r2, r2
 615 0022 1A70     		strb	r2, [r3]
 616:Generated_Source\PSoC5/SPI_Altitude.c ****                 if(SPI_Altitude_rxBufferRead >= SPI_Altitude_RX_BUFFER_SIZE)
 616              		.loc 1 616 0
 617 0024 1A78     		ldrb	r2, [r3]	@ zero_extendqisi2
 618 0026 072A     		cmp	r2, #7
 619 0028 03D9     		bls	.L49
 617:Generated_Source\PSoC5/SPI_Altitude.c ****                 {
 618:Generated_Source\PSoC5/SPI_Altitude.c ****                     SPI_Altitude_rxBufferRead = 0u;
 620              		.loc 1 618 0
 621 002a 1870     		strb	r0, [r3]
 622 002c 01E0     		b	.L49
 623              	.L50:
 619:Generated_Source\PSoC5/SPI_Altitude.c ****                 }
 620:Generated_Source\PSoC5/SPI_Altitude.c ****             }
 621:Generated_Source\PSoC5/SPI_Altitude.c ****             else
 622:Generated_Source\PSoC5/SPI_Altitude.c ****             {
 623:Generated_Source\PSoC5/SPI_Altitude.c ****                 SPI_Altitude_rxBufferFull = 0u;
 624              		.loc 1 623 0
 625 002e 0021     		movs	r1, #0
 626 0030 1170     		strb	r1, [r2]
 627              	.L49:
 624:Generated_Source\PSoC5/SPI_Altitude.c ****             }
 625:Generated_Source\PSoC5/SPI_Altitude.c ****         }
 626:Generated_Source\PSoC5/SPI_Altitude.c **** 
 627:Generated_Source\PSoC5/SPI_Altitude.c ****         rxData = SPI_Altitude_rxBuffer[SPI_Altitude_rxBufferRead];
 628              		.loc 1 627 0
 629 0032 1B78     		ldrb	r3, [r3]	@ zero_extendqisi2
 630 0034 074A     		ldr	r2, .L52+16
 631 0036 DBB2     		uxtb	r3, r3
 632 0038 D05C     		ldrb	r0, [r2, r3]	@ zero_extendqisi2
 633              	.LVL23:
 634              	.LBB76:
 635              	.LBB77:
 255:Generated_Source\PSoC5/SPI_Altitude.c ****     #endif /* (0u != SPI_Altitude_INTERNAL_RX_INT_ENABLED) */
 636              		.loc 1 255 0
 637 003a 074B     		ldr	r3, .L52+20
 638 003c 0122     		movs	r2, #1
 639 003e 1A60     		str	r2, [r3]
 640              	.LBE77:
 641              	.LBE76:
 628:Generated_Source\PSoC5/SPI_Altitude.c **** 
 629:Generated_Source\PSoC5/SPI_Altitude.c ****         SPI_Altitude_EnableRxInt();
 630:Generated_Source\PSoC5/SPI_Altitude.c **** 
 631:Generated_Source\PSoC5/SPI_Altitude.c ****     #else
 632:Generated_Source\PSoC5/SPI_Altitude.c **** 
 633:Generated_Source\PSoC5/SPI_Altitude.c ****         rxData = CY_GET_REG8(SPI_Altitude_RXDATA_PTR);
 634:Generated_Source\PSoC5/SPI_Altitude.c **** 
 635:Generated_Source\PSoC5/SPI_Altitude.c ****     #endif /* (SPI_Altitude_RX_SOFTWARE_BUF_ENABLED) */
 636:Generated_Source\PSoC5/SPI_Altitude.c **** 
 637:Generated_Source\PSoC5/SPI_Altitude.c ****     return(rxData);
 638:Generated_Source\PSoC5/SPI_Altitude.c **** }
ARM GAS  C:\Users\Nathan\AppData\Local\Temp\ccxYnS06.s 			page 24


 642              		.loc 1 638 0
 643 0040 7047     		bx	lr
 644              	.L53:
 645 0042 00BF     		.align	2
 646              	.L52:
 647 0044 80E100E0 		.word	-536813184
 648 0048 00000000 		.word	SPI_Altitude_rxBufferRead
 649 004c 00000000 		.word	SPI_Altitude_rxBufferWrite
 650 0050 00000000 		.word	SPI_Altitude_rxBufferFull
 651 0054 00000000 		.word	SPI_Altitude_rxBuffer
 652 0058 00E100E0 		.word	-536813312
 653              		.cfi_endproc
 654              	.LFE13:
 655              		.size	SPI_Altitude_ReadRxData, .-SPI_Altitude_ReadRxData
 656              		.section	.text.SPI_Altitude_GetRxBufferSize,"ax",%progbits
 657              		.align	1
 658              		.global	SPI_Altitude_GetRxBufferSize
 659              		.thumb
 660              		.thumb_func
 661              		.type	SPI_Altitude_GetRxBufferSize, %function
 662              	SPI_Altitude_GetRxBufferSize:
 663              	.LFB14:
 639:Generated_Source\PSoC5/SPI_Altitude.c **** 
 640:Generated_Source\PSoC5/SPI_Altitude.c **** 
 641:Generated_Source\PSoC5/SPI_Altitude.c **** /*******************************************************************************
 642:Generated_Source\PSoC5/SPI_Altitude.c **** * Function Name: SPI_Altitude_GetRxBufferSize
 643:Generated_Source\PSoC5/SPI_Altitude.c **** ********************************************************************************
 644:Generated_Source\PSoC5/SPI_Altitude.c **** *
 645:Generated_Source\PSoC5/SPI_Altitude.c **** * Summary:
 646:Generated_Source\PSoC5/SPI_Altitude.c **** *  Returns the number of bytes/words of data currently held in the RX buffer.
 647:Generated_Source\PSoC5/SPI_Altitude.c **** *  If RX Software Buffer not used then function return 0 if FIFO empty or 1 if
 648:Generated_Source\PSoC5/SPI_Altitude.c **** *  FIFO not empty. In another case function return size of RX Software Buffer.
 649:Generated_Source\PSoC5/SPI_Altitude.c **** *
 650:Generated_Source\PSoC5/SPI_Altitude.c **** * Parameters:
 651:Generated_Source\PSoC5/SPI_Altitude.c **** *  None.
 652:Generated_Source\PSoC5/SPI_Altitude.c **** *
 653:Generated_Source\PSoC5/SPI_Altitude.c **** * Return:
 654:Generated_Source\PSoC5/SPI_Altitude.c **** *  Integer count of the number of bytes/words in the RX buffer.
 655:Generated_Source\PSoC5/SPI_Altitude.c **** *
 656:Generated_Source\PSoC5/SPI_Altitude.c **** * Global variables:
 657:Generated_Source\PSoC5/SPI_Altitude.c **** *  SPI_Altitude_rxBufferWrite - used for the account of the bytes which
 658:Generated_Source\PSoC5/SPI_Altitude.c **** *  have been written down in the RX software buffer.
 659:Generated_Source\PSoC5/SPI_Altitude.c **** *  SPI_Altitude_rxBufferRead - used for the account of the bytes which
 660:Generated_Source\PSoC5/SPI_Altitude.c **** *  have been read from the RX software buffer.
 661:Generated_Source\PSoC5/SPI_Altitude.c **** *
 662:Generated_Source\PSoC5/SPI_Altitude.c **** * Side Effects:
 663:Generated_Source\PSoC5/SPI_Altitude.c **** *  Clear status register of the component.
 664:Generated_Source\PSoC5/SPI_Altitude.c **** *
 665:Generated_Source\PSoC5/SPI_Altitude.c **** *******************************************************************************/
 666:Generated_Source\PSoC5/SPI_Altitude.c **** uint8 SPI_Altitude_GetRxBufferSize(void) 
 667:Generated_Source\PSoC5/SPI_Altitude.c **** {
 664              		.loc 1 667 0
 665              		.cfi_startproc
 666              		@ args = 0, pretend = 0, frame = 0
 667              		@ frame_needed = 0, uses_anonymous_args = 0
 668              		@ link register save eliminated.
 669              	.LBB78:
ARM GAS  C:\Users\Nathan\AppData\Local\Temp\ccxYnS06.s 			page 25


 670              	.LBB79:
 305:Generated_Source\PSoC5/SPI_Altitude.c ****     #endif /* (0u != SPI_Altitude_INTERNAL_RX_INT_ENABLED) */
 671              		.loc 1 305 0
 672 0000 0D4B     		ldr	r3, .L59
 673 0002 0122     		movs	r2, #1
 674 0004 1A60     		str	r2, [r3]
 675              	.LBE79:
 676              	.LBE78:
 668:Generated_Source\PSoC5/SPI_Altitude.c ****     uint8 size;
 669:Generated_Source\PSoC5/SPI_Altitude.c **** 
 670:Generated_Source\PSoC5/SPI_Altitude.c ****     #if(SPI_Altitude_RX_SOFTWARE_BUF_ENABLED)
 671:Generated_Source\PSoC5/SPI_Altitude.c **** 
 672:Generated_Source\PSoC5/SPI_Altitude.c ****         /* Disable RX interrupt to protect global veriables */
 673:Generated_Source\PSoC5/SPI_Altitude.c ****         SPI_Altitude_DisableRxInt();
 674:Generated_Source\PSoC5/SPI_Altitude.c **** 
 675:Generated_Source\PSoC5/SPI_Altitude.c ****         if(SPI_Altitude_rxBufferRead == SPI_Altitude_rxBufferWrite)
 677              		.loc 1 675 0
 678 0006 0D4A     		ldr	r2, .L59+4
 679 0008 0D4B     		ldr	r3, .L59+8
 680 000a 1078     		ldrb	r0, [r2]	@ zero_extendqisi2
 681 000c 1978     		ldrb	r1, [r3]	@ zero_extendqisi2
 682 000e 8842     		cmp	r0, r1
 683 0010 0DD0     		beq	.L57
 676:Generated_Source\PSoC5/SPI_Altitude.c ****         {
 677:Generated_Source\PSoC5/SPI_Altitude.c ****             size = 0u;
 678:Generated_Source\PSoC5/SPI_Altitude.c ****         }
 679:Generated_Source\PSoC5/SPI_Altitude.c ****         else if(SPI_Altitude_rxBufferRead < SPI_Altitude_rxBufferWrite)
 684              		.loc 1 679 0
 685 0012 1078     		ldrb	r0, [r2]	@ zero_extendqisi2
 686 0014 1978     		ldrb	r1, [r3]	@ zero_extendqisi2
 687 0016 8842     		cmp	r0, r1
 680:Generated_Source\PSoC5/SPI_Altitude.c ****         {
 681:Generated_Source\PSoC5/SPI_Altitude.c ****             size = (SPI_Altitude_rxBufferWrite - SPI_Altitude_rxBufferRead);
 682:Generated_Source\PSoC5/SPI_Altitude.c ****         }
 683:Generated_Source\PSoC5/SPI_Altitude.c ****         else
 684:Generated_Source\PSoC5/SPI_Altitude.c ****         {
 685:Generated_Source\PSoC5/SPI_Altitude.c ****             size = (SPI_Altitude_RX_BUFFER_SIZE - SPI_Altitude_rxBufferRead) + SPI_Altitude_rxBuffe
 688              		.loc 1 685 0
 689 0018 2BBF     		itete	cs
 690 001a 1878     		ldrbcs	r0, [r3]	@ zero_extendqisi2
 681:Generated_Source\PSoC5/SPI_Altitude.c ****         }
 691              		.loc 1 681 0
 692 001c 1B78     		ldrbcc	r3, [r3]	@ zero_extendqisi2
 693              		.loc 1 685 0
 694 001e 1378     		ldrbcs	r3, [r2]	@ zero_extendqisi2
 681:Generated_Source\PSoC5/SPI_Altitude.c ****         }
 695              		.loc 1 681 0
 696 0020 1078     		ldrbcc	r0, [r2]	@ zero_extendqisi2
 697              		.loc 1 685 0
 698 0022 2ABF     		itet	cs
 699 0024 0830     		addcs	r0, r0, #8
 681:Generated_Source\PSoC5/SPI_Altitude.c ****         }
 700              		.loc 1 681 0
 701 0026 181A     		subcc	r0, r3, r0
 702              		.loc 1 685 0
 703 0028 C01A     		subcs	r0, r0, r3
 704 002a C0B2     		uxtb	r0, r0
ARM GAS  C:\Users\Nathan\AppData\Local\Temp\ccxYnS06.s 			page 26


 705              	.LVL24:
 706 002c 00E0     		b	.L55
 707              	.LVL25:
 708              	.L57:
 677:Generated_Source\PSoC5/SPI_Altitude.c ****         }
 709              		.loc 1 677 0
 710 002e 0020     		movs	r0, #0
 711              	.L55:
 712              	.LVL26:
 713              	.LBB80:
 714              	.LBB81:
 255:Generated_Source\PSoC5/SPI_Altitude.c ****     #endif /* (0u != SPI_Altitude_INTERNAL_RX_INT_ENABLED) */
 715              		.loc 1 255 0
 716 0030 044B     		ldr	r3, .L59+12
 717 0032 0122     		movs	r2, #1
 718 0034 1A60     		str	r2, [r3]
 719              	.LBE81:
 720              	.LBE80:
 686:Generated_Source\PSoC5/SPI_Altitude.c ****         }
 687:Generated_Source\PSoC5/SPI_Altitude.c **** 
 688:Generated_Source\PSoC5/SPI_Altitude.c ****         SPI_Altitude_EnableRxInt();
 689:Generated_Source\PSoC5/SPI_Altitude.c **** 
 690:Generated_Source\PSoC5/SPI_Altitude.c ****     #else
 691:Generated_Source\PSoC5/SPI_Altitude.c **** 
 692:Generated_Source\PSoC5/SPI_Altitude.c ****         /* We can only know if there is data in the RX FIFO */
 693:Generated_Source\PSoC5/SPI_Altitude.c ****         size = (0u != (SPI_Altitude_RX_STATUS_REG & SPI_Altitude_STS_RX_FIFO_NOT_EMPTY)) ? 1u : 0u;
 694:Generated_Source\PSoC5/SPI_Altitude.c **** 
 695:Generated_Source\PSoC5/SPI_Altitude.c ****     #endif /* (SPI_Altitude_TX_SOFTWARE_BUF_ENABLED) */
 696:Generated_Source\PSoC5/SPI_Altitude.c **** 
 697:Generated_Source\PSoC5/SPI_Altitude.c ****     return(size);
 698:Generated_Source\PSoC5/SPI_Altitude.c **** }
 721              		.loc 1 698 0
 722 0036 7047     		bx	lr
 723              	.L60:
 724              		.align	2
 725              	.L59:
 726 0038 80E100E0 		.word	-536813184
 727 003c 00000000 		.word	SPI_Altitude_rxBufferRead
 728 0040 00000000 		.word	SPI_Altitude_rxBufferWrite
 729 0044 00E100E0 		.word	-536813312
 730              		.cfi_endproc
 731              	.LFE14:
 732              		.size	SPI_Altitude_GetRxBufferSize, .-SPI_Altitude_GetRxBufferSize
 733              		.section	.text.SPI_Altitude_GetTxBufferSize,"ax",%progbits
 734              		.align	1
 735              		.global	SPI_Altitude_GetTxBufferSize
 736              		.thumb
 737              		.thumb_func
 738              		.type	SPI_Altitude_GetTxBufferSize, %function
 739              	SPI_Altitude_GetTxBufferSize:
 740              	.LFB15:
 699:Generated_Source\PSoC5/SPI_Altitude.c **** 
 700:Generated_Source\PSoC5/SPI_Altitude.c **** 
 701:Generated_Source\PSoC5/SPI_Altitude.c **** /*******************************************************************************
 702:Generated_Source\PSoC5/SPI_Altitude.c **** * Function Name: SPI_Altitude_GetTxBufferSize
 703:Generated_Source\PSoC5/SPI_Altitude.c **** ********************************************************************************
 704:Generated_Source\PSoC5/SPI_Altitude.c **** *
ARM GAS  C:\Users\Nathan\AppData\Local\Temp\ccxYnS06.s 			page 27


 705:Generated_Source\PSoC5/SPI_Altitude.c **** * Summary:
 706:Generated_Source\PSoC5/SPI_Altitude.c **** *  Returns the number of bytes/words of data currently held in the TX buffer.
 707:Generated_Source\PSoC5/SPI_Altitude.c **** *  If TX Software Buffer not used then function return 0 - if FIFO empty, 1 - if
 708:Generated_Source\PSoC5/SPI_Altitude.c **** *  FIFO not full, 4 - if FIFO full. In another case function return size of TX
 709:Generated_Source\PSoC5/SPI_Altitude.c **** *  Software Buffer.
 710:Generated_Source\PSoC5/SPI_Altitude.c **** *
 711:Generated_Source\PSoC5/SPI_Altitude.c **** * Parameters:
 712:Generated_Source\PSoC5/SPI_Altitude.c **** *  None.
 713:Generated_Source\PSoC5/SPI_Altitude.c **** *
 714:Generated_Source\PSoC5/SPI_Altitude.c **** * Return:
 715:Generated_Source\PSoC5/SPI_Altitude.c **** *  Integer count of the number of bytes/words in the TX buffer.
 716:Generated_Source\PSoC5/SPI_Altitude.c **** *
 717:Generated_Source\PSoC5/SPI_Altitude.c **** * Global variables:
 718:Generated_Source\PSoC5/SPI_Altitude.c **** *  SPI_Altitude_txBufferWrite - used for the account of the bytes which
 719:Generated_Source\PSoC5/SPI_Altitude.c **** *  have been written down in the TX software buffer.
 720:Generated_Source\PSoC5/SPI_Altitude.c **** *  SPI_Altitude_txBufferRead - used for the account of the bytes which
 721:Generated_Source\PSoC5/SPI_Altitude.c **** *  have been read from the TX software buffer.
 722:Generated_Source\PSoC5/SPI_Altitude.c **** *
 723:Generated_Source\PSoC5/SPI_Altitude.c **** * Side Effects:
 724:Generated_Source\PSoC5/SPI_Altitude.c **** *  Clear status register of the component.
 725:Generated_Source\PSoC5/SPI_Altitude.c **** *
 726:Generated_Source\PSoC5/SPI_Altitude.c **** *******************************************************************************/
 727:Generated_Source\PSoC5/SPI_Altitude.c **** uint8  SPI_Altitude_GetTxBufferSize(void) 
 728:Generated_Source\PSoC5/SPI_Altitude.c **** {
 741              		.loc 1 728 0
 742              		.cfi_startproc
 743              		@ args = 0, pretend = 0, frame = 0
 744              		@ frame_needed = 0, uses_anonymous_args = 0
 745              		@ link register save eliminated.
 746              	.LBB82:
 747              	.LBB83:
 280:Generated_Source\PSoC5/SPI_Altitude.c ****     #endif /* (0u != SPI_Altitude_INTERNAL_TX_INT_ENABLED) */
 748              		.loc 1 280 0
 749 0000 0D4B     		ldr	r3, .L66
 750 0002 0222     		movs	r2, #2
 751 0004 1A60     		str	r2, [r3]
 752              	.LBE83:
 753              	.LBE82:
 729:Generated_Source\PSoC5/SPI_Altitude.c ****     uint8 size;
 730:Generated_Source\PSoC5/SPI_Altitude.c **** 
 731:Generated_Source\PSoC5/SPI_Altitude.c ****     #if(SPI_Altitude_TX_SOFTWARE_BUF_ENABLED)
 732:Generated_Source\PSoC5/SPI_Altitude.c ****         /* Disable TX interrupt to protect global veriables */
 733:Generated_Source\PSoC5/SPI_Altitude.c ****         SPI_Altitude_DisableTxInt();
 734:Generated_Source\PSoC5/SPI_Altitude.c **** 
 735:Generated_Source\PSoC5/SPI_Altitude.c ****         if(SPI_Altitude_txBufferRead == SPI_Altitude_txBufferWrite)
 754              		.loc 1 735 0
 755 0006 0D4A     		ldr	r2, .L66+4
 756 0008 0D4B     		ldr	r3, .L66+8
 757 000a 1078     		ldrb	r0, [r2]	@ zero_extendqisi2
 758 000c 1978     		ldrb	r1, [r3]	@ zero_extendqisi2
 759 000e 8842     		cmp	r0, r1
 760 0010 0DD0     		beq	.L64
 736:Generated_Source\PSoC5/SPI_Altitude.c ****         {
 737:Generated_Source\PSoC5/SPI_Altitude.c ****             size = 0u;
 738:Generated_Source\PSoC5/SPI_Altitude.c ****         }
 739:Generated_Source\PSoC5/SPI_Altitude.c ****         else if(SPI_Altitude_txBufferRead < SPI_Altitude_txBufferWrite)
 761              		.loc 1 739 0
ARM GAS  C:\Users\Nathan\AppData\Local\Temp\ccxYnS06.s 			page 28


 762 0012 1078     		ldrb	r0, [r2]	@ zero_extendqisi2
 763 0014 1978     		ldrb	r1, [r3]	@ zero_extendqisi2
 764 0016 8842     		cmp	r0, r1
 740:Generated_Source\PSoC5/SPI_Altitude.c ****         {
 741:Generated_Source\PSoC5/SPI_Altitude.c ****             size = (SPI_Altitude_txBufferWrite - SPI_Altitude_txBufferRead);
 742:Generated_Source\PSoC5/SPI_Altitude.c ****         }
 743:Generated_Source\PSoC5/SPI_Altitude.c ****         else
 744:Generated_Source\PSoC5/SPI_Altitude.c ****         {
 745:Generated_Source\PSoC5/SPI_Altitude.c ****             size = (SPI_Altitude_TX_BUFFER_SIZE - SPI_Altitude_txBufferRead) + SPI_Altitude_txBuffe
 765              		.loc 1 745 0
 766 0018 2BBF     		itete	cs
 767 001a 1878     		ldrbcs	r0, [r3]	@ zero_extendqisi2
 741:Generated_Source\PSoC5/SPI_Altitude.c ****         }
 768              		.loc 1 741 0
 769 001c 1B78     		ldrbcc	r3, [r3]	@ zero_extendqisi2
 770              		.loc 1 745 0
 771 001e 1378     		ldrbcs	r3, [r2]	@ zero_extendqisi2
 741:Generated_Source\PSoC5/SPI_Altitude.c ****         }
 772              		.loc 1 741 0
 773 0020 1078     		ldrbcc	r0, [r2]	@ zero_extendqisi2
 774              		.loc 1 745 0
 775 0022 2ABF     		itet	cs
 776 0024 0830     		addcs	r0, r0, #8
 741:Generated_Source\PSoC5/SPI_Altitude.c ****         }
 777              		.loc 1 741 0
 778 0026 181A     		subcc	r0, r3, r0
 779              		.loc 1 745 0
 780 0028 C01A     		subcs	r0, r0, r3
 781 002a C0B2     		uxtb	r0, r0
 782              	.LVL27:
 783 002c 00E0     		b	.L62
 784              	.LVL28:
 785              	.L64:
 737:Generated_Source\PSoC5/SPI_Altitude.c ****         }
 786              		.loc 1 737 0
 787 002e 0020     		movs	r0, #0
 788              	.L62:
 789              	.LVL29:
 790              	.LBB84:
 791              	.LBB85:
 230:Generated_Source\PSoC5/SPI_Altitude.c ****     #endif /* (0u != SPI_Altitude_INTERNAL_TX_INT_ENABLED) */
 792              		.loc 1 230 0
 793 0030 044B     		ldr	r3, .L66+12
 794 0032 0222     		movs	r2, #2
 795 0034 1A60     		str	r2, [r3]
 796              	.LBE85:
 797              	.LBE84:
 746:Generated_Source\PSoC5/SPI_Altitude.c ****         }
 747:Generated_Source\PSoC5/SPI_Altitude.c **** 
 748:Generated_Source\PSoC5/SPI_Altitude.c ****         SPI_Altitude_EnableTxInt();
 749:Generated_Source\PSoC5/SPI_Altitude.c **** 
 750:Generated_Source\PSoC5/SPI_Altitude.c ****     #else
 751:Generated_Source\PSoC5/SPI_Altitude.c **** 
 752:Generated_Source\PSoC5/SPI_Altitude.c ****         size = SPI_Altitude_TX_STATUS_REG;
 753:Generated_Source\PSoC5/SPI_Altitude.c **** 
 754:Generated_Source\PSoC5/SPI_Altitude.c ****         if(0u != (size & SPI_Altitude_STS_TX_FIFO_EMPTY))
 755:Generated_Source\PSoC5/SPI_Altitude.c ****         {
ARM GAS  C:\Users\Nathan\AppData\Local\Temp\ccxYnS06.s 			page 29


 756:Generated_Source\PSoC5/SPI_Altitude.c ****             size = 0u;
 757:Generated_Source\PSoC5/SPI_Altitude.c ****         }
 758:Generated_Source\PSoC5/SPI_Altitude.c ****         else if(0u != (size & SPI_Altitude_STS_TX_FIFO_NOT_FULL))
 759:Generated_Source\PSoC5/SPI_Altitude.c ****         {
 760:Generated_Source\PSoC5/SPI_Altitude.c ****             size = 1u;
 761:Generated_Source\PSoC5/SPI_Altitude.c ****         }
 762:Generated_Source\PSoC5/SPI_Altitude.c ****         else
 763:Generated_Source\PSoC5/SPI_Altitude.c ****         {
 764:Generated_Source\PSoC5/SPI_Altitude.c ****             size = SPI_Altitude_FIFO_SIZE;
 765:Generated_Source\PSoC5/SPI_Altitude.c ****         }
 766:Generated_Source\PSoC5/SPI_Altitude.c **** 
 767:Generated_Source\PSoC5/SPI_Altitude.c ****     #endif /* (SPI_Altitude_TX_SOFTWARE_BUF_ENABLED) */
 768:Generated_Source\PSoC5/SPI_Altitude.c **** 
 769:Generated_Source\PSoC5/SPI_Altitude.c ****     return(size);
 770:Generated_Source\PSoC5/SPI_Altitude.c **** }
 798              		.loc 1 770 0
 799 0036 7047     		bx	lr
 800              	.L67:
 801              		.align	2
 802              	.L66:
 803 0038 80E100E0 		.word	-536813184
 804 003c 00000000 		.word	SPI_Altitude_txBufferRead
 805 0040 00000000 		.word	SPI_Altitude_txBufferWrite
 806 0044 00E100E0 		.word	-536813312
 807              		.cfi_endproc
 808              	.LFE15:
 809              		.size	SPI_Altitude_GetTxBufferSize, .-SPI_Altitude_GetTxBufferSize
 810              		.section	.text.SPI_Altitude_ClearRxBuffer,"ax",%progbits
 811              		.align	1
 812              		.global	SPI_Altitude_ClearRxBuffer
 813              		.thumb
 814              		.thumb_func
 815              		.type	SPI_Altitude_ClearRxBuffer, %function
 816              	SPI_Altitude_ClearRxBuffer:
 817              	.LFB16:
 771:Generated_Source\PSoC5/SPI_Altitude.c **** 
 772:Generated_Source\PSoC5/SPI_Altitude.c **** 
 773:Generated_Source\PSoC5/SPI_Altitude.c **** /*******************************************************************************
 774:Generated_Source\PSoC5/SPI_Altitude.c **** * Function Name: SPI_Altitude_ClearRxBuffer
 775:Generated_Source\PSoC5/SPI_Altitude.c **** ********************************************************************************
 776:Generated_Source\PSoC5/SPI_Altitude.c **** *
 777:Generated_Source\PSoC5/SPI_Altitude.c **** * Summary:
 778:Generated_Source\PSoC5/SPI_Altitude.c **** *  Clear the RX RAM buffer by setting the read and write pointers both to zero.
 779:Generated_Source\PSoC5/SPI_Altitude.c **** *
 780:Generated_Source\PSoC5/SPI_Altitude.c **** * Parameters:
 781:Generated_Source\PSoC5/SPI_Altitude.c **** *  None.
 782:Generated_Source\PSoC5/SPI_Altitude.c **** *
 783:Generated_Source\PSoC5/SPI_Altitude.c **** * Return:
 784:Generated_Source\PSoC5/SPI_Altitude.c **** *  None.
 785:Generated_Source\PSoC5/SPI_Altitude.c **** *
 786:Generated_Source\PSoC5/SPI_Altitude.c **** * Global variables:
 787:Generated_Source\PSoC5/SPI_Altitude.c **** *  SPI_Altitude_rxBufferWrite - used for the account of the bytes which
 788:Generated_Source\PSoC5/SPI_Altitude.c **** *  have been written down in the RX software buffer, modified every function
 789:Generated_Source\PSoC5/SPI_Altitude.c **** *  call - resets to zero.
 790:Generated_Source\PSoC5/SPI_Altitude.c **** *  SPI_Altitude_rxBufferRead - used for the account of the bytes which
 791:Generated_Source\PSoC5/SPI_Altitude.c **** *  have been read from the RX software buffer, modified every function call -
 792:Generated_Source\PSoC5/SPI_Altitude.c **** *  resets to zero.
ARM GAS  C:\Users\Nathan\AppData\Local\Temp\ccxYnS06.s 			page 30


 793:Generated_Source\PSoC5/SPI_Altitude.c **** *
 794:Generated_Source\PSoC5/SPI_Altitude.c **** * Theory:
 795:Generated_Source\PSoC5/SPI_Altitude.c **** *  Setting the pointers to zero makes the system believe there is no data to
 796:Generated_Source\PSoC5/SPI_Altitude.c **** *  read and writing will resume at address 0 overwriting any data that may have
 797:Generated_Source\PSoC5/SPI_Altitude.c **** *  remained in the RAM.
 798:Generated_Source\PSoC5/SPI_Altitude.c **** *
 799:Generated_Source\PSoC5/SPI_Altitude.c **** * Side Effects:
 800:Generated_Source\PSoC5/SPI_Altitude.c **** *  Any received data not read from the RAM buffer will be lost when overwritten.
 801:Generated_Source\PSoC5/SPI_Altitude.c **** *
 802:Generated_Source\PSoC5/SPI_Altitude.c **** * Reentrant:
 803:Generated_Source\PSoC5/SPI_Altitude.c **** *  No.
 804:Generated_Source\PSoC5/SPI_Altitude.c **** *
 805:Generated_Source\PSoC5/SPI_Altitude.c **** *******************************************************************************/
 806:Generated_Source\PSoC5/SPI_Altitude.c **** void SPI_Altitude_ClearRxBuffer(void) 
 807:Generated_Source\PSoC5/SPI_Altitude.c **** {
 818              		.loc 1 807 0
 819              		.cfi_startproc
 820              		@ args = 0, pretend = 0, frame = 0
 821              		@ frame_needed = 0, uses_anonymous_args = 0
 822              		@ link register save eliminated.
 808:Generated_Source\PSoC5/SPI_Altitude.c ****     /* Clear Hardware RX FIFO */
 809:Generated_Source\PSoC5/SPI_Altitude.c ****     while(0u !=(SPI_Altitude_RX_STATUS_REG & SPI_Altitude_STS_RX_FIFO_NOT_EMPTY))
 823              		.loc 1 809 0
 824 0000 0A49     		ldr	r1, .L72
 810:Generated_Source\PSoC5/SPI_Altitude.c ****     {
 811:Generated_Source\PSoC5/SPI_Altitude.c ****         (void) CY_GET_REG8(SPI_Altitude_RXDATA_PTR);
 825              		.loc 1 811 0
 826 0002 0B48     		ldr	r0, .L72+4
 827              	.L69:
 809:Generated_Source\PSoC5/SPI_Altitude.c ****     {
 828              		.loc 1 809 0
 829 0004 0B78     		ldrb	r3, [r1]	@ zero_extendqisi2
 830 0006 03F02003 		and	r3, r3, #32
 831 000a 03F0FF02 		and	r2, r3, #255
 832 000e 0BB1     		cbz	r3, .L71
 833              		.loc 1 811 0
 834 0010 0378     		ldrb	r3, [r0]	@ zero_extendqisi2
 835 0012 F7E7     		b	.L69
 836              	.L71:
 837              	.LBB86:
 838              	.LBB87:
 305:Generated_Source\PSoC5/SPI_Altitude.c ****     #endif /* (0u != SPI_Altitude_INTERNAL_RX_INT_ENABLED) */
 839              		.loc 1 305 0
 840 0014 0749     		ldr	r1, .L72+8
 841 0016 0123     		movs	r3, #1
 842 0018 0B60     		str	r3, [r1]
 843              	.LBE87:
 844              	.LBE86:
 812:Generated_Source\PSoC5/SPI_Altitude.c ****     }
 813:Generated_Source\PSoC5/SPI_Altitude.c **** 
 814:Generated_Source\PSoC5/SPI_Altitude.c ****     #if(SPI_Altitude_RX_SOFTWARE_BUF_ENABLED)
 815:Generated_Source\PSoC5/SPI_Altitude.c ****         /* Disable RX interrupt to protect global veriables */
 816:Generated_Source\PSoC5/SPI_Altitude.c ****         SPI_Altitude_DisableRxInt();
 817:Generated_Source\PSoC5/SPI_Altitude.c **** 
 818:Generated_Source\PSoC5/SPI_Altitude.c ****         SPI_Altitude_rxBufferFull  = 0u;
 845              		.loc 1 818 0
 846 001a 0749     		ldr	r1, .L72+12
ARM GAS  C:\Users\Nathan\AppData\Local\Temp\ccxYnS06.s 			page 31


 847 001c 0A70     		strb	r2, [r1]
 819:Generated_Source\PSoC5/SPI_Altitude.c ****         SPI_Altitude_rxBufferRead  = 0u;
 848              		.loc 1 819 0
 849 001e 0749     		ldr	r1, .L72+16
 850 0020 0A70     		strb	r2, [r1]
 820:Generated_Source\PSoC5/SPI_Altitude.c ****         SPI_Altitude_rxBufferWrite = 0u;
 851              		.loc 1 820 0
 852 0022 0749     		ldr	r1, .L72+20
 853 0024 0A70     		strb	r2, [r1]
 854              	.LBB88:
 855              	.LBB89:
 255:Generated_Source\PSoC5/SPI_Altitude.c ****     #endif /* (0u != SPI_Altitude_INTERNAL_RX_INT_ENABLED) */
 856              		.loc 1 255 0
 857 0026 074A     		ldr	r2, .L72+24
 858 0028 1360     		str	r3, [r2]
 859 002a 7047     		bx	lr
 860              	.L73:
 861              		.align	2
 862              	.L72:
 863 002c 64640040 		.word	1073767524
 864 0030 5B640040 		.word	1073767515
 865 0034 80E100E0 		.word	-536813184
 866 0038 00000000 		.word	SPI_Altitude_rxBufferFull
 867 003c 00000000 		.word	SPI_Altitude_rxBufferRead
 868 0040 00000000 		.word	SPI_Altitude_rxBufferWrite
 869 0044 00E100E0 		.word	-536813312
 870              	.LBE89:
 871              	.LBE88:
 872              		.cfi_endproc
 873              	.LFE16:
 874              		.size	SPI_Altitude_ClearRxBuffer, .-SPI_Altitude_ClearRxBuffer
 875              		.section	.text.SPI_Altitude_ClearTxBuffer,"ax",%progbits
 876              		.align	1
 877              		.global	SPI_Altitude_ClearTxBuffer
 878              		.thumb
 879              		.thumb_func
 880              		.type	SPI_Altitude_ClearTxBuffer, %function
 881              	SPI_Altitude_ClearTxBuffer:
 882              	.LFB17:
 821:Generated_Source\PSoC5/SPI_Altitude.c **** 
 822:Generated_Source\PSoC5/SPI_Altitude.c ****         SPI_Altitude_EnableRxInt();
 823:Generated_Source\PSoC5/SPI_Altitude.c ****     #endif /* (SPI_Altitude_RX_SOFTWARE_BUF_ENABLED) */
 824:Generated_Source\PSoC5/SPI_Altitude.c **** }
 825:Generated_Source\PSoC5/SPI_Altitude.c **** 
 826:Generated_Source\PSoC5/SPI_Altitude.c **** 
 827:Generated_Source\PSoC5/SPI_Altitude.c **** /*******************************************************************************
 828:Generated_Source\PSoC5/SPI_Altitude.c **** * Function Name: SPI_Altitude_ClearTxBuffer
 829:Generated_Source\PSoC5/SPI_Altitude.c **** ********************************************************************************
 830:Generated_Source\PSoC5/SPI_Altitude.c **** *
 831:Generated_Source\PSoC5/SPI_Altitude.c **** * Summary:
 832:Generated_Source\PSoC5/SPI_Altitude.c **** *  Clear the TX RAM buffer by setting the read and write pointers both to zero.
 833:Generated_Source\PSoC5/SPI_Altitude.c **** *
 834:Generated_Source\PSoC5/SPI_Altitude.c **** * Parameters:
 835:Generated_Source\PSoC5/SPI_Altitude.c **** *  None.
 836:Generated_Source\PSoC5/SPI_Altitude.c **** *
 837:Generated_Source\PSoC5/SPI_Altitude.c **** * Return:
 838:Generated_Source\PSoC5/SPI_Altitude.c **** *  None.
ARM GAS  C:\Users\Nathan\AppData\Local\Temp\ccxYnS06.s 			page 32


 839:Generated_Source\PSoC5/SPI_Altitude.c **** *
 840:Generated_Source\PSoC5/SPI_Altitude.c **** * Global variables:
 841:Generated_Source\PSoC5/SPI_Altitude.c **** *  SPI_Altitude_txBufferWrite - used for the account of the bytes which
 842:Generated_Source\PSoC5/SPI_Altitude.c **** *  have been written down in the TX software buffer, modified every function
 843:Generated_Source\PSoC5/SPI_Altitude.c **** *  call - resets to zero.
 844:Generated_Source\PSoC5/SPI_Altitude.c **** *  SPI_Altitude_txBufferRead - used for the account of the bytes which
 845:Generated_Source\PSoC5/SPI_Altitude.c **** *  have been read from the TX software buffer, modified every function call -
 846:Generated_Source\PSoC5/SPI_Altitude.c **** *  resets to zero.
 847:Generated_Source\PSoC5/SPI_Altitude.c **** *
 848:Generated_Source\PSoC5/SPI_Altitude.c **** * Theory:
 849:Generated_Source\PSoC5/SPI_Altitude.c **** *  Setting the pointers to zero makes the system believe there is no data to
 850:Generated_Source\PSoC5/SPI_Altitude.c **** *  read and writing will resume at address 0 overwriting any data that may have
 851:Generated_Source\PSoC5/SPI_Altitude.c **** *  remained in the RAM.
 852:Generated_Source\PSoC5/SPI_Altitude.c **** *
 853:Generated_Source\PSoC5/SPI_Altitude.c **** * Side Effects:
 854:Generated_Source\PSoC5/SPI_Altitude.c **** *  Any data not yet transmitted from the RAM buffer will be lost when
 855:Generated_Source\PSoC5/SPI_Altitude.c **** *  overwritten.
 856:Generated_Source\PSoC5/SPI_Altitude.c **** *
 857:Generated_Source\PSoC5/SPI_Altitude.c **** * Reentrant:
 858:Generated_Source\PSoC5/SPI_Altitude.c **** *  No.
 859:Generated_Source\PSoC5/SPI_Altitude.c **** *
 860:Generated_Source\PSoC5/SPI_Altitude.c **** *******************************************************************************/
 861:Generated_Source\PSoC5/SPI_Altitude.c **** void SPI_Altitude_ClearTxBuffer(void) 
 862:Generated_Source\PSoC5/SPI_Altitude.c **** {
 883              		.loc 1 862 0
 884              		.cfi_startproc
 885              		@ args = 0, pretend = 0, frame = 0
 886              		@ frame_needed = 0, uses_anonymous_args = 0
 887 0000 08B5     		push	{r3, lr}
 888              		.cfi_def_cfa_offset 8
 889              		.cfi_offset 3, -8
 890              		.cfi_offset 14, -4
 863:Generated_Source\PSoC5/SPI_Altitude.c ****     uint8 enableInterrupts;
 864:Generated_Source\PSoC5/SPI_Altitude.c **** 
 865:Generated_Source\PSoC5/SPI_Altitude.c ****     enableInterrupts = CyEnterCriticalSection();
 891              		.loc 1 865 0
 892 0002 FFF7FEFF 		bl	CyEnterCriticalSection
 893              	.LVL30:
 866:Generated_Source\PSoC5/SPI_Altitude.c ****     /* Clear TX FIFO */
 867:Generated_Source\PSoC5/SPI_Altitude.c ****     SPI_Altitude_AUX_CONTROL_DP0_REG |= ((uint8)  SPI_Altitude_TX_FIFO_CLR);
 894              		.loc 1 867 0
 895 0006 0E4B     		ldr	r3, .L75
 896 0008 1A78     		ldrb	r2, [r3]	@ zero_extendqisi2
 897 000a 42F00102 		orr	r2, r2, #1
 898 000e 1A70     		strb	r2, [r3]
 868:Generated_Source\PSoC5/SPI_Altitude.c ****     SPI_Altitude_AUX_CONTROL_DP0_REG &= ((uint8) ~SPI_Altitude_TX_FIFO_CLR);
 899              		.loc 1 868 0
 900 0010 1A78     		ldrb	r2, [r3]	@ zero_extendqisi2
 901 0012 02F0FE02 		and	r2, r2, #254
 902 0016 1A70     		strb	r2, [r3]
 869:Generated_Source\PSoC5/SPI_Altitude.c **** 
 870:Generated_Source\PSoC5/SPI_Altitude.c ****     #if(SPI_Altitude_USE_SECOND_DATAPATH)
 871:Generated_Source\PSoC5/SPI_Altitude.c ****         /* Clear TX FIFO for 2nd Datapath */
 872:Generated_Source\PSoC5/SPI_Altitude.c ****         SPI_Altitude_AUX_CONTROL_DP1_REG |= ((uint8)  SPI_Altitude_TX_FIFO_CLR);
 873:Generated_Source\PSoC5/SPI_Altitude.c ****         SPI_Altitude_AUX_CONTROL_DP1_REG &= ((uint8) ~SPI_Altitude_TX_FIFO_CLR);
 874:Generated_Source\PSoC5/SPI_Altitude.c ****     #endif /* (SPI_Altitude_USE_SECOND_DATAPATH) */
 875:Generated_Source\PSoC5/SPI_Altitude.c ****     CyExitCriticalSection(enableInterrupts);
ARM GAS  C:\Users\Nathan\AppData\Local\Temp\ccxYnS06.s 			page 33


 903              		.loc 1 875 0
 904 0018 FFF7FEFF 		bl	CyExitCriticalSection
 905              	.LVL31:
 906              	.LBB90:
 907              	.LBB91:
 280:Generated_Source\PSoC5/SPI_Altitude.c ****     #endif /* (0u != SPI_Altitude_INTERNAL_TX_INT_ENABLED) */
 908              		.loc 1 280 0
 909 001c 094B     		ldr	r3, .L75+4
 910 001e 0222     		movs	r2, #2
 911              	.LBE91:
 912              	.LBE90:
 876:Generated_Source\PSoC5/SPI_Altitude.c **** 
 877:Generated_Source\PSoC5/SPI_Altitude.c ****     #if(SPI_Altitude_TX_SOFTWARE_BUF_ENABLED)
 878:Generated_Source\PSoC5/SPI_Altitude.c ****         /* Disable TX interrupt to protect global veriables */
 879:Generated_Source\PSoC5/SPI_Altitude.c ****         SPI_Altitude_DisableTxInt();
 880:Generated_Source\PSoC5/SPI_Altitude.c **** 
 881:Generated_Source\PSoC5/SPI_Altitude.c ****         SPI_Altitude_txBufferFull  = 0u;
 913              		.loc 1 881 0
 914 0020 0949     		ldr	r1, .L75+8
 915              	.LBB93:
 916              	.LBB92:
 280:Generated_Source\PSoC5/SPI_Altitude.c ****     #endif /* (0u != SPI_Altitude_INTERNAL_TX_INT_ENABLED) */
 917              		.loc 1 280 0
 918 0022 1A60     		str	r2, [r3]
 919              	.LBE92:
 920              	.LBE93:
 921              		.loc 1 881 0
 922 0024 0023     		movs	r3, #0
 923 0026 0B70     		strb	r3, [r1]
 882:Generated_Source\PSoC5/SPI_Altitude.c ****         SPI_Altitude_txBufferRead  = 0u;
 924              		.loc 1 882 0
 925 0028 0849     		ldr	r1, .L75+12
 926 002a 0B70     		strb	r3, [r1]
 883:Generated_Source\PSoC5/SPI_Altitude.c ****         SPI_Altitude_txBufferWrite = 0u;
 927              		.loc 1 883 0
 928 002c 0849     		ldr	r1, .L75+16
 929 002e 0B70     		strb	r3, [r1]
 884:Generated_Source\PSoC5/SPI_Altitude.c **** 
 885:Generated_Source\PSoC5/SPI_Altitude.c ****         /* Buffer is EMPTY: disable TX FIFO NOT FULL interrupt */
 886:Generated_Source\PSoC5/SPI_Altitude.c ****         SPI_Altitude_TX_STATUS_MASK_REG &= ((uint8) ~SPI_Altitude_STS_TX_FIFO_NOT_FULL);
 930              		.loc 1 886 0
 931 0030 0849     		ldr	r1, .L75+20
 932 0032 0B78     		ldrb	r3, [r1]	@ zero_extendqisi2
 933 0034 03F0FB03 		and	r3, r3, #251
 934 0038 0B70     		strb	r3, [r1]
 935              	.LBB94:
 936              	.LBB95:
 230:Generated_Source\PSoC5/SPI_Altitude.c ****     #endif /* (0u != SPI_Altitude_INTERNAL_TX_INT_ENABLED) */
 937              		.loc 1 230 0
 938 003a 074B     		ldr	r3, .L75+24
 939 003c 1A60     		str	r2, [r3]
 940 003e 08BD     		pop	{r3, pc}
 941              	.L76:
 942              		.align	2
 943              	.L75:
 944 0040 9B640040 		.word	1073767579
 945 0044 80E100E0 		.word	-536813184
ARM GAS  C:\Users\Nathan\AppData\Local\Temp\ccxYnS06.s 			page 34


 946 0048 00000000 		.word	SPI_Altitude_txBufferFull
 947 004c 00000000 		.word	SPI_Altitude_txBufferRead
 948 0050 00000000 		.word	SPI_Altitude_txBufferWrite
 949 0054 8B650040 		.word	1073767819
 950 0058 00E100E0 		.word	-536813312
 951              	.LBE95:
 952              	.LBE94:
 953              		.cfi_endproc
 954              	.LFE17:
 955              		.size	SPI_Altitude_ClearTxBuffer, .-SPI_Altitude_ClearTxBuffer
 956              		.section	.text.SPI_Altitude_PutArray,"ax",%progbits
 957              		.align	1
 958              		.global	SPI_Altitude_PutArray
 959              		.thumb
 960              		.thumb_func
 961              		.type	SPI_Altitude_PutArray, %function
 962              	SPI_Altitude_PutArray:
 963              	.LFB18:
 887:Generated_Source\PSoC5/SPI_Altitude.c **** 
 888:Generated_Source\PSoC5/SPI_Altitude.c ****         SPI_Altitude_EnableTxInt();
 889:Generated_Source\PSoC5/SPI_Altitude.c ****     #endif /* (SPI_Altitude_TX_SOFTWARE_BUF_ENABLED) */
 890:Generated_Source\PSoC5/SPI_Altitude.c **** }
 891:Generated_Source\PSoC5/SPI_Altitude.c **** 
 892:Generated_Source\PSoC5/SPI_Altitude.c **** 
 893:Generated_Source\PSoC5/SPI_Altitude.c **** #if(0u != SPI_Altitude_BIDIRECTIONAL_MODE)
 894:Generated_Source\PSoC5/SPI_Altitude.c ****     /*******************************************************************************
 895:Generated_Source\PSoC5/SPI_Altitude.c ****     * Function Name: SPI_Altitude_TxEnable
 896:Generated_Source\PSoC5/SPI_Altitude.c ****     ********************************************************************************
 897:Generated_Source\PSoC5/SPI_Altitude.c ****     *
 898:Generated_Source\PSoC5/SPI_Altitude.c ****     * Summary:
 899:Generated_Source\PSoC5/SPI_Altitude.c ****     *  If the SPI master is configured to use a single bi-directional pin then this
 900:Generated_Source\PSoC5/SPI_Altitude.c ****     *  will set the bi-directional pin to transmit.
 901:Generated_Source\PSoC5/SPI_Altitude.c ****     *
 902:Generated_Source\PSoC5/SPI_Altitude.c ****     * Parameters:
 903:Generated_Source\PSoC5/SPI_Altitude.c ****     *  None.
 904:Generated_Source\PSoC5/SPI_Altitude.c ****     *
 905:Generated_Source\PSoC5/SPI_Altitude.c ****     * Return:
 906:Generated_Source\PSoC5/SPI_Altitude.c ****     *  None.
 907:Generated_Source\PSoC5/SPI_Altitude.c ****     *
 908:Generated_Source\PSoC5/SPI_Altitude.c ****     *******************************************************************************/
 909:Generated_Source\PSoC5/SPI_Altitude.c ****     void SPI_Altitude_TxEnable(void) 
 910:Generated_Source\PSoC5/SPI_Altitude.c ****     {
 911:Generated_Source\PSoC5/SPI_Altitude.c ****         SPI_Altitude_CONTROL_REG |= SPI_Altitude_CTRL_TX_SIGNAL_EN;
 912:Generated_Source\PSoC5/SPI_Altitude.c ****     }
 913:Generated_Source\PSoC5/SPI_Altitude.c **** 
 914:Generated_Source\PSoC5/SPI_Altitude.c **** 
 915:Generated_Source\PSoC5/SPI_Altitude.c ****     /*******************************************************************************
 916:Generated_Source\PSoC5/SPI_Altitude.c ****     * Function Name: SPI_Altitude_TxDisable
 917:Generated_Source\PSoC5/SPI_Altitude.c ****     ********************************************************************************
 918:Generated_Source\PSoC5/SPI_Altitude.c ****     *
 919:Generated_Source\PSoC5/SPI_Altitude.c ****     * Summary:
 920:Generated_Source\PSoC5/SPI_Altitude.c ****     *  If the SPI master is configured to use a single bi-directional pin then this
 921:Generated_Source\PSoC5/SPI_Altitude.c ****     *  will set the bi-directional pin to receive.
 922:Generated_Source\PSoC5/SPI_Altitude.c ****     *
 923:Generated_Source\PSoC5/SPI_Altitude.c ****     * Parameters:
 924:Generated_Source\PSoC5/SPI_Altitude.c ****     *  None.
 925:Generated_Source\PSoC5/SPI_Altitude.c ****     *
ARM GAS  C:\Users\Nathan\AppData\Local\Temp\ccxYnS06.s 			page 35


 926:Generated_Source\PSoC5/SPI_Altitude.c ****     * Return:
 927:Generated_Source\PSoC5/SPI_Altitude.c ****     *  None.
 928:Generated_Source\PSoC5/SPI_Altitude.c ****     *
 929:Generated_Source\PSoC5/SPI_Altitude.c ****     *******************************************************************************/
 930:Generated_Source\PSoC5/SPI_Altitude.c ****     void SPI_Altitude_TxDisable(void) 
 931:Generated_Source\PSoC5/SPI_Altitude.c ****     {
 932:Generated_Source\PSoC5/SPI_Altitude.c ****         SPI_Altitude_CONTROL_REG &= ((uint8) ~SPI_Altitude_CTRL_TX_SIGNAL_EN);
 933:Generated_Source\PSoC5/SPI_Altitude.c ****     }
 934:Generated_Source\PSoC5/SPI_Altitude.c **** 
 935:Generated_Source\PSoC5/SPI_Altitude.c **** #endif /* (0u != SPI_Altitude_BIDIRECTIONAL_MODE) */
 936:Generated_Source\PSoC5/SPI_Altitude.c **** 
 937:Generated_Source\PSoC5/SPI_Altitude.c **** 
 938:Generated_Source\PSoC5/SPI_Altitude.c **** /*******************************************************************************
 939:Generated_Source\PSoC5/SPI_Altitude.c **** * Function Name: SPI_Altitude_PutArray
 940:Generated_Source\PSoC5/SPI_Altitude.c **** ********************************************************************************
 941:Generated_Source\PSoC5/SPI_Altitude.c **** *
 942:Generated_Source\PSoC5/SPI_Altitude.c **** * Summary:
 943:Generated_Source\PSoC5/SPI_Altitude.c **** *  Write available data from ROM/RAM to the TX buffer while space is available
 944:Generated_Source\PSoC5/SPI_Altitude.c **** *  in the TX buffer. Keep trying until all data is passed to the TX buffer.
 945:Generated_Source\PSoC5/SPI_Altitude.c **** *
 946:Generated_Source\PSoC5/SPI_Altitude.c **** * Parameters:
 947:Generated_Source\PSoC5/SPI_Altitude.c **** *  *buffer: Pointer to the location in RAM containing the data to send
 948:Generated_Source\PSoC5/SPI_Altitude.c **** *  byteCount: The number of bytes to move to the transmit buffer.
 949:Generated_Source\PSoC5/SPI_Altitude.c **** *
 950:Generated_Source\PSoC5/SPI_Altitude.c **** * Return:
 951:Generated_Source\PSoC5/SPI_Altitude.c **** *  None.
 952:Generated_Source\PSoC5/SPI_Altitude.c **** *
 953:Generated_Source\PSoC5/SPI_Altitude.c **** * Side Effects:
 954:Generated_Source\PSoC5/SPI_Altitude.c **** *  Will stay in this routine until all data has been sent.  May get locked in
 955:Generated_Source\PSoC5/SPI_Altitude.c **** *  this loop if data is not being initiated by the master if there is not
 956:Generated_Source\PSoC5/SPI_Altitude.c **** *  enough room in the TX FIFO.
 957:Generated_Source\PSoC5/SPI_Altitude.c **** *
 958:Generated_Source\PSoC5/SPI_Altitude.c **** * Reentrant:
 959:Generated_Source\PSoC5/SPI_Altitude.c **** *  No.
 960:Generated_Source\PSoC5/SPI_Altitude.c **** *
 961:Generated_Source\PSoC5/SPI_Altitude.c **** *******************************************************************************/
 962:Generated_Source\PSoC5/SPI_Altitude.c **** void SPI_Altitude_PutArray(const uint8 buffer[], uint8 byteCount)
 963:Generated_Source\PSoC5/SPI_Altitude.c ****                                                                           
 964:Generated_Source\PSoC5/SPI_Altitude.c **** {
 964              		.loc 1 964 0
 965              		.cfi_startproc
 966              		@ args = 0, pretend = 0, frame = 0
 967              		@ frame_needed = 0, uses_anonymous_args = 0
 968              	.LVL32:
 969 0000 38B5     		push	{r3, r4, r5, lr}
 970              		.cfi_def_cfa_offset 16
 971              		.cfi_offset 3, -16
 972              		.cfi_offset 4, -12
 973              		.cfi_offset 5, -8
 974              		.cfi_offset 14, -4
 975              		.loc 1 964 0
 976 0002 0C46     		mov	r4, r1
 977 0004 451E     		subs	r5, r0, #1
 978              	.LVL33:
 979              	.L78:
 965:Generated_Source\PSoC5/SPI_Altitude.c ****     uint8 bufIndex;
 966:Generated_Source\PSoC5/SPI_Altitude.c **** 
ARM GAS  C:\Users\Nathan\AppData\Local\Temp\ccxYnS06.s 			page 36


 967:Generated_Source\PSoC5/SPI_Altitude.c ****     bufIndex = 0u;
 968:Generated_Source\PSoC5/SPI_Altitude.c **** 
 969:Generated_Source\PSoC5/SPI_Altitude.c ****     while(byteCount > 0u)
 980              		.loc 1 969 0
 981 0006 34B1     		cbz	r4, .L80
 970:Generated_Source\PSoC5/SPI_Altitude.c ****     {
 971:Generated_Source\PSoC5/SPI_Altitude.c ****         SPI_Altitude_WriteTxData(buffer[bufIndex]);
 982              		.loc 1 971 0
 983 0008 15F8010F 		ldrb	r0, [r5, #1]!	@ zero_extendqisi2
 984              	.LVL34:
 972:Generated_Source\PSoC5/SPI_Altitude.c ****         bufIndex++;
 973:Generated_Source\PSoC5/SPI_Altitude.c ****         byteCount--;
 985              		.loc 1 973 0
 986 000c 013C     		subs	r4, r4, #1
 987              	.LVL35:
 971:Generated_Source\PSoC5/SPI_Altitude.c ****         bufIndex++;
 988              		.loc 1 971 0
 989 000e FFF7FEFF 		bl	SPI_Altitude_WriteTxData
 990              	.LVL36:
 991              		.loc 1 973 0
 992 0012 E4B2     		uxtb	r4, r4
 993              	.LVL37:
 994 0014 F7E7     		b	.L78
 995              	.L80:
 974:Generated_Source\PSoC5/SPI_Altitude.c ****     }
 975:Generated_Source\PSoC5/SPI_Altitude.c **** }
 996              		.loc 1 975 0
 997 0016 38BD     		pop	{r3, r4, r5, pc}
 998              		.cfi_endproc
 999              	.LFE18:
 1000              		.size	SPI_Altitude_PutArray, .-SPI_Altitude_PutArray
 1001              		.section	.text.SPI_Altitude_ClearFIFO,"ax",%progbits
 1002              		.align	1
 1003              		.global	SPI_Altitude_ClearFIFO
 1004              		.thumb
 1005              		.thumb_func
 1006              		.type	SPI_Altitude_ClearFIFO, %function
 1007              	SPI_Altitude_ClearFIFO:
 1008              	.LFB19:
 976:Generated_Source\PSoC5/SPI_Altitude.c **** 
 977:Generated_Source\PSoC5/SPI_Altitude.c **** 
 978:Generated_Source\PSoC5/SPI_Altitude.c **** /*******************************************************************************
 979:Generated_Source\PSoC5/SPI_Altitude.c **** * Function Name: SPI_Altitude_ClearFIFO
 980:Generated_Source\PSoC5/SPI_Altitude.c **** ********************************************************************************
 981:Generated_Source\PSoC5/SPI_Altitude.c **** *
 982:Generated_Source\PSoC5/SPI_Altitude.c **** * Summary:
 983:Generated_Source\PSoC5/SPI_Altitude.c **** *  Clear the RX and TX FIFO's of all data for a fresh start.
 984:Generated_Source\PSoC5/SPI_Altitude.c **** *
 985:Generated_Source\PSoC5/SPI_Altitude.c **** * Parameters:
 986:Generated_Source\PSoC5/SPI_Altitude.c **** *  None.
 987:Generated_Source\PSoC5/SPI_Altitude.c **** *
 988:Generated_Source\PSoC5/SPI_Altitude.c **** * Return:
 989:Generated_Source\PSoC5/SPI_Altitude.c **** *  None.
 990:Generated_Source\PSoC5/SPI_Altitude.c **** *
 991:Generated_Source\PSoC5/SPI_Altitude.c **** * Side Effects:
 992:Generated_Source\PSoC5/SPI_Altitude.c **** *  Clear status register of the component.
 993:Generated_Source\PSoC5/SPI_Altitude.c **** *
ARM GAS  C:\Users\Nathan\AppData\Local\Temp\ccxYnS06.s 			page 37


 994:Generated_Source\PSoC5/SPI_Altitude.c **** *******************************************************************************/
 995:Generated_Source\PSoC5/SPI_Altitude.c **** void SPI_Altitude_ClearFIFO(void) 
 996:Generated_Source\PSoC5/SPI_Altitude.c **** {
 1009              		.loc 1 996 0
 1010              		.cfi_startproc
 1011              		@ args = 0, pretend = 0, frame = 0
 1012              		@ frame_needed = 0, uses_anonymous_args = 0
 1013 0000 08B5     		push	{r3, lr}
 1014              		.cfi_def_cfa_offset 8
 1015              		.cfi_offset 3, -8
 1016              		.cfi_offset 14, -4
 997:Generated_Source\PSoC5/SPI_Altitude.c ****     uint8 enableInterrupts;
 998:Generated_Source\PSoC5/SPI_Altitude.c **** 
 999:Generated_Source\PSoC5/SPI_Altitude.c ****     /* Clear Hardware RX FIFO */
1000:Generated_Source\PSoC5/SPI_Altitude.c ****     while(0u !=(SPI_Altitude_RX_STATUS_REG & SPI_Altitude_STS_RX_FIFO_NOT_EMPTY))
 1017              		.loc 1 1000 0
 1018 0002 0B4A     		ldr	r2, .L85
1001:Generated_Source\PSoC5/SPI_Altitude.c ****     {
1002:Generated_Source\PSoC5/SPI_Altitude.c ****         (void) CY_GET_REG8(SPI_Altitude_RXDATA_PTR);
 1019              		.loc 1 1002 0
 1020 0004 0B49     		ldr	r1, .L85+4
 1021              	.L82:
1000:Generated_Source\PSoC5/SPI_Altitude.c ****     {
 1022              		.loc 1 1000 0
 1023 0006 1378     		ldrb	r3, [r2]	@ zero_extendqisi2
 1024 0008 9B06     		lsls	r3, r3, #26
 1025 000a 01D5     		bpl	.L84
 1026              		.loc 1 1002 0
 1027 000c 0B78     		ldrb	r3, [r1]	@ zero_extendqisi2
 1028 000e FAE7     		b	.L82
 1029              	.L84:
1003:Generated_Source\PSoC5/SPI_Altitude.c ****     }
1004:Generated_Source\PSoC5/SPI_Altitude.c **** 
1005:Generated_Source\PSoC5/SPI_Altitude.c ****     enableInterrupts = CyEnterCriticalSection();
 1030              		.loc 1 1005 0
 1031 0010 FFF7FEFF 		bl	CyEnterCriticalSection
 1032              	.LVL38:
1006:Generated_Source\PSoC5/SPI_Altitude.c ****     /* Clear TX FIFO */
1007:Generated_Source\PSoC5/SPI_Altitude.c ****     SPI_Altitude_AUX_CONTROL_DP0_REG |= ((uint8)  SPI_Altitude_TX_FIFO_CLR);
 1033              		.loc 1 1007 0
 1034 0014 084B     		ldr	r3, .L85+8
 1035 0016 1A78     		ldrb	r2, [r3]	@ zero_extendqisi2
 1036 0018 42F00102 		orr	r2, r2, #1
 1037 001c 1A70     		strb	r2, [r3]
1008:Generated_Source\PSoC5/SPI_Altitude.c ****     SPI_Altitude_AUX_CONTROL_DP0_REG &= ((uint8) ~SPI_Altitude_TX_FIFO_CLR);
 1038              		.loc 1 1008 0
 1039 001e 1A78     		ldrb	r2, [r3]	@ zero_extendqisi2
 1040 0020 02F0FE02 		and	r2, r2, #254
 1041 0024 1A70     		strb	r2, [r3]
1009:Generated_Source\PSoC5/SPI_Altitude.c **** 
1010:Generated_Source\PSoC5/SPI_Altitude.c ****     #if(SPI_Altitude_USE_SECOND_DATAPATH)
1011:Generated_Source\PSoC5/SPI_Altitude.c ****         /* Clear TX FIFO for 2nd Datapath */
1012:Generated_Source\PSoC5/SPI_Altitude.c ****         SPI_Altitude_AUX_CONTROL_DP1_REG |= ((uint8)  SPI_Altitude_TX_FIFO_CLR);
1013:Generated_Source\PSoC5/SPI_Altitude.c ****         SPI_Altitude_AUX_CONTROL_DP1_REG &= ((uint8) ~SPI_Altitude_TX_FIFO_CLR);
1014:Generated_Source\PSoC5/SPI_Altitude.c ****     #endif /* (SPI_Altitude_USE_SECOND_DATAPATH) */
1015:Generated_Source\PSoC5/SPI_Altitude.c ****     CyExitCriticalSection(enableInterrupts);
1016:Generated_Source\PSoC5/SPI_Altitude.c **** }
ARM GAS  C:\Users\Nathan\AppData\Local\Temp\ccxYnS06.s 			page 38


 1042              		.loc 1 1016 0
 1043 0026 BDE80840 		pop	{r3, lr}
 1044              		.cfi_restore 14
 1045              		.cfi_restore 3
 1046              		.cfi_def_cfa_offset 0
1015:Generated_Source\PSoC5/SPI_Altitude.c **** }
 1047              		.loc 1 1015 0
 1048 002a FFF7FEBF 		b	CyExitCriticalSection
 1049              	.LVL39:
 1050              	.L86:
 1051 002e 00BF     		.align	2
 1052              	.L85:
 1053 0030 64640040 		.word	1073767524
 1054 0034 5B640040 		.word	1073767515
 1055 0038 9B640040 		.word	1073767579
 1056              		.cfi_endproc
 1057              	.LFE19:
 1058              		.size	SPI_Altitude_ClearFIFO, .-SPI_Altitude_ClearFIFO
 1059              		.section	.text.SPI_Altitude_Init,"ax",%progbits
 1060              		.align	1
 1061              		.global	SPI_Altitude_Init
 1062              		.thumb
 1063              		.thumb_func
 1064              		.type	SPI_Altitude_Init, %function
 1065              	SPI_Altitude_Init:
 1066              	.LFB0:
  64:Generated_Source\PSoC5/SPI_Altitude.c ****     /* Initialize the Bit counter */
 1067              		.loc 1 64 0
 1068              		.cfi_startproc
 1069              		@ args = 0, pretend = 0, frame = 0
 1070              		@ frame_needed = 0, uses_anonymous_args = 0
  66:Generated_Source\PSoC5/SPI_Altitude.c **** 
 1071              		.loc 1 66 0
 1072 0000 194B     		ldr	r3, .L88
  64:Generated_Source\PSoC5/SPI_Altitude.c ****     /* Initialize the Bit counter */
 1073              		.loc 1 64 0
 1074 0002 10B5     		push	{r4, lr}
 1075              		.cfi_def_cfa_offset 8
 1076              		.cfi_offset 4, -8
 1077              		.cfi_offset 14, -4
  66:Generated_Source\PSoC5/SPI_Altitude.c **** 
 1078              		.loc 1 66 0
 1079 0004 0F22     		movs	r2, #15
  70:Generated_Source\PSoC5/SPI_Altitude.c ****         CyIntSetPriority     (SPI_Altitude_TX_ISR_NUMBER,  SPI_Altitude_TX_ISR_PRIORITY);
 1080              		.loc 1 70 0
 1081 0006 194C     		ldr	r4, .L88+4
  66:Generated_Source\PSoC5/SPI_Altitude.c **** 
 1082              		.loc 1 66 0
 1083 0008 1A70     		strb	r2, [r3]
  70:Generated_Source\PSoC5/SPI_Altitude.c ****         CyIntSetPriority     (SPI_Altitude_TX_ISR_NUMBER,  SPI_Altitude_TX_ISR_PRIORITY);
 1084              		.loc 1 70 0
 1085 000a 0223     		movs	r3, #2
 1086 000c 2360     		str	r3, [r4]
  71:Generated_Source\PSoC5/SPI_Altitude.c ****         (void) CyIntSetVector(SPI_Altitude_TX_ISR_NUMBER, &SPI_Altitude_TX_ISR);
 1087              		.loc 1 71 0
 1088 000e 0721     		movs	r1, #7
 1089 0010 0120     		movs	r0, #1
ARM GAS  C:\Users\Nathan\AppData\Local\Temp\ccxYnS06.s 			page 39


 1090 0012 FFF7FEFF 		bl	CyIntSetPriority
 1091              	.LVL40:
  72:Generated_Source\PSoC5/SPI_Altitude.c ****     #endif /* (0u != SPI_Altitude_INTERNAL_TX_INT_ENABLED) */
 1092              		.loc 1 72 0
 1093 0016 1649     		ldr	r1, .L88+8
 1094 0018 0120     		movs	r0, #1
 1095 001a FFF7FEFF 		bl	CyIntSetVector
 1096              	.LVL41:
  77:Generated_Source\PSoC5/SPI_Altitude.c ****         CyIntSetPriority     (SPI_Altitude_RX_ISR_NUMBER,  SPI_Altitude_RX_ISR_PRIORITY);
 1097              		.loc 1 77 0
 1098 001e 0123     		movs	r3, #1
 1099 0020 2360     		str	r3, [r4]
  78:Generated_Source\PSoC5/SPI_Altitude.c ****         (void) CyIntSetVector(SPI_Altitude_RX_ISR_NUMBER, &SPI_Altitude_RX_ISR);
 1100              		.loc 1 78 0
 1101 0022 0721     		movs	r1, #7
 1102 0024 0020     		movs	r0, #0
 1103 0026 FFF7FEFF 		bl	CyIntSetPriority
 1104              	.LVL42:
  79:Generated_Source\PSoC5/SPI_Altitude.c ****     #endif /* (0u != SPI_Altitude_INTERNAL_RX_INT_ENABLED) */
 1105              		.loc 1 79 0
 1106 002a 1249     		ldr	r1, .L88+12
 1107 002c 0020     		movs	r0, #0
 1108 002e FFF7FEFF 		bl	CyIntSetVector
 1109              	.LVL43:
  83:Generated_Source\PSoC5/SPI_Altitude.c **** 
 1110              		.loc 1 83 0
 1111 0032 FFF7FEFF 		bl	SPI_Altitude_ClearFIFO
 1112              	.LVL44:
  86:Generated_Source\PSoC5/SPI_Altitude.c ****         SPI_Altitude_rxBufferRead  = 0u;
 1113              		.loc 1 86 0
 1114 0036 104B     		ldr	r3, .L88+16
 1115 0038 0024     		movs	r4, #0
 1116 003a 1C70     		strb	r4, [r3]
  87:Generated_Source\PSoC5/SPI_Altitude.c ****         SPI_Altitude_rxBufferWrite = 0u;
 1117              		.loc 1 87 0
 1118 003c 0F4B     		ldr	r3, .L88+20
 1119 003e 1C70     		strb	r4, [r3]
  88:Generated_Source\PSoC5/SPI_Altitude.c ****     #endif /* (SPI_Altitude_RX_SOFTWARE_BUF_ENABLED) */
 1120              		.loc 1 88 0
 1121 0040 0F4B     		ldr	r3, .L88+24
 1122 0042 1C70     		strb	r4, [r3]
  92:Generated_Source\PSoC5/SPI_Altitude.c ****         SPI_Altitude_txBufferRead  = 0u;
 1123              		.loc 1 92 0
 1124 0044 0F4B     		ldr	r3, .L88+28
 1125 0046 1C70     		strb	r4, [r3]
  93:Generated_Source\PSoC5/SPI_Altitude.c ****         SPI_Altitude_txBufferWrite = 0u;
 1126              		.loc 1 93 0
 1127 0048 0F4B     		ldr	r3, .L88+32
 1128 004a 1C70     		strb	r4, [r3]
  94:Generated_Source\PSoC5/SPI_Altitude.c ****     #endif /* (SPI_Altitude_TX_SOFTWARE_BUF_ENABLED) */
 1129              		.loc 1 94 0
 1130 004c 0F4B     		ldr	r3, .L88+36
 1131 004e 1C70     		strb	r4, [r3]
  97:Generated_Source\PSoC5/SPI_Altitude.c ****     (void) SPI_Altitude_ReadRxStatus(); /* Clear Rx status and swStatusRx */
 1132              		.loc 1 97 0
 1133 0050 FFF7FEFF 		bl	SPI_Altitude_ReadTxStatus
 1134              	.LVL45:
ARM GAS  C:\Users\Nathan\AppData\Local\Temp\ccxYnS06.s 			page 40


  98:Generated_Source\PSoC5/SPI_Altitude.c **** 
 1135              		.loc 1 98 0
 1136 0054 FFF7FEFF 		bl	SPI_Altitude_ReadRxStatus
 1137              	.LVL46:
 101:Generated_Source\PSoC5/SPI_Altitude.c ****     SPI_Altitude_RX_STATUS_MASK_REG = SPI_Altitude_RX_INIT_INTERRUPTS_MASK;
 1138              		.loc 1 101 0
 1139 0058 0D4B     		ldr	r3, .L88+40
 102:Generated_Source\PSoC5/SPI_Altitude.c **** }
 1140              		.loc 1 102 0
 1141 005a 6FF48371 		mvn	r1, #262
 101:Generated_Source\PSoC5/SPI_Altitude.c ****     SPI_Altitude_RX_STATUS_MASK_REG = SPI_Altitude_RX_INIT_INTERRUPTS_MASK;
 1142              		.loc 1 101 0
 1143 005e 1C70     		strb	r4, [r3]
 102:Generated_Source\PSoC5/SPI_Altitude.c **** }
 1144              		.loc 1 102 0
 1145 0060 2022     		movs	r2, #32
 1146 0062 0B44     		add	r3, r3, r1
 1147 0064 1A70     		strb	r2, [r3]
 1148 0066 10BD     		pop	{r4, pc}
 1149              	.L89:
 1150              		.align	2
 1151              	.L88:
 1152 0068 88640040 		.word	1073767560
 1153 006c 80E100E0 		.word	-536813184
 1154 0070 00000000 		.word	SPI_Altitude_TX_ISR
 1155 0074 00000000 		.word	SPI_Altitude_RX_ISR
 1156 0078 00000000 		.word	SPI_Altitude_rxBufferFull
 1157 007c 00000000 		.word	SPI_Altitude_rxBufferRead
 1158 0080 00000000 		.word	SPI_Altitude_rxBufferWrite
 1159 0084 00000000 		.word	SPI_Altitude_txBufferFull
 1160 0088 00000000 		.word	SPI_Altitude_txBufferRead
 1161 008c 00000000 		.word	SPI_Altitude_txBufferWrite
 1162 0090 8B650040 		.word	1073767819
 1163              		.cfi_endproc
 1164              	.LFE0:
 1165              		.size	SPI_Altitude_Init, .-SPI_Altitude_Init
 1166              		.section	.text.SPI_Altitude_Start,"ax",%progbits
 1167              		.align	1
 1168              		.global	SPI_Altitude_Start
 1169              		.thumb
 1170              		.thumb_func
 1171              		.type	SPI_Altitude_Start, %function
 1172              	SPI_Altitude_Start:
 1173              	.LFB2:
 164:Generated_Source\PSoC5/SPI_Altitude.c ****     if(0u == SPI_Altitude_initVar)
 1174              		.loc 1 164 0
 1175              		.cfi_startproc
 1176              		@ args = 0, pretend = 0, frame = 0
 1177              		@ frame_needed = 0, uses_anonymous_args = 0
 1178 0000 10B5     		push	{r4, lr}
 1179              		.cfi_def_cfa_offset 8
 1180              		.cfi_offset 4, -8
 1181              		.cfi_offset 14, -4
 165:Generated_Source\PSoC5/SPI_Altitude.c ****     {
 1182              		.loc 1 165 0
 1183 0002 054C     		ldr	r4, .L92
 1184 0004 2378     		ldrb	r3, [r4]	@ zero_extendqisi2
ARM GAS  C:\Users\Nathan\AppData\Local\Temp\ccxYnS06.s 			page 41


 1185 0006 1BB9     		cbnz	r3, .L91
 167:Generated_Source\PSoC5/SPI_Altitude.c ****         SPI_Altitude_initVar = 1u;
 1186              		.loc 1 167 0
 1187 0008 FFF7FEFF 		bl	SPI_Altitude_Init
 1188              	.LVL47:
 168:Generated_Source\PSoC5/SPI_Altitude.c ****     }
 1189              		.loc 1 168 0
 1190 000c 0123     		movs	r3, #1
 1191 000e 2370     		strb	r3, [r4]
 1192              	.L91:
 172:Generated_Source\PSoC5/SPI_Altitude.c **** 
 1193              		.loc 1 172 0
 1194 0010 BDE81040 		pop	{r4, lr}
 1195              		.cfi_restore 14
 1196              		.cfi_restore 4
 1197              		.cfi_def_cfa_offset 0
 171:Generated_Source\PSoC5/SPI_Altitude.c **** }
 1198              		.loc 1 171 0
 1199 0014 FFF7FEBF 		b	SPI_Altitude_Enable
 1200              	.LVL48:
 1201              	.L93:
 1202              		.align	2
 1203              	.L92:
 1204 0018 00000000 		.word	.LANCHOR0
 1205              		.cfi_endproc
 1206              	.LFE2:
 1207              		.size	SPI_Altitude_Start, .-SPI_Altitude_Start
 1208              		.section	.text.SPI_Altitude_EnableInt,"ax",%progbits
 1209              		.align	1
 1210              		.global	SPI_Altitude_EnableInt
 1211              		.thumb
 1212              		.thumb_func
 1213              		.type	SPI_Altitude_EnableInt, %function
 1214              	SPI_Altitude_EnableInt:
 1215              	.LFB20:
1017:Generated_Source\PSoC5/SPI_Altitude.c **** 
1018:Generated_Source\PSoC5/SPI_Altitude.c **** 
1019:Generated_Source\PSoC5/SPI_Altitude.c **** /* Following functions are for version Compatibility, they are obsolete.
1020:Generated_Source\PSoC5/SPI_Altitude.c **** *  Please do not use it in new projects.
1021:Generated_Source\PSoC5/SPI_Altitude.c **** */
1022:Generated_Source\PSoC5/SPI_Altitude.c **** 
1023:Generated_Source\PSoC5/SPI_Altitude.c **** 
1024:Generated_Source\PSoC5/SPI_Altitude.c **** /*******************************************************************************
1025:Generated_Source\PSoC5/SPI_Altitude.c **** * Function Name: SPI_Altitude_EnableInt
1026:Generated_Source\PSoC5/SPI_Altitude.c **** ********************************************************************************
1027:Generated_Source\PSoC5/SPI_Altitude.c **** *
1028:Generated_Source\PSoC5/SPI_Altitude.c **** * Summary:
1029:Generated_Source\PSoC5/SPI_Altitude.c **** *  Enable internal interrupt generation.
1030:Generated_Source\PSoC5/SPI_Altitude.c **** *
1031:Generated_Source\PSoC5/SPI_Altitude.c **** * Parameters:
1032:Generated_Source\PSoC5/SPI_Altitude.c **** *  None.
1033:Generated_Source\PSoC5/SPI_Altitude.c **** *
1034:Generated_Source\PSoC5/SPI_Altitude.c **** * Return:
1035:Generated_Source\PSoC5/SPI_Altitude.c **** *  None.
1036:Generated_Source\PSoC5/SPI_Altitude.c **** *
1037:Generated_Source\PSoC5/SPI_Altitude.c **** * Theory:
1038:Generated_Source\PSoC5/SPI_Altitude.c **** *  Enable the internal interrupt output -or- the interrupt component itself.
ARM GAS  C:\Users\Nathan\AppData\Local\Temp\ccxYnS06.s 			page 42


1039:Generated_Source\PSoC5/SPI_Altitude.c **** *
1040:Generated_Source\PSoC5/SPI_Altitude.c **** *******************************************************************************/
1041:Generated_Source\PSoC5/SPI_Altitude.c **** void SPI_Altitude_EnableInt(void) 
1042:Generated_Source\PSoC5/SPI_Altitude.c **** {
 1216              		.loc 1 1042 0
 1217              		.cfi_startproc
 1218              		@ args = 0, pretend = 0, frame = 0
 1219              		@ frame_needed = 0, uses_anonymous_args = 0
 1220              		@ link register save eliminated.
 1221              	.LBB96:
 1222              	.LBB97:
 255:Generated_Source\PSoC5/SPI_Altitude.c ****     #endif /* (0u != SPI_Altitude_INTERNAL_RX_INT_ENABLED) */
 1223              		.loc 1 255 0
 1224 0000 024B     		ldr	r3, .L95
 1225 0002 0122     		movs	r2, #1
 1226 0004 1A60     		str	r2, [r3]
 1227              	.LBE97:
 1228              	.LBE96:
 1229              	.LBB98:
 1230              	.LBB99:
 230:Generated_Source\PSoC5/SPI_Altitude.c ****     #endif /* (0u != SPI_Altitude_INTERNAL_TX_INT_ENABLED) */
 1231              		.loc 1 230 0
 1232 0006 0222     		movs	r2, #2
 1233 0008 1A60     		str	r2, [r3]
 1234 000a 7047     		bx	lr
 1235              	.L96:
 1236              		.align	2
 1237              	.L95:
 1238 000c 00E100E0 		.word	-536813312
 1239              	.LBE99:
 1240              	.LBE98:
 1241              		.cfi_endproc
 1242              	.LFE20:
 1243              		.size	SPI_Altitude_EnableInt, .-SPI_Altitude_EnableInt
 1244              		.section	.text.SPI_Altitude_DisableInt,"ax",%progbits
 1245              		.align	1
 1246              		.global	SPI_Altitude_DisableInt
 1247              		.thumb
 1248              		.thumb_func
 1249              		.type	SPI_Altitude_DisableInt, %function
 1250              	SPI_Altitude_DisableInt:
 1251              	.LFB21:
1043:Generated_Source\PSoC5/SPI_Altitude.c ****     SPI_Altitude_EnableRxInt();
1044:Generated_Source\PSoC5/SPI_Altitude.c ****     SPI_Altitude_EnableTxInt();
1045:Generated_Source\PSoC5/SPI_Altitude.c **** }
1046:Generated_Source\PSoC5/SPI_Altitude.c **** 
1047:Generated_Source\PSoC5/SPI_Altitude.c **** 
1048:Generated_Source\PSoC5/SPI_Altitude.c **** /*******************************************************************************
1049:Generated_Source\PSoC5/SPI_Altitude.c **** * Function Name: SPI_Altitude_DisableInt
1050:Generated_Source\PSoC5/SPI_Altitude.c **** ********************************************************************************
1051:Generated_Source\PSoC5/SPI_Altitude.c **** *
1052:Generated_Source\PSoC5/SPI_Altitude.c **** * Summary:
1053:Generated_Source\PSoC5/SPI_Altitude.c **** *  Disable internal interrupt generation.
1054:Generated_Source\PSoC5/SPI_Altitude.c **** *
1055:Generated_Source\PSoC5/SPI_Altitude.c **** * Parameters:
1056:Generated_Source\PSoC5/SPI_Altitude.c **** *  None.
1057:Generated_Source\PSoC5/SPI_Altitude.c **** *
ARM GAS  C:\Users\Nathan\AppData\Local\Temp\ccxYnS06.s 			page 43


1058:Generated_Source\PSoC5/SPI_Altitude.c **** * Return:
1059:Generated_Source\PSoC5/SPI_Altitude.c **** *  None.
1060:Generated_Source\PSoC5/SPI_Altitude.c **** *
1061:Generated_Source\PSoC5/SPI_Altitude.c **** * Theory:
1062:Generated_Source\PSoC5/SPI_Altitude.c **** *  Disable the internal interrupt output -or- the interrupt component itself.
1063:Generated_Source\PSoC5/SPI_Altitude.c **** *
1064:Generated_Source\PSoC5/SPI_Altitude.c **** *******************************************************************************/
1065:Generated_Source\PSoC5/SPI_Altitude.c **** void SPI_Altitude_DisableInt(void) 
1066:Generated_Source\PSoC5/SPI_Altitude.c **** {
 1252              		.loc 1 1066 0
 1253              		.cfi_startproc
 1254              		@ args = 0, pretend = 0, frame = 0
 1255              		@ frame_needed = 0, uses_anonymous_args = 0
 1256              		@ link register save eliminated.
 1257              	.LBB100:
 1258              	.LBB101:
 280:Generated_Source\PSoC5/SPI_Altitude.c ****     #endif /* (0u != SPI_Altitude_INTERNAL_TX_INT_ENABLED) */
 1259              		.loc 1 280 0
 1260 0000 024B     		ldr	r3, .L98
 1261 0002 0222     		movs	r2, #2
 1262 0004 1A60     		str	r2, [r3]
 1263              	.LBE101:
 1264              	.LBE100:
 1265              	.LBB102:
 1266              	.LBB103:
 305:Generated_Source\PSoC5/SPI_Altitude.c ****     #endif /* (0u != SPI_Altitude_INTERNAL_RX_INT_ENABLED) */
 1267              		.loc 1 305 0
 1268 0006 0122     		movs	r2, #1
 1269 0008 1A60     		str	r2, [r3]
 1270 000a 7047     		bx	lr
 1271              	.L99:
 1272              		.align	2
 1273              	.L98:
 1274 000c 80E100E0 		.word	-536813184
 1275              	.LBE103:
 1276              	.LBE102:
 1277              		.cfi_endproc
 1278              	.LFE21:
 1279              		.size	SPI_Altitude_DisableInt, .-SPI_Altitude_DisableInt
 1280              		.section	.text.SPI_Altitude_SetInterruptMode,"ax",%progbits
 1281              		.align	1
 1282              		.global	SPI_Altitude_SetInterruptMode
 1283              		.thumb
 1284              		.thumb_func
 1285              		.type	SPI_Altitude_SetInterruptMode, %function
 1286              	SPI_Altitude_SetInterruptMode:
 1287              	.LFB22:
1067:Generated_Source\PSoC5/SPI_Altitude.c ****     SPI_Altitude_DisableTxInt();
1068:Generated_Source\PSoC5/SPI_Altitude.c ****     SPI_Altitude_DisableRxInt();
1069:Generated_Source\PSoC5/SPI_Altitude.c **** }
1070:Generated_Source\PSoC5/SPI_Altitude.c **** 
1071:Generated_Source\PSoC5/SPI_Altitude.c **** 
1072:Generated_Source\PSoC5/SPI_Altitude.c **** /*******************************************************************************
1073:Generated_Source\PSoC5/SPI_Altitude.c **** * Function Name: SPI_Altitude_SetInterruptMode
1074:Generated_Source\PSoC5/SPI_Altitude.c **** ********************************************************************************
1075:Generated_Source\PSoC5/SPI_Altitude.c **** *
1076:Generated_Source\PSoC5/SPI_Altitude.c **** * Summary:
ARM GAS  C:\Users\Nathan\AppData\Local\Temp\ccxYnS06.s 			page 44


1077:Generated_Source\PSoC5/SPI_Altitude.c **** *  Configure which status bits trigger an interrupt event.
1078:Generated_Source\PSoC5/SPI_Altitude.c **** *
1079:Generated_Source\PSoC5/SPI_Altitude.c **** * Parameters:
1080:Generated_Source\PSoC5/SPI_Altitude.c **** *  intSrc: An or'd combination of the desired status bit masks (defined in the
1081:Generated_Source\PSoC5/SPI_Altitude.c **** *  header file).
1082:Generated_Source\PSoC5/SPI_Altitude.c **** *
1083:Generated_Source\PSoC5/SPI_Altitude.c **** * Return:
1084:Generated_Source\PSoC5/SPI_Altitude.c **** *  None.
1085:Generated_Source\PSoC5/SPI_Altitude.c **** *
1086:Generated_Source\PSoC5/SPI_Altitude.c **** * Theory:
1087:Generated_Source\PSoC5/SPI_Altitude.c **** *  Enables the output of specific status bits to the interrupt controller.
1088:Generated_Source\PSoC5/SPI_Altitude.c **** *
1089:Generated_Source\PSoC5/SPI_Altitude.c **** *******************************************************************************/
1090:Generated_Source\PSoC5/SPI_Altitude.c **** void SPI_Altitude_SetInterruptMode(uint8 intSrc) 
1091:Generated_Source\PSoC5/SPI_Altitude.c **** {
 1288              		.loc 1 1091 0
 1289              		.cfi_startproc
 1290              		@ args = 0, pretend = 0, frame = 0
 1291              		@ frame_needed = 0, uses_anonymous_args = 0
 1292              		@ link register save eliminated.
 1293              	.LVL49:
1092:Generated_Source\PSoC5/SPI_Altitude.c ****     SPI_Altitude_TX_STATUS_MASK_REG  = (intSrc & ((uint8) ~SPI_Altitude_STS_SPI_IDLE));
 1294              		.loc 1 1092 0
 1295 0000 044B     		ldr	r3, .L101
 1296 0002 00F0EF02 		and	r2, r0, #239
 1297 0006 1A70     		strb	r2, [r3]
1093:Generated_Source\PSoC5/SPI_Altitude.c ****     SPI_Altitude_RX_STATUS_MASK_REG  =  intSrc;
 1298              		.loc 1 1093 0
 1299 0008 6FF48372 		mvn	r2, #262
 1300 000c 1344     		add	r3, r3, r2
 1301 000e 1870     		strb	r0, [r3]
 1302 0010 7047     		bx	lr
 1303              	.L102:
 1304 0012 00BF     		.align	2
 1305              	.L101:
 1306 0014 8B650040 		.word	1073767819
 1307              		.cfi_endproc
 1308              	.LFE22:
 1309              		.size	SPI_Altitude_SetInterruptMode, .-SPI_Altitude_SetInterruptMode
 1310              		.section	.text.SPI_Altitude_ReadStatus,"ax",%progbits
 1311              		.align	1
 1312              		.global	SPI_Altitude_ReadStatus
 1313              		.thumb
 1314              		.thumb_func
 1315              		.type	SPI_Altitude_ReadStatus, %function
 1316              	SPI_Altitude_ReadStatus:
 1317              	.LFB23:
1094:Generated_Source\PSoC5/SPI_Altitude.c **** }
1095:Generated_Source\PSoC5/SPI_Altitude.c **** 
1096:Generated_Source\PSoC5/SPI_Altitude.c **** 
1097:Generated_Source\PSoC5/SPI_Altitude.c **** /*******************************************************************************
1098:Generated_Source\PSoC5/SPI_Altitude.c **** * Function Name: SPI_Altitude_ReadStatus
1099:Generated_Source\PSoC5/SPI_Altitude.c **** ********************************************************************************
1100:Generated_Source\PSoC5/SPI_Altitude.c **** *
1101:Generated_Source\PSoC5/SPI_Altitude.c **** * Summary:
1102:Generated_Source\PSoC5/SPI_Altitude.c **** *  Read the status register for the component.
1103:Generated_Source\PSoC5/SPI_Altitude.c **** *
ARM GAS  C:\Users\Nathan\AppData\Local\Temp\ccxYnS06.s 			page 45


1104:Generated_Source\PSoC5/SPI_Altitude.c **** * Parameters:
1105:Generated_Source\PSoC5/SPI_Altitude.c **** *  None.
1106:Generated_Source\PSoC5/SPI_Altitude.c **** *
1107:Generated_Source\PSoC5/SPI_Altitude.c **** * Return:
1108:Generated_Source\PSoC5/SPI_Altitude.c **** *  Contents of the status register.
1109:Generated_Source\PSoC5/SPI_Altitude.c **** *
1110:Generated_Source\PSoC5/SPI_Altitude.c **** * Global variables:
1111:Generated_Source\PSoC5/SPI_Altitude.c **** *  SPI_Altitude_swStatus - used to store in software status register,
1112:Generated_Source\PSoC5/SPI_Altitude.c **** *  modified every function call - resets to zero.
1113:Generated_Source\PSoC5/SPI_Altitude.c **** *
1114:Generated_Source\PSoC5/SPI_Altitude.c **** * Theory:
1115:Generated_Source\PSoC5/SPI_Altitude.c **** *  Allows the user and the API to read the status register for error detection
1116:Generated_Source\PSoC5/SPI_Altitude.c **** *  and flow control.
1117:Generated_Source\PSoC5/SPI_Altitude.c **** *
1118:Generated_Source\PSoC5/SPI_Altitude.c **** * Side Effects:
1119:Generated_Source\PSoC5/SPI_Altitude.c **** *  Clear status register of the component.
1120:Generated_Source\PSoC5/SPI_Altitude.c **** *
1121:Generated_Source\PSoC5/SPI_Altitude.c **** * Reentrant:
1122:Generated_Source\PSoC5/SPI_Altitude.c **** *  No.
1123:Generated_Source\PSoC5/SPI_Altitude.c **** *
1124:Generated_Source\PSoC5/SPI_Altitude.c **** *******************************************************************************/
1125:Generated_Source\PSoC5/SPI_Altitude.c **** uint8 SPI_Altitude_ReadStatus(void) 
1126:Generated_Source\PSoC5/SPI_Altitude.c **** {
 1318              		.loc 1 1126 0
 1319              		.cfi_startproc
 1320              		@ args = 0, pretend = 0, frame = 0
 1321              		@ frame_needed = 0, uses_anonymous_args = 0
 1322 0000 38B5     		push	{r3, r4, r5, lr}
 1323              		.cfi_def_cfa_offset 16
 1324              		.cfi_offset 3, -16
 1325              		.cfi_offset 4, -12
 1326              		.cfi_offset 5, -8
 1327              		.cfi_offset 14, -4
1127:Generated_Source\PSoC5/SPI_Altitude.c ****     uint8 tmpStatus;
1128:Generated_Source\PSoC5/SPI_Altitude.c **** 
1129:Generated_Source\PSoC5/SPI_Altitude.c ****     #if(SPI_Altitude_TX_SOFTWARE_BUF_ENABLED || SPI_Altitude_RX_SOFTWARE_BUF_ENABLED)
1130:Generated_Source\PSoC5/SPI_Altitude.c **** 
1131:Generated_Source\PSoC5/SPI_Altitude.c ****         SPI_Altitude_DisableInt();
 1328              		.loc 1 1131 0
 1329 0002 FFF7FEFF 		bl	SPI_Altitude_DisableInt
 1330              	.LVL50:
1132:Generated_Source\PSoC5/SPI_Altitude.c **** 
1133:Generated_Source\PSoC5/SPI_Altitude.c ****         tmpStatus  = SPI_Altitude_GET_STATUS_RX(SPI_Altitude_swStatusRx);
 1331              		.loc 1 1133 0
 1332 0006 0B4C     		ldr	r4, .L104
 1333 0008 0B4B     		ldr	r3, .L104+4
1134:Generated_Source\PSoC5/SPI_Altitude.c ****         tmpStatus |= SPI_Altitude_GET_STATUS_TX(SPI_Altitude_swStatusTx);
 1334              		.loc 1 1134 0
 1335 000a 0C4D     		ldr	r5, .L104+8
1133:Generated_Source\PSoC5/SPI_Altitude.c ****         tmpStatus |= SPI_Altitude_GET_STATUS_TX(SPI_Altitude_swStatusTx);
 1336              		.loc 1 1133 0
 1337 000c 1878     		ldrb	r0, [r3]	@ zero_extendqisi2
 1338 000e 2178     		ldrb	r1, [r4]	@ zero_extendqisi2
 1339              	.LVL51:
 1340              		.loc 1 1134 0
 1341 0010 93F80721 		ldrb	r2, [r3, #263]	@ zero_extendqisi2
 1342 0014 2B78     		ldrb	r3, [r5]	@ zero_extendqisi2
ARM GAS  C:\Users\Nathan\AppData\Local\Temp\ccxYnS06.s 			page 46


 1343 0016 01F04001 		and	r1, r1, #64
 1344              	.LVL52:
 1345 001a 1043     		orrs	r0, r0, r2
 1346 001c 0843     		orrs	r0, r0, r1
 1347 001e 03F00903 		and	r3, r3, #9
 1348 0022 1843     		orrs	r0, r0, r3
 1349              	.LVL53:
1135:Generated_Source\PSoC5/SPI_Altitude.c ****         tmpStatus &= ((uint8) ~SPI_Altitude_STS_SPI_IDLE);
1136:Generated_Source\PSoC5/SPI_Altitude.c **** 
1137:Generated_Source\PSoC5/SPI_Altitude.c ****         SPI_Altitude_swStatusTx = 0u;
 1350              		.loc 1 1137 0
 1351 0024 0023     		movs	r3, #0
 1352 0026 2B70     		strb	r3, [r5]
1138:Generated_Source\PSoC5/SPI_Altitude.c ****         SPI_Altitude_swStatusRx = 0u;
 1353              		.loc 1 1138 0
 1354 0028 2370     		strb	r3, [r4]
1139:Generated_Source\PSoC5/SPI_Altitude.c **** 
1140:Generated_Source\PSoC5/SPI_Altitude.c ****         SPI_Altitude_EnableInt();
 1355              		.loc 1 1140 0
 1356 002a FFF7FEFF 		bl	SPI_Altitude_EnableInt
 1357              	.LVL54:
1141:Generated_Source\PSoC5/SPI_Altitude.c **** 
1142:Generated_Source\PSoC5/SPI_Altitude.c ****     #else
1143:Generated_Source\PSoC5/SPI_Altitude.c **** 
1144:Generated_Source\PSoC5/SPI_Altitude.c ****         tmpStatus  = SPI_Altitude_RX_STATUS_REG;
1145:Generated_Source\PSoC5/SPI_Altitude.c ****         tmpStatus |= SPI_Altitude_TX_STATUS_REG;
1146:Generated_Source\PSoC5/SPI_Altitude.c ****         tmpStatus &= ((uint8) ~SPI_Altitude_STS_SPI_IDLE);
1147:Generated_Source\PSoC5/SPI_Altitude.c **** 
1148:Generated_Source\PSoC5/SPI_Altitude.c ****     #endif /* (SPI_Altitude_TX_SOFTWARE_BUF_ENABLED || SPI_Altitude_RX_SOFTWARE_BUF_ENABLED) */
1149:Generated_Source\PSoC5/SPI_Altitude.c **** 
1150:Generated_Source\PSoC5/SPI_Altitude.c ****     return(tmpStatus);
1151:Generated_Source\PSoC5/SPI_Altitude.c **** }
 1358              		.loc 1 1151 0
 1359 002e 00F0EF00 		and	r0, r0, #239
 1360 0032 38BD     		pop	{r3, r4, r5, pc}
 1361              	.L105:
 1362              		.align	2
 1363              	.L104:
 1364 0034 00000000 		.word	SPI_Altitude_swStatusRx
 1365 0038 64640040 		.word	1073767524
 1366 003c 00000000 		.word	SPI_Altitude_swStatusTx
 1367              		.cfi_endproc
 1368              	.LFE23:
 1369              		.size	SPI_Altitude_ReadStatus, .-SPI_Altitude_ReadStatus
 1370              		.comm	SPI_Altitude_swStatusRx,1,1
 1371              		.comm	SPI_Altitude_swStatusTx,1,1
 1372              		.global	SPI_Altitude_initVar
 1373              		.comm	SPI_Altitude_rxBufferWrite,1,1
 1374              		.comm	SPI_Altitude_rxBufferRead,1,1
 1375              		.comm	SPI_Altitude_rxBufferFull,1,1
 1376              		.comm	SPI_Altitude_rxBuffer,8,1
 1377              		.comm	SPI_Altitude_txBufferWrite,1,1
 1378              		.comm	SPI_Altitude_txBufferRead,1,1
 1379              		.comm	SPI_Altitude_txBufferFull,1,1
 1380              		.comm	SPI_Altitude_txBuffer,8,1
 1381              		.bss
 1382              		.set	.LANCHOR0,. + 0
ARM GAS  C:\Users\Nathan\AppData\Local\Temp\ccxYnS06.s 			page 47


 1383              		.type	SPI_Altitude_initVar, %object
 1384              		.size	SPI_Altitude_initVar, 1
 1385              	SPI_Altitude_initVar:
 1386 0000 00       		.space	1
 1387              		.text
 1388              	.Letext0:
 1389              		.file 2 "Generated_Source\\PSoC5\\cytypes.h"
 1390              		.file 3 "Generated_Source\\PSoC5\\CyLib.h"
 1391              		.file 4 "Generated_Source\\PSoC5\\SPI_Altitude_IntClock.h"